 TTG

 Timestamp is 54ca65eb (Thu Jan 29 17:55:07 2015)

 Preferred load address is 00400000

 Start         Length     Name                   Class
 0001:00000000 00023d70H .text                   CODE
 0001:00023d70 00002607H .text$x                 CODE
 0001:00026380 0000113bH .text$yc                CODE
 0001:000274c0 00000437H .text$yd                CODE
 0002:00000000 0000046cH .idata$5                DATA
 0002:0000046c 00000004H .CRT$XCA                DATA
 0002:00000470 00000004H .CRT$XCAA               DATA
 0002:00000474 00000004H .CRT$XCL                DATA
 0002:00000478 00000380H .CRT$XCU                DATA
 0002:000007f8 00000004H .CRT$XCZ                DATA
 0002:000007fc 00000004H .CRT$XIA                DATA
 0002:00000800 00000004H .CRT$XIAA               DATA
 0002:00000804 00000004H .CRT$XIC                DATA
 0002:00000808 00000004H .CRT$XIU                DATA
 0002:0000080c 00000004H .CRT$XIY                DATA
 0002:00000810 00000004H .CRT$XIZ                DATA
 0002:00000814 00000004H .CRT$XLA                DATA
 0002:00000818 00000004H .CRT$XLC                DATA
 0002:0000081c 00000004H .CRT$XLZ                DATA
 0002:00000820 00000004H .CRT$XTU                DATA
 0002:00000830 00002b48H .rdata                  DATA
 0002:00003378 00000018H .rdata$T                DATA
 0002:00003390 00000060H .rdata$debug            DATA
 0002:000033f0 00001858H .rdata$r                DATA
 0002:00004c48 00000004H .rtc$IAA                DATA
 0002:00004c4c 00000004H .rtc$IZZ                DATA
 0002:00004c50 00000004H .rtc$TAA                DATA
 0002:00004c54 00000004H .rtc$TZZ                DATA
 0002:00004c58 00002df0H .xdata$x                DATA
 0002:00007a48 0000008cH .idata$2                DATA
 0002:00007ad4 00000014H .idata$3                DATA
 0002:00007ae8 0000046cH .idata$4                DATA
 0002:00007f54 000032d4H .idata$6                DATA
 0002:0000b228 00000000H .edata                  DATA
 0003:00000000 00001010H .data                   DATA
 0003:00001010 000006e0H .bss                    DATA
 0004:00000000 00000001H .tls                    DATA
 0004:00000001 00000001H .tls$ZZZ                DATA
 0005:00000000 00000058H .rsrc$01                DATA
 0005:00000060 00000180H .rsrc$02                DATA

  Address         Publics by Value              Rva+Base       Lib:Object

 0000:00000000       __except_list              00000000     <absolute>
 0000:00000000       ___safe_se_handler_table   00000000     <absolute>
 0000:00000000       ___safe_se_handler_count   00000000     <absolute>
 0000:00009876       __ldused                   00009876     <absolute>
 0000:00009876       __fltused                  00009876     <absolute>
 0000:00000000       ___ImageBase               00400000     <linker-defined>
 0001:00000000       ??1?$_Deque_iterator@V?$_Deque_val@U?$_Deque_simple_types@H@std@@@std@@@std@@QAE@XZ 00401000 f i Map:Parser.obj
 0001:00000000       ?sp_enable_shared_from_this@detail@boost@@YAXZZ 00401000 f i log.obj
 0001:00000000       ?release@CMenuState@Application@@UAEXXZ 00401000 f i MenuState.obj
 0001:00000000       ?tss_cleanup_implemented@boost@@YAXXZ 00401000 f i libboost_thread-vc110-mt-1_55:tss_pe.obj
 0001:00000000       ??1?$_Deque_iterator@V?$_Deque_val@U?$_Deque_simple_types@Tsemantic_type@CParser@Map@@@std@@@std@@@std@@QAE@XZ 00401000 f i Map:Parser.obj
 0001:00000000       ?release@CApplicationState@Application@@UAEXXZ 00401000 f i EventState.obj
 0001:00000000       ??1?$_Deque_const_iterator@V?$_Deque_val@U?$_Deque_simple_types@Vlocation@Map@@@std@@@std@@@std@@QAE@XZ 00401000 f i Map:Parser.obj
 0001:00000000       ?on_process_enter@boost@@YAXXZ 00401000 f i libboost_thread-vc110-mt-1_55:thread.obj
 0001:00000000       ??3@YAXPAX0@Z              00401000 f i 3DApplication.obj
 0001:00000000       ?deactivate@IComponent@Logic@@UAEXXZ 00401000 f i Logic:ControllerComponent.obj
 0001:00000000       ?activate@CApplicationState@Application@@UAEXXZ 00401000 f i EventState.obj
 0001:00000000       ?release@CEventState@Application@@UAEXXZ 00401000 f i EventState.obj
 0001:00000000       ?deactivate@CControllerComponent@Logic@@UAEXXZ 00401000 f i Logic:ControllerComponent.obj
 0001:00000000       ?deactivate@CApplicationState@Application@@UAEXXZ 00401000 f i EventState.obj
 0001:00000000       ??1?$_Deque_iterator@V?$_Deque_val@U?$_Deque_simple_types@Vlocation@Map@@@std@@@std@@@std@@QAE@XZ 00401000 f i Map:Parser.obj
 0001:00000000       ??1?$_Deque_const_iterator@V?$_Deque_val@U?$_Deque_simple_types@H@std@@@std@@@std@@QAE@XZ 00401000 f i Map:Parser.obj
 0001:00000000       ??1?$_Deque_const_iterator@V?$_Deque_val@U?$_Deque_simple_types@Tsemantic_type@CParser@Map@@@std@@@std@@@std@@QAE@XZ 00401000 f i Map:Parser.obj
 0001:00000000       ?release@CPauseState@Application@@UAEXXZ 00401000 f i PauseState.obj
 0001:00000010       ?compare@?$char_traits@D@std@@SAHPBD0I@Z 00401010 f i 3DApplication.obj
 0001:00000080       ??_G_Generic_error_category@std@@UAEPAXI@Z 00401080 f i 3DApplication.obj
 0001:00000080       ??_Gerror_category@std@@UAEPAXI@Z 00401080 f i 3DApplication.obj
 0001:00000080       ??_G_System_error_category@std@@UAEPAXI@Z 00401080 f i 3DApplication.obj
 0001:00000080       ??_Eerror_category@std@@UAEPAXI@Z 00401080 f i * CIL library *:* CIL module *
 0001:00000080       ??_G_Iostream_error_category@std@@UAEPAXI@Z 00401080 f i 3DApplication.obj
 0001:00000080       ??_E_System_error_category@std@@UAEPAXI@Z 00401080 f i * CIL library *:* CIL module *
 0001:00000080       ??_E_Generic_error_category@std@@UAEPAXI@Z 00401080 f i * CIL library *:* CIL module *
 0001:00000080       ??_E_Iostream_error_category@std@@UAEPAXI@Z 00401080 f i * CIL library *:* CIL module *
 0001:000000b0       ?default_error_condition@error_category@std@@UBE?AVerror_condition@2@H@Z 004010b0 f i 3DApplication.obj
 0001:000000d0       ?equivalent@error_category@std@@UBE_NHABVerror_condition@2@@Z 004010d0 f i 3DApplication.obj
 0001:00000110       ?equivalent@error_category@std@@UBE_NABVerror_code@2@H@Z 00401110 f i 3DApplication.obj
 0001:00000130       ?name@_Generic_error_category@std@@UBEPBDXZ 00401130 f i 3DApplication.obj
 0001:00000130       ?name@generic_error_category@?A0xeba5f5ee@system@boost@@UBEPBDXZ 00401130 f i libboost_system-vc110-mt-1_55:error_code.obj
 0001:00000140       ?message@_Generic_error_category@std@@UBE?AV?$basic_string@DU?$char_traits@D@std@@V?$allocator@D@2@@2@H@Z 00401140 f i 3DApplication.obj
 0001:000001c0       ?name@_Iostream_error_category@std@@UBEPBDXZ 004011c0 f i 3DApplication.obj
 0001:000001d0       ?message@_Iostream_error_category@std@@UBE?AV?$basic_string@DU?$char_traits@D@std@@V?$allocator@D@2@@2@H@Z 004011d0 f i 3DApplication.obj
 0001:00000220       ?name@_System_error_category@std@@UBEPBDXZ 00401220 f i 3DApplication.obj
 0001:00000220       ?name@system_error_category@?A0xeba5f5ee@system@boost@@UBEPBDXZ 00401220 f i libboost_system-vc110-mt-1_55:error_code.obj
 0001:00000230       ?message@_System_error_category@std@@UBE?AV?$basic_string@DU?$char_traits@D@std@@V?$allocator@D@2@@2@H@Z 00401230 f i 3DApplication.obj
 0001:000002b0       ?default_error_condition@_System_error_category@std@@UBE?AVerror_condition@2@H@Z 004012b0 f i 3DApplication.obj
 0001:000002f0       ?windowClosing@CWindowEventListener@Application@@UAE_NPAVRenderWindow@Ogre@@@Z 004012f0 f i 3DApplication.obj
 0001:00000300       ??_ECWindowEventListener@Application@@UAEPAXI@Z 00401300 f i * CIL library *:* CIL module *
 0001:00000300       ??_GCWindowEventListener@Application@@UAEPAXI@Z 00401300 f i 3DApplication.obj
 0001:00000330       ?init@C3DApplication@Application@@UAE_NXZ 00401330 f   3DApplication.obj
 0001:000004a0       ?release@C3DApplication@Application@@UAEXXZ 004014a0 f   3DApplication.obj
 0001:00000590       ?tick@C3DApplication@Application@@MAEXI@Z 00401590 f   3DApplication.obj
 0001:00000610       ?initOgre@C3DApplication@Application@@AAE_NXZ 00401610 f   3DApplication.obj
 0001:00000b30       ?initOgreResources@C3DApplication@Application@@AAE_NXZ 00401b30 f   3DApplication.obj
 0001:00000c70       ?initOIS@C3DApplication@Application@@AAE_NXZ 00401c70 f   3DApplication.obj
 0001:000010b0       ??1?$multimap@V?$basic_string@DU?$char_traits@D@std@@V?$allocator@D@2@@std@@V12@U?$less@V?$basic_string@DU?$char_traits@D@std@@V?$allocator@D@2@@std@@@2@V?$allocator@U?$pair@$$CBV?$basic_string@DU?$char_traits@D@std@@V?$allocator@D@2@@std@@V12@@std@@@2@@std@@QAE@XZ 004020b0 f i 3DApplication.obj
 0001:000010b0       ??1?$map@V?$basic_string@DU?$char_traits@D@std@@V?$allocator@D@2@@std@@V12@U?$less@V?$basic_string@DU?$char_traits@D@std@@V?$allocator@D@2@@std@@@2@V?$allocator@U?$pair@$$CBV?$basic_string@DU?$char_traits@D@std@@V?$allocator@D@2@@std@@V12@@std@@@2@@std@@QAE@XZ 004020b0 f i Configure.obj
 0001:000010e0       ??_D?$basic_ostringstream@DU?$char_traits@D@std@@V?$allocator@D@2@@std@@QAEXXZ 004020e0 f i 3DApplication.obj
 0001:00001120       ??1?$pair@V?$basic_string@DU?$char_traits@D@std@@V?$allocator@D@2@@std@@V12@@std@@QAE@XZ 00402120 f i 3DApplication.obj
 0001:00001170       ?initCEGUI@C3DApplication@Application@@AAE_NXZ 00402170 f   3DApplication.obj
 0001:00001650       ?releaseOgre@C3DApplication@Application@@AAEXXZ 00402650 f   3DApplication.obj
 0001:000016c0       ??0?$basic_string@DU?$char_traits@D@std@@V?$allocator@D@2@@std@@QAE@PBD@Z 004026c0 f i 3DApplication.obj
 0001:00001720       ??0?$basic_string@DU?$char_traits@D@std@@V?$allocator@D@2@@std@@QAE@$$QAV01@@Z 00402720 f i 3DApplication.obj
 0001:00001790       ??1?$pair@V?$basic_string@DU?$char_traits@D@std@@V?$allocator@D@2@@std@@_J@std@@QAE@XZ 00402790 f i Map:MapGenerator.obj
 0001:00001790       ??1?$pair@V?$basic_string@DU?$char_traits@D@std@@V?$allocator@D@2@@std@@PAVCApplicationState@Application@@@std@@QAE@XZ 00402790 f i BaseApplication.obj
 0001:00001790       ??1?$basic_string@DU?$char_traits@D@std@@V?$allocator@D@2@@std@@QAE@XZ 00402790 f i 3DApplication.obj
 0001:00001790       ??1?$pair@V?$basic_string@DU?$char_traits@D@std@@V?$allocator@D@2@@std@@P6APAVIComponent@Logic@@XZ@std@@QAE@XZ 00402790 f i Logic:ControllerComponent.obj
 0001:00001790       ??1?$pair@V?$basic_string@DU?$char_traits@D@std@@V?$allocator@D@2@@std@@PAVCConfigure@Configuration@Common@@@std@@QAE@XZ 00402790 f i Configure.obj
 0001:000017c0       ??1?$basic_stringbuf@DU?$char_traits@D@std@@V?$allocator@D@2@@std@@UAE@XZ 004027c0 f i 3DApplication.obj
 0001:00001830       ?overflow@?$basic_stringbuf@DU?$char_traits@D@std@@V?$allocator@D@2@@std@@MAEHH@Z 00402830 f i 3DApplication.obj
 0001:00001a00       ?pbackfail@?$basic_stringbuf@DU?$char_traits@D@std@@V?$allocator@D@2@@std@@MAEHH@Z 00402a00 f i 3DApplication.obj
 0001:00001a60       ?underflow@?$basic_stringbuf@DU?$char_traits@D@std@@V?$allocator@D@2@@std@@MAEHXZ 00402a60 f i 3DApplication.obj
 0001:00001ac0       ?seekoff@?$basic_stringbuf@DU?$char_traits@D@std@@V?$allocator@D@2@@std@@MAE?AV?$fpos@H@2@_JHH@Z 00402ac0 f i 3DApplication.obj
 0001:00001c90       ?seekpos@?$basic_stringbuf@DU?$char_traits@D@std@@V?$allocator@D@2@@std@@MAE?AV?$fpos@H@2@V32@H@Z 00402c90 f i 3DApplication.obj
 0001:00001dc0       ?str@?$basic_ostringstream@DU?$char_traits@D@std@@V?$allocator@D@2@@std@@QBE?AV?$basic_string@DU?$char_traits@D@std@@V?$allocator@D@2@@2@XZ 00402dc0 f i 3DApplication.obj
 0001:00001de0       ?peekNextKey@?$MapIteratorWrapper@V?$map@V?$basic_string@DU?$char_traits@D@std@@V?$allocator@D@2@@std@@PAV?$multimap@V?$basic_string@DU?$char_traits@D@std@@V?$allocator@D@2@@std@@V12@U?$less@V?$basic_string@DU?$char_traits@D@std@@V?$allocator@D@2@@std@@@2@V?$STLAllocator@U?$pair@$$CBV?$basic_string@DU?$char_traits@D@std@@V?$allocator@D@2@@std@@V12@@std@@V?$CategorisedAllocPolicy@$0A@@Ogre@@@Ogre@@@2@U?$less@V?$basic_string@DU?$char_traits@D@std@@V?$allocator@D@2@@std@@@2@V?$STLAllocator@U?$pair@$$CBV?$basic_string@DU?$char_traits@D@std@@V?$allocator@D@2@@std@@PAV?$multimap@V?$basic_string@DU?$char_traits@D@std@@V?$allocator@D@2@@std@@V12@U?$less@V?$basic_string@DU?$char_traits@D@std@@V?$allocator@D@2@@std@@@2@V?$STLAllocator@U?$pair@$$CBV?$basic_string@DU?$char_traits@D@std@@V?$allocator@D@2@@std@@V12@@std@@V?$CategorisedAllocPolicy@$0A@@Ogre@@@Ogre@@@2@@std@@V?$CategorisedAllocPolicy@$0A@@Ogre@@@Ogre@@@std@@V?$_Tree_iterator@V?$_Tree_val@U?$_Tree_simple_types@U?$pair@$$CBV?$basic_string@DU?$char_traits@D@std@@V?$allocator@D@2@@std@@PAV?$multimap@V?$basic_string@DU?$char_traits@D@std@@V?$allocator@D@2@@std@@V12@U?$less@V?$basic_string@DU?$char_traits@D@std@@V?$allocator@D@2@@std@@@2@V?$STLAllocator@U?$pair@$$CBV?$basic_string@DU?$char_traits@D@std@@V?$allocator@D@2@@std@@V12@@std@@V?$CategorisedAllocPolicy@$0A@@Ogre@@@Ogre@@@2@@std@@@std@@@std@@@2@@Ogre@@QBE?AV?$basic_string@DU?$char_traits@D@std@@V?$allocator@D@2@@std@@XZ 00402de0 f i 3DApplication.obj
 0001:00001e20       ??_G?$basic_stringbuf@DU?$char_traits@D@std@@V?$allocator@D@2@@std@@UAEPAXI@Z 00402e20 f i 3DApplication.obj
 0001:00001e20       ??_E?$basic_stringbuf@DU?$char_traits@D@std@@V?$allocator@D@2@@std@@UAEPAXI@Z 00402e20 f i * CIL library *:* CIL module *
 0001:00001e50       ??_E?$basic_ostringstream@DU?$char_traits@D@std@@V?$allocator@D@2@@std@@UAEPAXI@Z 00402e50 f i * CIL library *:* CIL module *
 0001:00001e50       ??_G?$basic_ostringstream@DU?$char_traits@D@std@@V?$allocator@D@2@@std@@UAEPAXI@Z 00402e50 f i 3DApplication.obj
 0001:00001eb0       ?assign@?$basic_string@DU?$char_traits@D@std@@V?$allocator@D@2@@std@@QAEAAV12@ABV12@II@Z 00402eb0 f i 3DApplication.obj
 0001:00001fd0       ?erase@?$basic_string@DU?$char_traits@D@std@@V?$allocator@D@2@@std@@QAEAAV12@II@Z 00402fd0 f i 3DApplication.obj
 0001:00002070       ?allocate@?$_Wrap_alloc@V?$allocator@D@std@@@std@@QAEPADI@Z 00403070 f i 3DApplication.obj
 0001:00002070       ?allocate@?$allocator@D@std@@QAEPADI@Z 00403070 f i 3DApplication.obj
 0001:000020a0       ??R?$less@V?$basic_string@DU?$char_traits@D@std@@V?$allocator@D@2@@std@@@std@@QBE_NABV?$basic_string@DU?$char_traits@D@std@@V?$allocator@D@2@@1@0@Z 004030a0 f i 3DApplication.obj
 0001:00002100       ?str@?$basic_stringbuf@DU?$char_traits@D@std@@V?$allocator@D@2@@std@@QBE?AV?$basic_string@DU?$char_traits@D@std@@V?$allocator@D@2@@2@XZ 00403100 f i 3DApplication.obj
 0001:00002230       ??E?$_Tree_unchecked_const_iterator@V?$_Tree_val@U?$_Tree_simple_types@U?$pair@$$CBIPAVCEntity@Logic@@@std@@@std@@@std@@U_Iterator_base0@2@@std@@QAEAAV01@XZ 00403230 f i Logic:Scene.obj
 0001:00002230       ??E?$_Tree_unchecked_const_iterator@V?$_Tree_val@U?$_Tree_simple_types@U?$pair@$$CBW4TKeyID@Key@Input@Common@@PAVICommand@Command@Controller@GUI@@@std@@@std@@@std@@U_Iterator_base0@2@@std@@QAEAAV01@XZ 00403230 f i GUI:PlayerController.obj
 0001:00002230       ??E?$_Tree_unchecked_const_iterator@V?$_Tree_val@U?$_Tree_simple_types@U?$pair@QAVCMouseState@InputListener@GUI@@PAVICommand@Command@Controller@3@@std@@@std@@@std@@U_Iterator_base0@2@@std@@QAEAAV01@XZ 00403230 f i GUI:PlayerController.obj
 0001:00002230       ??E?$_Tree_unchecked_const_iterator@V?$_Tree_val@U?$_Tree_simple_types@U?$pair@$$CBV?$basic_string@DU?$char_traits@D@std@@V?$allocator@D@2@@std@@_J@std@@@std@@@std@@U_Iterator_base0@2@@std@@QAEAAV01@XZ 00403230 f i Map:MapGenerator.obj
 0001:00002230       ??E?$_Tree_unchecked_const_iterator@V?$_Tree_val@U?$_Tree_simple_types@U?$pair@$$CBV?$basic_string@DU?$char_traits@D@std@@V?$allocator@D@2@@std@@P6APAVIComponent@Logic@@XZ@std@@@std@@@std@@U_Iterator_base0@2@@std@@QAEAAV01@XZ 00403230 f i Logic:EntityFactory.obj
 0001:00002230       ??E?$_Tree_unchecked_const_iterator@V?$_Tree_val@U?$_Tree_simple_types@U?$pair@$$CBV?$basic_string@DU?$char_traits@D@std@@V?$allocator@D@2@@std@@V?$vector@UTXMLComponent@Blueprints@Data@Common@@V?$allocator@UTXMLComponent@Blueprints@Data@Common@@@std@@@2@@std@@@std@@@std@@U_Iterator_base0@2@@std@@QAEAAV01@XZ 00403230 f i XmlParser.obj
 0001:00002230       ??E?$_Tree_unchecked_const_iterator@V?$_Tree_val@U?$_Tree_simple_types@U?$pair@$$CBV?$basic_string@DU?$char_traits@D@std@@V?$allocator@D@2@@std@@UTBluePrint@CEntityFactory@Logic@@@std@@@std@@@std@@U_Iterator_base0@2@@std@@QAEAAV01@XZ 00403230 f i Logic:EntityFactory.obj
 0001:00002230       ??E?$_Tree_unchecked_const_iterator@V?$_Tree_val@U?$_Tree_simple_types@U?$pair@$$CBV?$basic_string@DU?$char_traits@D@std@@V?$allocator@D@2@@std@@PAVCConfigure@Configuration@Common@@@std@@@std@@@std@@U_Iterator_base0@2@@std@@QAEAAV01@XZ 00403230 f i Configure.obj
 0001:00002230       ??E?$_Tree_unchecked_const_iterator@V?$_Tree_val@U?$_Tree_simple_types@U?$pair@QBXUtss_data_node@detail@boost@@@std@@@std@@@std@@U_Iterator_base0@2@@std@@QAEAAV01@XZ 00403230 f i libboost_thread-vc110-mt-1_55:thread.obj
 0001:00002230       ??E?$_Tree_unchecked_const_iterator@V?$_Tree_val@U?$_Tree_simple_types@U?$pair@$$CBV?$basic_string@DU?$char_traits@D@std@@V?$allocator@D@2@@std@@PAVCApplicationState@Application@@@std@@@std@@@std@@U_Iterator_base0@2@@std@@QAEAAV01@XZ 00403230 f i BaseApplication.obj
 0001:00002230       ??E?$_Tree_unchecked_const_iterator@V?$_Tree_val@U?$_Tree_simple_types@U?$pair@$$CBV?$basic_string@DU?$char_traits@D@std@@V?$allocator@D@2@@std@@V12@@std@@@std@@@std@@U_Iterator_base0@2@@std@@QAEAAV01@XZ 00403230 f i 3DApplication.obj
 0001:00002280       ?assign@?$basic_string@DU?$char_traits@D@std@@V?$allocator@D@2@@std@@QAEAAV12@PBDI@Z 00403280 f i 3DApplication.obj
 0001:00002380       ?erase@?$basic_string@DU?$char_traits@D@std@@V?$allocator@D@2@@std@@QAEAAV12@I@Z 00403380 f i 3DApplication.obj
 0001:000023c0       ?_Eos@?$basic_string@DU?$char_traits@D@std@@V?$allocator@D@2@@std@@QAEXI@Z 004033c0 f i 3DApplication.obj
 0001:000023f0       ?_Grow@?$basic_string@DU?$char_traits@D@std@@V?$allocator@D@2@@std@@QAE_NI_N@Z 004033f0 f i 3DApplication.obj
 0001:000024a0       ??0?$terminal@Ubin_float@tag@spirit@boost@@@spirit@boost@@QAE@XZ 004034a0 f i libboost_log-vc110-mt-1_55:text_file_backend.obj
 0001:000024a0       ??0?$terminal@Uword@tag@spirit@boost@@@spirit@boost@@QAE@XZ 004034a0 f i libboost_log-vc110-mt-1_55:text_file_backend.obj
 0001:000024a0       ??0?$terminal@U?$char_code@Uchar_@tag@spirit@boost@@Uascii@char_encoding@34@@tag@spirit@boost@@@spirit@boost@@QAE@XZ 004034a0 f i libboost_log-vc110-mt-1_55:text_file_backend.obj
 0001:000024a0       ??0?$terminal@Ustream@tag@spirit@boost@@@spirit@boost@@QAE@XZ 004034a0 f i libboost_log-vc110-mt-1_55:text_file_backend.obj
 0001:000024a0       ??0?$_Wrap_alloc@V?$allocator@_W@std@@@std@@QAE@XZ 004034a0 f i log.obj
 0001:000024a0       ??0?$terminal@Uskip@tag@spirit@boost@@@spirit@boost@@QAE@XZ 004034a0 f i libboost_log-vc110-mt-1_55:text_file_backend.obj
 0001:000024a0       ??0?$_Wrap_alloc@V?$allocator@U?$_Tree_node@U?$pair@$$CBV?$basic_string@DU?$char_traits@D@std@@V?$allocator@D@2@@std@@PAVCConfigure@Configuration@Common@@@std@@PAX@std@@@std@@@std@@QAE@XZ 004034a0 f i Configure.obj
 0001:000024a0       ??0?$terminal@Utoken@tag@spirit@boost@@@spirit@boost@@QAE@XZ 004034a0 f i libboost_log-vc110-mt-1_55:text_file_backend.obj
 0001:000024a0       ??0?$terminal@Ulittle_dword@tag@spirit@boost@@@spirit@boost@@QAE@XZ 004034a0 f i libboost_log-vc110-mt-1_55:text_file_backend.obj
 0001:000024a0       ??0?$terminal@Uleft_align@tag@spirit@boost@@@spirit@boost@@QAE@XZ 004034a0 f i libboost_log-vc110-mt-1_55:text_file_backend.obj
 0001:000024a0       ??0?$terminal@Ubyte_@tag@spirit@boost@@@spirit@boost@@QAE@XZ 004034a0 f i libboost_log-vc110-mt-1_55:text_file_backend.obj
 0001:000024a0       ??0?$terminal@Uoct@tag@spirit@boost@@@spirit@boost@@QAE@XZ 004034a0 f i libboost_log-vc110-mt-1_55:text_file_backend.obj
 0001:000024a0       ??0?$_Wrap_alloc@V?$allocator@D@std@@@std@@QAE@XZ 004034a0 f i 3DApplication.obj
 0001:000024a0       ??0?$terminal@Upad@tag@spirit@boost@@@spirit@boost@@QAE@XZ 004034a0 f i libboost_log-vc110-mt-1_55:text_file_backend.obj
 0001:000024a0       ??0?$terminal@Umaxwidth@tag@spirit@boost@@@spirit@boost@@QAE@XZ 004034a0 f i libboost_log-vc110-mt-1_55:text_file_backend.obj
 0001:000024a0       ??0?$terminal@Ubig_bin_double@tag@spirit@boost@@@spirit@boost@@QAE@XZ 004034a0 f i libboost_log-vc110-mt-1_55:text_file_backend.obj
 0001:000024a0       ??0?$terminal@Uright_align@tag@spirit@boost@@@spirit@boost@@QAE@XZ 004034a0 f i libboost_log-vc110-mt-1_55:text_file_backend.obj
 0001:000024a0       ??0?$terminal@Ubin_double@tag@spirit@boost@@@spirit@boost@@QAE@XZ 004034a0 f i libboost_log-vc110-mt-1_55:text_file_backend.obj
 0001:000024a0       ??0?$terminal@Udelimit@tag@spirit@boost@@@spirit@boost@@QAE@XZ 004034a0 f i libboost_log-vc110-mt-1_55:text_file_backend.obj
 0001:000024a0       ??0?$terminal@Ubig_bin_float@tag@spirit@boost@@@spirit@boost@@QAE@XZ 004034a0 f i libboost_log-vc110-mt-1_55:text_file_backend.obj
 0001:000024a0       ??0?$terminal@Ueps@tag@spirit@boost@@@spirit@boost@@QAE@XZ 004034a0 f i libboost_log-vc110-mt-1_55:text_file_backend.obj
 0001:000024a0       ??0?$terminal@Uraw_token@tag@spirit@boost@@@spirit@boost@@QAE@XZ 004034a0 f i libboost_log-vc110-mt-1_55:text_file_backend.obj
 0001:000024a0       ??0?$terminal@Ucenter@tag@spirit@boost@@@spirit@boost@@QAE@XZ 004034a0 f i libboost_log-vc110-mt-1_55:text_file_backend.obj
 0001:000024a0       ??0?$terminal@Ubool_@tag@spirit@boost@@@spirit@boost@@QAE@XZ 004034a0 f i libboost_log-vc110-mt-1_55:text_file_backend.obj
 0001:000024a0       ??0?$terminal@Ulong_double@tag@spirit@boost@@@spirit@boost@@QAE@XZ 004034a0 f i libboost_log-vc110-mt-1_55:text_file_backend.obj
 0001:000024a0       ??0?$terminal@Uauto_@tag@spirit@boost@@@spirit@boost@@QAE@XZ 004034a0 f i libboost_log-vc110-mt-1_55:text_file_backend.obj
 0001:000024a0       ??0?$terminal@U?$char_code@Uchar_@tag@spirit@boost@@Ustandard@char_encoding@34@@tag@spirit@boost@@@spirit@boost@@QAE@XZ 004034a0 f i libboost_log-vc110-mt-1_55:text_file_backend.obj
 0001:000024a0       ??0?$terminal@Utokenid@tag@spirit@boost@@@spirit@boost@@QAE@XZ 004034a0 f i libboost_log-vc110-mt-1_55:text_file_backend.obj
 0001:000024a0       ??0?$terminal@Ulittle_bin_double@tag@spirit@boost@@@spirit@boost@@QAE@XZ 004034a0 f i libboost_log-vc110-mt-1_55:text_file_backend.obj
 0001:000024a0       ??0?$terminal@Ulong_@tag@spirit@boost@@@spirit@boost@@QAE@XZ 004034a0 f i libboost_log-vc110-mt-1_55:text_file_backend.obj
 0001:000024a0       ??0?$terminal@Uin_state@tag@spirit@boost@@@spirit@boost@@QAE@XZ 004034a0 f i libboost_log-vc110-mt-1_55:text_file_backend.obj
 0001:000024a0       ??0?$terminal@Uulong_@tag@spirit@boost@@@spirit@boost@@QAE@XZ 004034a0 f i libboost_log-vc110-mt-1_55:text_file_backend.obj
 0001:000024a0       ??0?$terminal@Ucolumns@tag@spirit@boost@@@spirit@boost@@QAE@XZ 004034a0 f i libboost_log-vc110-mt-1_55:text_file_backend.obj
 0001:000024a0       ??0?$terminal@Ulittle_word@tag@spirit@boost@@@spirit@boost@@QAE@XZ 004034a0 f i libboost_log-vc110-mt-1_55:text_file_backend.obj
 0001:000024a0       ??0?$terminal@U?$char_code@Uchar_@tag@spirit@boost@@Ustandard_wide@char_encoding@34@@tag@spirit@boost@@@spirit@boost@@QAE@XZ 004034a0 f i libboost_log-vc110-mt-1_55:text_file_backend.obj
 0001:000024a0       ??0?$terminal@Uhex@tag@spirit@boost@@@spirit@boost@@QAE@XZ 004034a0 f i libboost_log-vc110-mt-1_55:text_file_backend.obj
 0001:000024a0       ??0?$terminal@Uattr@tag@spirit@boost@@@spirit@boost@@QAE@XZ 004034a0 f i libboost_log-vc110-mt-1_55:text_file_backend.obj
 0001:000024a0       ??0?$terminal@Ulittle_bin_float@tag@spirit@boost@@@spirit@boost@@QAE@XZ 004034a0 f i libboost_log-vc110-mt-1_55:text_file_backend.obj
 0001:000024a0       ??0?$terminal@Uuint_@tag@spirit@boost@@@spirit@boost@@QAE@XZ 004034a0 f i libboost_log-vc110-mt-1_55:text_file_backend.obj
 0001:000024a0       ??0?$terminal@Uwstream@tag@spirit@boost@@@spirit@boost@@QAE@XZ 004034a0 f i libboost_log-vc110-mt-1_55:text_file_backend.obj
 0001:000024a0       ??0?$terminal@Ulong_long@tag@spirit@boost@@@spirit@boost@@QAE@XZ 004034a0 f i libboost_log-vc110-mt-1_55:text_file_backend.obj
 0001:000024a0       ??0?$terminal@Uulong_long@tag@spirit@boost@@@spirit@boost@@QAE@XZ 004034a0 f i libboost_log-vc110-mt-1_55:text_file_backend.obj
 0001:000024a0       ??0?$terminal@U?$char_code@Ustring@tag@spirit@boost@@Uascii@char_encoding@34@@tag@spirit@boost@@@spirit@boost@@QAE@XZ 004034a0 f i libboost_log-vc110-mt-1_55:text_file_backend.obj
 0001:000024a0       ??0?$terminal@Uset_state@tag@spirit@boost@@@spirit@boost@@QAE@XZ 004034a0 f i libboost_log-vc110-mt-1_55:text_file_backend.obj
 0001:000024a0       ??0?$terminal@Utokenid_mask@tag@spirit@boost@@@spirit@boost@@QAE@XZ 004034a0 f i libboost_log-vc110-mt-1_55:text_file_backend.obj
 0001:000024a0       ??0?$terminal@Udword@tag@spirit@boost@@@spirit@boost@@QAE@XZ 004034a0 f i libboost_log-vc110-mt-1_55:text_file_backend.obj
 0001:000024a0       ??0?$terminal@U?$char_code@Ustring@tag@spirit@boost@@Uiso8859_1@char_encoding@34@@tag@spirit@boost@@@spirit@boost@@QAE@XZ 004034a0 f i libboost_log-vc110-mt-1_55:text_file_backend.obj
 0001:000024a0       ??0?$terminal@Udouble_@tag@spirit@boost@@@spirit@boost@@QAE@XZ 004034a0 f i libboost_log-vc110-mt-1_55:text_file_backend.obj
 0001:000024a0       ??0?$terminal@U?$char_code@Uchar_@tag@spirit@boost@@Uiso8859_1@char_encoding@34@@tag@spirit@boost@@@spirit@boost@@QAE@XZ 004034a0 f i libboost_log-vc110-mt-1_55:text_file_backend.obj
 0001:000024a0       ??0?$terminal@Ubig_qword@tag@spirit@boost@@@spirit@boost@@QAE@XZ 004034a0 f i libboost_log-vc110-mt-1_55:text_file_backend.obj
 0001:000024a0       ??0?$terminal@Uushort_@tag@spirit@boost@@@spirit@boost@@QAE@XZ 004034a0 f i libboost_log-vc110-mt-1_55:text_file_backend.obj
 0001:000024a0       ??0?$terminal@Ulit@tag@spirit@boost@@@spirit@boost@@QAE@XZ 004034a0 f i libboost_log-vc110-mt-1_55:text_file_backend.obj
 0001:000024a0       ??0?$terminal@Ufloat_@tag@spirit@boost@@@spirit@boost@@QAE@XZ 004034a0 f i libboost_log-vc110-mt-1_55:text_file_backend.obj
 0001:000024a0       ??0?$terminal@Ubig_word@tag@spirit@boost@@@spirit@boost@@QAE@XZ 004034a0 f i libboost_log-vc110-mt-1_55:text_file_backend.obj
 0001:000024a0       ??0?$terminal@Ulittle_qword@tag@spirit@boost@@@spirit@boost@@QAE@XZ 004034a0 f i libboost_log-vc110-mt-1_55:text_file_backend.obj
 0001:000024a0       ??0?$terminal@U?$char_code@Ustring@tag@spirit@boost@@Ustandard@char_encoding@34@@tag@spirit@boost@@@spirit@boost@@QAE@XZ 004034a0 f i libboost_log-vc110-mt-1_55:text_file_backend.obj
 0001:000024a0       ??0?$terminal@Ubin@tag@spirit@boost@@@spirit@boost@@QAE@XZ 004034a0 f i libboost_log-vc110-mt-1_55:text_file_backend.obj
 0001:000024a0       ??0?$terminal@U?$char_code@Ustring@tag@spirit@boost@@Ustandard_wide@char_encoding@34@@tag@spirit@boost@@@spirit@boost@@QAE@XZ 004034a0 f i libboost_log-vc110-mt-1_55:text_file_backend.obj
 0001:000024a0       ??0?$terminal@Ushort_@tag@spirit@boost@@@spirit@boost@@QAE@XZ 004034a0 f i libboost_log-vc110-mt-1_55:text_file_backend.obj
 0001:000024a0       ??0?$terminal@Uint_@tag@spirit@boost@@@spirit@boost@@QAE@XZ 004034a0 f i libboost_log-vc110-mt-1_55:text_file_backend.obj
 0001:000024a0       ??0?$terminal@Ubig_dword@tag@spirit@boost@@@spirit@boost@@QAE@XZ 004034a0 f i libboost_log-vc110-mt-1_55:text_file_backend.obj
 0001:000024a0       ??0?$terminal@Uqword@tag@spirit@boost@@@spirit@boost@@QAE@XZ 004034a0 f i libboost_log-vc110-mt-1_55:text_file_backend.obj
 0001:000024a0       ??0?$terminal@Urepeat@tag@spirit@boost@@@spirit@boost@@QAE@XZ 004034a0 f i libboost_log-vc110-mt-1_55:text_file_backend.obj
 0001:000024b0       ?_Init@?$basic_stringbuf@DU?$char_traits@D@std@@V?$allocator@D@2@@std@@IAEXPBDIH@Z 004034b0 f i 3DApplication.obj
 0001:00002570       ?erase@?$_Tree@V?$_Tmap_traits@V?$basic_string@DU?$char_traits@D@std@@V?$allocator@D@2@@std@@V12@U?$less@V?$basic_string@DU?$char_traits@D@std@@V?$allocator@D@2@@std@@@2@V?$allocator@U?$pair@$$CBV?$basic_string@DU?$char_traits@D@std@@V?$allocator@D@2@@std@@V12@@std@@@2@$00@std@@@std@@QAE?AV?$_Tree_iterator@V?$_Tree_val@U?$_Tree_simple_types@U?$pair@$$CBV?$basic_string@DU?$char_traits@D@std@@V?$allocator@D@2@@std@@V12@@std@@@std@@@std@@@2@V?$_Tree_const_iterator@V?$_Tree_val@U?$_Tree_simple_types@U?$pair@$$CBV?$basic_string@DU?$char_traits@D@std@@V?$allocator@D@2@@std@@V12@@std@@@std@@@std@@@2@0@Z 00403570 f i 3DApplication.obj
 0001:00002570       ?erase@?$_Tree@V?$_Tmap_traits@V?$basic_string@DU?$char_traits@D@std@@V?$allocator@D@2@@std@@V12@U?$less@V?$basic_string@DU?$char_traits@D@std@@V?$allocator@D@2@@std@@@2@V?$allocator@U?$pair@$$CBV?$basic_string@DU?$char_traits@D@std@@V?$allocator@D@2@@std@@V12@@std@@@2@$0A@@std@@@std@@QAE?AV?$_Tree_iterator@V?$_Tree_val@U?$_Tree_simple_types@U?$pair@$$CBV?$basic_string@DU?$char_traits@D@std@@V?$allocator@D@2@@std@@V12@@std@@@std@@@std@@@2@V?$_Tree_const_iterator@V?$_Tree_val@U?$_Tree_simple_types@U?$pair@$$CBV?$basic_string@DU?$char_traits@D@std@@V?$allocator@D@2@@std@@V12@@std@@@std@@@std@@@2@0@Z 00403570 f i Configure.obj
 0001:00002630       ?_Copy@?$basic_string@DU?$char_traits@D@std@@V?$allocator@D@2@@std@@QAEXII@Z 00403630 f i 3DApplication.obj
 0001:00002790       ?erase@?$_Tree@V?$_Tmap_traits@V?$basic_string@DU?$char_traits@D@std@@V?$allocator@D@2@@std@@V12@U?$less@V?$basic_string@DU?$char_traits@D@std@@V?$allocator@D@2@@std@@@2@V?$allocator@U?$pair@$$CBV?$basic_string@DU?$char_traits@D@std@@V?$allocator@D@2@@std@@V12@@std@@@2@$0A@@std@@@std@@QAE?AV?$_Tree_iterator@V?$_Tree_val@U?$_Tree_simple_types@U?$pair@$$CBV?$basic_string@DU?$char_traits@D@std@@V?$allocator@D@2@@std@@V12@@std@@@std@@@std@@@2@V?$_Tree_const_iterator@V?$_Tree_val@U?$_Tree_simple_types@U?$pair@$$CBV?$basic_string@DU?$char_traits@D@std@@V?$allocator@D@2@@std@@V12@@std@@@std@@@std@@@2@@Z 00403790 f i Configure.obj
 0001:00002790       ?erase@?$_Tree@V?$_Tmap_traits@V?$basic_string@DU?$char_traits@D@std@@V?$allocator@D@2@@std@@V12@U?$less@V?$basic_string@DU?$char_traits@D@std@@V?$allocator@D@2@@std@@@2@V?$allocator@U?$pair@$$CBV?$basic_string@DU?$char_traits@D@std@@V?$allocator@D@2@@std@@V12@@std@@@2@$00@std@@@std@@QAE?AV?$_Tree_iterator@V?$_Tree_val@U?$_Tree_simple_types@U?$pair@$$CBV?$basic_string@DU?$char_traits@D@std@@V?$allocator@D@2@@std@@V12@@std@@@std@@@std@@@2@V?$_Tree_const_iterator@V?$_Tree_val@U?$_Tree_simple_types@U?$pair@$$CBV?$basic_string@DU?$char_traits@D@std@@V?$allocator@D@2@@std@@V12@@std@@@std@@@std@@@2@@Z 00403790 f i 3DApplication.obj
 0001:00002a60       ?_Max@?$_Tree_val@U?$_Tree_simple_types@U?$pair@$$CBW4TKeyID@Key@Input@Common@@PAVICommand@Command@Controller@GUI@@@std@@@std@@@std@@SAPAU?$_Tree_node@U?$pair@$$CBW4TKeyID@Key@Input@Common@@PAVICommand@Command@Controller@GUI@@@std@@PAX@2@PAU32@@Z 00403a60 f i GUI:PlayerController.obj
 0001:00002a60       ?_Max@?$_Tree_val@U?$_Tree_simple_types@U?$pair@$$CBV?$basic_string@DU?$char_traits@D@std@@V?$allocator@D@2@@std@@V12@@std@@@std@@@std@@SAPAU?$_Tree_node@U?$pair@$$CBV?$basic_string@DU?$char_traits@D@std@@V?$allocator@D@2@@std@@V12@@std@@PAX@2@PAU32@@Z 00403a60 f i 3DApplication.obj
 0001:00002a60       ?_Max@?$_Tree_val@U?$_Tree_simple_types@U?$pair@$$CBV?$basic_string@DU?$char_traits@D@std@@V?$allocator@D@2@@std@@V?$vector@UTXMLComponent@Blueprints@Data@Common@@V?$allocator@UTXMLComponent@Blueprints@Data@Common@@@std@@@2@@std@@@std@@@std@@SAPAU?$_Tree_node@U?$pair@$$CBV?$basic_string@DU?$char_traits@D@std@@V?$allocator@D@2@@std@@V?$vector@UTXMLComponent@Blueprints@Data@Common@@V?$allocator@UTXMLComponent@Blueprints@Data@Common@@@std@@@2@@std@@PAX@2@PAU32@@Z 00403a60 f i XmlParser.obj
 0001:00002a60       ?_Max@?$_Tree_val@U?$_Tree_simple_types@U?$pair@$$CBV?$basic_string@DU?$char_traits@D@std@@V?$allocator@D@2@@std@@P6APAVIComponent@Logic@@XZ@std@@@std@@@std@@SAPAU?$_Tree_node@U?$pair@$$CBV?$basic_string@DU?$char_traits@D@std@@V?$allocator@D@2@@std@@P6APAVIComponent@Logic@@XZ@std@@PAX@2@PAU32@@Z 00403a60 f i Logic:ControllerComponent.obj
 0001:00002a60       ?_Max@?$_Tree_val@U?$_Tree_simple_types@U?$pair@$$CBV?$basic_string@DU?$char_traits@D@std@@V?$allocator@D@2@@std@@PAVCApplicationState@Application@@@std@@@std@@@std@@SAPAU?$_Tree_node@U?$pair@$$CBV?$basic_string@DU?$char_traits@D@std@@V?$allocator@D@2@@std@@PAVCApplicationState@Application@@@std@@PAX@2@PAU32@@Z 00403a60 f i BaseApplication.obj
 0001:00002a60       ?_Max@?$_Tree_val@U?$_Tree_simple_types@U?$pair@$$CBIPAVCEntity@Logic@@@std@@@std@@@std@@SAPAU?$_Tree_node@U?$pair@$$CBIPAVCEntity@Logic@@@std@@PAX@2@PAU32@@Z 00403a60 f i Logic:Scene.obj
 0001:00002a60       ?_Max@?$_Tree_val@U?$_Tree_simple_types@U?$pair@$$CBV?$basic_string@DU?$char_traits@D@std@@V?$allocator@D@2@@std@@PAVCConfigure@Configuration@Common@@@std@@@std@@@std@@SAPAU?$_Tree_node@U?$pair@$$CBV?$basic_string@DU?$char_traits@D@std@@V?$allocator@D@2@@std@@PAVCConfigure@Configuration@Common@@@std@@PAX@2@PAU32@@Z 00403a60 f i Configure.obj
 0001:00002a60       ?_Max@?$_Tree_val@U?$_Tree_simple_types@U?$pair@$$CBV?$basic_string@DU?$char_traits@D@std@@V?$allocator@D@2@@std@@UTBluePrint@CEntityFactory@Logic@@@std@@@std@@@std@@SAPAU?$_Tree_node@U?$pair@$$CBV?$basic_string@DU?$char_traits@D@std@@V?$allocator@D@2@@std@@UTBluePrint@CEntityFactory@Logic@@@std@@PAX@2@PAU32@@Z 00403a60 f i Logic:EntityFactory.obj
 0001:00002a60       ?_Max@?$_Tree_val@U?$_Tree_simple_types@U?$pair@$$CBV?$basic_string@DU?$char_traits@D@std@@V?$allocator@D@2@@std@@_J@std@@@std@@@std@@SAPAU?$_Tree_node@U?$pair@$$CBV?$basic_string@DU?$char_traits@D@std@@V?$allocator@D@2@@std@@_J@std@@PAX@2@PAU32@@Z 00403a60 f i Map:MapGenerator.obj
 0001:00002a80       ?_Erase@?$_Tree@V?$_Tmap_traits@V?$basic_string@DU?$char_traits@D@std@@V?$allocator@D@2@@std@@V12@U?$less@V?$basic_string@DU?$char_traits@D@std@@V?$allocator@D@2@@std@@@2@V?$allocator@U?$pair@$$CBV?$basic_string@DU?$char_traits@D@std@@V?$allocator@D@2@@std@@V12@@std@@@2@$0A@@std@@@std@@IAEXPAU?$_Tree_node@U?$pair@$$CBV?$basic_string@DU?$char_traits@D@std@@V?$allocator@D@2@@std@@V12@@std@@PAX@2@@Z 00403a80 f i Configure.obj
 0001:00002a80       ?_Erase@?$_Tree@V?$_Tmap_traits@V?$basic_string@DU?$char_traits@D@std@@V?$allocator@D@2@@std@@V12@U?$less@V?$basic_string@DU?$char_traits@D@std@@V?$allocator@D@2@@std@@@2@V?$allocator@U?$pair@$$CBV?$basic_string@DU?$char_traits@D@std@@V?$allocator@D@2@@std@@V12@@std@@@2@$00@std@@@std@@IAEXPAU?$_Tree_node@U?$pair@$$CBV?$basic_string@DU?$char_traits@D@std@@V?$allocator@D@2@@std@@V12@@std@@PAX@2@@Z 00403a80 f i 3DApplication.obj
 0001:00002b10       ?_Lrotate@?$_Tree@V?$_Tmap_traits@V?$basic_string@DU?$char_traits@D@std@@V?$allocator@D@2@@std@@V12@U?$less@V?$basic_string@DU?$char_traits@D@std@@V?$allocator@D@2@@std@@@2@V?$allocator@U?$pair@$$CBV?$basic_string@DU?$char_traits@D@std@@V?$allocator@D@2@@std@@V12@@std@@@2@$00@std@@@std@@IAEXPAU?$_Tree_node@U?$pair@$$CBV?$basic_string@DU?$char_traits@D@std@@V?$allocator@D@2@@std@@V12@@std@@PAX@2@@Z 00403b10 f i 3DApplication.obj
 0001:00002b10       ?_Lrotate@?$_Tree@V?$_Tmap_traits@V?$basic_string@DU?$char_traits@D@std@@V?$allocator@D@2@@std@@UTBluePrint@CEntityFactory@Logic@@U?$less@V?$basic_string@DU?$char_traits@D@std@@V?$allocator@D@2@@std@@@2@V?$allocator@U?$pair@$$CBV?$basic_string@DU?$char_traits@D@std@@V?$allocator@D@2@@std@@UTBluePrint@CEntityFactory@Logic@@@std@@@2@$0A@@std@@@std@@IAEXPAU?$_Tree_node@U?$pair@$$CBV?$basic_string@DU?$char_traits@D@std@@V?$allocator@D@2@@std@@UTBluePrint@CEntityFactory@Logic@@@std@@PAX@2@@Z 00403b10 f i Logic:EntityFactory.obj
 0001:00002b10       ?_Lrotate@?$_Tree@V?$_Tmap_traits@V?$basic_string@DU?$char_traits@D@std@@V?$allocator@D@2@@std@@PAVCApplicationState@Application@@U?$less@V?$basic_string@DU?$char_traits@D@std@@V?$allocator@D@2@@std@@@2@V?$allocator@U?$pair@$$CBV?$basic_string@DU?$char_traits@D@std@@V?$allocator@D@2@@std@@PAVCApplicationState@Application@@@std@@@2@$0A@@std@@@std@@IAEXPAU?$_Tree_node@U?$pair@$$CBV?$basic_string@DU?$char_traits@D@std@@V?$allocator@D@2@@std@@PAVCApplicationState@Application@@@std@@PAX@2@@Z 00403b10 f i BaseApplication.obj
 0001:00002b10       ?_Lrotate@?$_Tree@V?$_Tmap_traits@W4TKeyID@Key@Input@Common@@PAVICommand@Command@Controller@GUI@@U?$less@W4TKeyID@Key@Input@Common@@@std@@V?$allocator@U?$pair@$$CBW4TKeyID@Key@Input@Common@@PAVICommand@Command@Controller@GUI@@@std@@@std@@$0A@@std@@@std@@IAEXPAU?$_Tree_node@U?$pair@$$CBW4TKeyID@Key@Input@Common@@PAVICommand@Command@Controller@GUI@@@std@@PAX@2@@Z 00403b10 f i GUI:PlayerController.obj
 0001:00002b10       ?_Lrotate@?$_Tree@V?$_Tmap_traits@IPAVCEntity@Logic@@U?$less@I@std@@V?$allocator@U?$pair@$$CBIPAVCEntity@Logic@@@std@@@4@$0A@@std@@@std@@IAEXPAU?$_Tree_node@U?$pair@$$CBIPAVCEntity@Logic@@@std@@PAX@2@@Z 00403b10 f i Logic:Scene.obj
 0001:00002b10       ?_Lrotate@?$_Tree@V?$_Tmap_traits@V?$basic_string@DU?$char_traits@D@std@@V?$allocator@D@2@@std@@V?$vector@UTXMLComponent@Blueprints@Data@Common@@V?$allocator@UTXMLComponent@Blueprints@Data@Common@@@std@@@2@U?$less@V?$basic_string@DU?$char_traits@D@std@@V?$allocator@D@2@@std@@@2@V?$allocator@U?$pair@$$CBV?$basic_string@DU?$char_traits@D@std@@V?$allocator@D@2@@std@@V?$vector@UTXMLComponent@Blueprints@Data@Common@@V?$allocator@UTXMLComponent@Blueprints@Data@Common@@@std@@@2@@std@@@2@$0A@@std@@@std@@IAEXPAU?$_Tree_node@U?$pair@$$CBV?$basic_string@DU?$char_traits@D@std@@V?$allocator@D@2@@std@@V?$vector@UTXMLComponent@Blueprints@Data@Common@@V?$allocator@UTXMLComponent@Blueprints@Data@Common@@@std@@@2@@std@@PAX@2@@Z 00403b10 f i XmlParser.obj
 0001:00002b10       ?_Lrotate@?$_Tree@V?$_Tmap_traits@V?$basic_string@DU?$char_traits@D@std@@V?$allocator@D@2@@std@@V12@U?$less@V?$basic_string@DU?$char_traits@D@std@@V?$allocator@D@2@@std@@@2@V?$allocator@U?$pair@$$CBV?$basic_string@DU?$char_traits@D@std@@V?$allocator@D@2@@std@@V12@@std@@@2@$0A@@std@@@std@@IAEXPAU?$_Tree_node@U?$pair@$$CBV?$basic_string@DU?$char_traits@D@std@@V?$allocator@D@2@@std@@V12@@std@@PAX@2@@Z 00403b10 f i Configure.obj
 0001:00002b10       ?_Lrotate@?$_Tree@V?$_Tmap_traits@V?$basic_string@DU?$char_traits@D@std@@V?$allocator@D@2@@std@@P6APAVIComponent@Logic@@XZU?$less@V?$basic_string@DU?$char_traits@D@std@@V?$allocator@D@2@@std@@@2@V?$allocator@U?$pair@$$CBV?$basic_string@DU?$char_traits@D@std@@V?$allocator@D@2@@std@@P6APAVIComponent@Logic@@XZ@std@@@2@$0A@@std@@@std@@IAEXPAU?$_Tree_node@U?$pair@$$CBV?$basic_string@DU?$char_traits@D@std@@V?$allocator@D@2@@std@@P6APAVIComponent@Logic@@XZ@std@@PAX@2@@Z 00403b10 f i Logic:ControllerComponent.obj
 0001:00002b10       ?_Lrotate@?$_Tree@V?$_Tmap_traits@PAVCMouseState@InputListener@GUI@@PAVICommand@Command@Controller@3@U?$less@PAVCMouseState@InputListener@GUI@@@std@@V?$allocator@U?$pair@QAVCMouseState@InputListener@GUI@@PAVICommand@Command@Controller@3@@std@@@8@$0A@@std@@@std@@IAEXPAU?$_Tree_node@U?$pair@QAVCMouseState@InputListener@GUI@@PAVICommand@Command@Controller@3@@std@@PAX@2@@Z 00403b10 f i GUI:PlayerController.obj
 0001:00002b10       ?_Lrotate@?$_Tree@V?$_Tmap_traits@V?$basic_string@DU?$char_traits@D@std@@V?$allocator@D@2@@std@@_JU?$less@V?$basic_string@DU?$char_traits@D@std@@V?$allocator@D@2@@std@@@2@V?$allocator@U?$pair@$$CBV?$basic_string@DU?$char_traits@D@std@@V?$allocator@D@2@@std@@_J@std@@@2@$0A@@std@@@std@@IAEXPAU?$_Tree_node@U?$pair@$$CBV?$basic_string@DU?$char_traits@D@std@@V?$allocator@D@2@@std@@_J@std@@PAX@2@@Z 00403b10 f i Map:MapGenerator.obj
 0001:00002b70       ?_Rrotate@?$_Tree@V?$_Tmap_traits@PAVCMouseState@InputListener@GUI@@PAVICommand@Command@Controller@3@U?$less@PAVCMouseState@InputListener@GUI@@@std@@V?$allocator@U?$pair@QAVCMouseState@InputListener@GUI@@PAVICommand@Command@Controller@3@@std@@@8@$0A@@std@@@std@@IAEXPAU?$_Tree_node@U?$pair@QAVCMouseState@InputListener@GUI@@PAVICommand@Command@Controller@3@@std@@PAX@2@@Z 00403b70 f i GUI:PlayerController.obj
 0001:00002b70       ?_Rrotate@?$_Tree@V?$_Tmap_traits@V?$basic_string@DU?$char_traits@D@std@@V?$allocator@D@2@@std@@P6APAVIComponent@Logic@@XZU?$less@V?$basic_string@DU?$char_traits@D@std@@V?$allocator@D@2@@std@@@2@V?$allocator@U?$pair@$$CBV?$basic_string@DU?$char_traits@D@std@@V?$allocator@D@2@@std@@P6APAVIComponent@Logic@@XZ@std@@@2@$0A@@std@@@std@@IAEXPAU?$_Tree_node@U?$pair@$$CBV?$basic_string@DU?$char_traits@D@std@@V?$allocator@D@2@@std@@P6APAVIComponent@Logic@@XZ@std@@PAX@2@@Z 00403b70 f i Logic:ControllerComponent.obj
 0001:00002b70       ?_Rrotate@?$_Tree@V?$_Tmap_traits@V?$basic_string@DU?$char_traits@D@std@@V?$allocator@D@2@@std@@PAVCApplicationState@Application@@U?$less@V?$basic_string@DU?$char_traits@D@std@@V?$allocator@D@2@@std@@@2@V?$allocator@U?$pair@$$CBV?$basic_string@DU?$char_traits@D@std@@V?$allocator@D@2@@std@@PAVCApplicationState@Application@@@std@@@2@$0A@@std@@@std@@IAEXPAU?$_Tree_node@U?$pair@$$CBV?$basic_string@DU?$char_traits@D@std@@V?$allocator@D@2@@std@@PAVCApplicationState@Application@@@std@@PAX@2@@Z 00403b70 f i BaseApplication.obj
 0001:00002b70       ?_Rrotate@?$_Tree@V?$_Tmap_traits@V?$basic_string@DU?$char_traits@D@std@@V?$allocator@D@2@@std@@UTBluePrint@CEntityFactory@Logic@@U?$less@V?$basic_string@DU?$char_traits@D@std@@V?$allocator@D@2@@std@@@2@V?$allocator@U?$pair@$$CBV?$basic_string@DU?$char_traits@D@std@@V?$allocator@D@2@@std@@UTBluePrint@CEntityFactory@Logic@@@std@@@2@$0A@@std@@@std@@IAEXPAU?$_Tree_node@U?$pair@$$CBV?$basic_string@DU?$char_traits@D@std@@V?$allocator@D@2@@std@@UTBluePrint@CEntityFactory@Logic@@@std@@PAX@2@@Z 00403b70 f i Logic:EntityFactory.obj
 0001:00002b70       ?_Rrotate@?$_Tree@V?$_Tmap_traits@V?$basic_string@DU?$char_traits@D@std@@V?$allocator@D@2@@std@@V12@U?$less@V?$basic_string@DU?$char_traits@D@std@@V?$allocator@D@2@@std@@@2@V?$allocator@U?$pair@$$CBV?$basic_string@DU?$char_traits@D@std@@V?$allocator@D@2@@std@@V12@@std@@@2@$0A@@std@@@std@@IAEXPAU?$_Tree_node@U?$pair@$$CBV?$basic_string@DU?$char_traits@D@std@@V?$allocator@D@2@@std@@V12@@std@@PAX@2@@Z 00403b70 f i Configure.obj
 0001:00002b70       ?_Rrotate@?$_Tree@V?$_Tmap_traits@V?$basic_string@DU?$char_traits@D@std@@V?$allocator@D@2@@std@@V?$vector@UTXMLComponent@Blueprints@Data@Common@@V?$allocator@UTXMLComponent@Blueprints@Data@Common@@@std@@@2@U?$less@V?$basic_string@DU?$char_traits@D@std@@V?$allocator@D@2@@std@@@2@V?$allocator@U?$pair@$$CBV?$basic_string@DU?$char_traits@D@std@@V?$allocator@D@2@@std@@V?$vector@UTXMLComponent@Blueprints@Data@Common@@V?$allocator@UTXMLComponent@Blueprints@Data@Common@@@std@@@2@@std@@@2@$0A@@std@@@std@@IAEXPAU?$_Tree_node@U?$pair@$$CBV?$basic_string@DU?$char_traits@D@std@@V?$allocator@D@2@@std@@V?$vector@UTXMLComponent@Blueprints@Data@Common@@V?$allocator@UTXMLComponent@Blueprints@Data@Common@@@std@@@2@@std@@PAX@2@@Z 00403b70 f i XmlParser.obj
 0001:00002b70       ?_Rrotate@?$_Tree@V?$_Tmap_traits@IPAVCEntity@Logic@@U?$less@I@std@@V?$allocator@U?$pair@$$CBIPAVCEntity@Logic@@@std@@@4@$0A@@std@@@std@@IAEXPAU?$_Tree_node@U?$pair@$$CBIPAVCEntity@Logic@@@std@@PAX@2@@Z 00403b70 f i Logic:Scene.obj
 0001:00002b70       ?_Rrotate@?$_Tree@V?$_Tmap_traits@V?$basic_string@DU?$char_traits@D@std@@V?$allocator@D@2@@std@@_JU?$less@V?$basic_string@DU?$char_traits@D@std@@V?$allocator@D@2@@std@@@2@V?$allocator@U?$pair@$$CBV?$basic_string@DU?$char_traits@D@std@@V?$allocator@D@2@@std@@_J@std@@@2@$0A@@std@@@std@@IAEXPAU?$_Tree_node@U?$pair@$$CBV?$basic_string@DU?$char_traits@D@std@@V?$allocator@D@2@@std@@_J@std@@PAX@2@@Z 00403b70 f i Map:MapGenerator.obj
 0001:00002b70       ?_Rrotate@?$_Tree@V?$_Tmap_traits@W4TKeyID@Key@Input@Common@@PAVICommand@Command@Controller@GUI@@U?$less@W4TKeyID@Key@Input@Common@@@std@@V?$allocator@U?$pair@$$CBW4TKeyID@Key@Input@Common@@PAVICommand@Command@Controller@GUI@@@std@@@std@@$0A@@std@@@std@@IAEXPAU?$_Tree_node@U?$pair@$$CBW4TKeyID@Key@Input@Common@@PAVICommand@Command@Controller@GUI@@@std@@PAX@2@@Z 00403b70 f i GUI:PlayerController.obj
 0001:00002b70       ?_Rrotate@?$_Tree@V?$_Tmap_traits@V?$basic_string@DU?$char_traits@D@std@@V?$allocator@D@2@@std@@V12@U?$less@V?$basic_string@DU?$char_traits@D@std@@V?$allocator@D@2@@std@@@2@V?$allocator@U?$pair@$$CBV?$basic_string@DU?$char_traits@D@std@@V?$allocator@D@2@@std@@V12@@std@@@2@$00@std@@@std@@IAEXPAU?$_Tree_node@U?$pair@$$CBV?$basic_string@DU?$char_traits@D@std@@V?$allocator@D@2@@std@@V12@@std@@PAX@2@@Z 00403b70 f i 3DApplication.obj
 0001:00002bd0       ?_Buyheadnode@?$_Tree_alloc@$0A@U?$_Tree_base_types@U?$pair@$$CBV?$basic_string@DU?$char_traits@D@std@@V?$allocator@D@2@@std@@V12@@std@@V?$allocator@U?$pair@$$CBV?$basic_string@DU?$char_traits@D@std@@V?$allocator@D@2@@std@@V12@@std@@@2@@std@@@std@@QAEPAU?$_Tree_node@U?$pair@$$CBV?$basic_string@DU?$char_traits@D@std@@V?$allocator@D@2@@std@@V12@@std@@PAX@2@XZ 00403bd0 f i 3DApplication.obj
 0001:00002c00       ??$make_pair@V?$basic_string@DU?$char_traits@D@std@@V?$allocator@D@2@@std@@V12@@std@@YA?AU?$pair@V?$basic_string@DU?$char_traits@D@std@@V?$allocator@D@2@@std@@V12@@0@$$QAV?$basic_string@DU?$char_traits@D@std@@V?$allocator@D@2@@0@0@Z 00403c00 f i 3DApplication.obj
 0001:00002c80       ?tick@CEventState@Application@@UAEXI@Z 00403c80 f i EventState.obj
 0001:00002c80       ?process@CGraphics@Logic@@UAEXABVIMessage@2@@Z 00403c80 f i Logic:Graphics.obj
 0001:00002c80       ?process@CMessageManager@Logic@@UAEXABVIMessage@2@@Z 00403c80 f i Logic:ControllerComponent.obj
 0001:00002c80       ?process@CTransform@Logic@@UAEXABVIMessage@2@@Z 00403c80 f i Logic:Transform.obj
 0001:00002c80       ??$destroy@PAU?$_Tree_node@U?$pair@$$CBV?$basic_string@DU?$char_traits@D@std@@V?$allocator@D@2@@std@@PAVCConfigure@Configuration@Common@@@std@@PAX@std@@@?$_Wrap_alloc@V?$allocator@U?$_Tree_node@U?$pair@$$CBV?$basic_string@DU?$char_traits@D@std@@V?$allocator@D@2@@std@@PAVCConfigure@Configuration@Common@@@std@@PAX@std@@@std@@@std@@QAEXPAPAU?$_Tree_node@U?$pair@$$CBV?$basic_string@DU?$char_traits@D@std@@V?$allocator@D@2@@std@@PAVCConfigure@Configuration@Common@@@std@@PAX@1@@Z 00403c80 f i Configure.obj
 0001:00002c80       ??$destroy@PA_W@?$_Wrap_alloc@V?$allocator@_W@std@@@std@@QAEXPAPA_W@Z 00403c80 f i log.obj
 0001:00002c80       ??$destroy@PAD@?$_Wrap_alloc@V?$allocator@D@std@@@std@@QAEXPAPAD@Z 00403c80 f i 3DApplication.obj
 0001:00002c80       ?tick@CMenuState@Application@@UAEXI@Z 00403c80 f i MenuState.obj
 0001:00002c80       ?tick@CPauseState@Application@@UAEXI@Z 00403c80 f i PauseState.obj
 0001:00002c80       ?process@CCameraComponent@Logic@@UAEXABVIMessage@2@@Z 00403c80 f i Logic:CameraComponent.obj
 0001:00002c80       ?process@CControllerComponent@Logic@@UAEXABVIMessage@2@@Z 00403c80 f i Logic:ControllerComponent.obj
 0001:00002c80       ?tick@CApplicationState@Application@@UAEXI@Z 00403c80 f i EventState.obj
 0001:00002c90       ??$?0V?$basic_string@DU?$char_traits@D@std@@V?$allocator@D@2@@std@@V01@@?$pair@V?$basic_string@DU?$char_traits@D@std@@V?$allocator@D@2@@std@@V12@@std@@QAE@$$QAV?$basic_string@DU?$char_traits@D@std@@V?$allocator@D@2@@1@0PAPAX@Z 00403c90 f i 3DApplication.obj
 0001:00002d60       ??$?0V?$basic_string@DU?$char_traits@D@std@@V?$allocator@D@2@@std@@V01@@?$pair@$$CBV?$basic_string@DU?$char_traits@D@std@@V?$allocator@D@2@@std@@V12@@std@@QAE@$$QAU?$pair@V?$basic_string@DU?$char_traits@D@std@@V?$allocator@D@2@@std@@V12@@1@PAPAX@Z 00403d60 f i 3DApplication.obj
 0001:00002d60       ??$?0V?$basic_string@DU?$char_traits@D@std@@V?$allocator@D@2@@std@@V01@@?$pair@V?$basic_string@DU?$char_traits@D@std@@V?$allocator@D@2@@std@@V12@@std@@QAE@$$QAU01@PAPAX@Z 00403d60 f i 3DApplication.obj
 0001:00002e30       ??$_Buynode@U?$pair@V?$basic_string@DU?$char_traits@D@std@@V?$allocator@D@2@@std@@V12@@std@@@?$_Tree_buy@U?$pair@$$CBV?$basic_string@DU?$char_traits@D@std@@V?$allocator@D@2@@std@@V12@@std@@V?$allocator@U?$pair@$$CBV?$basic_string@DU?$char_traits@D@std@@V?$allocator@D@2@@std@@V12@@std@@@2@@std@@QAEPAU?$_Tree_node@U?$pair@$$CBV?$basic_string@DU?$char_traits@D@std@@V?$allocator@D@2@@std@@V12@@std@@PAX@1@$$QAU?$pair@V?$basic_string@DU?$char_traits@D@std@@V?$allocator@D@2@@std@@V12@@1@@Z 00403e30 f i 3DApplication.obj
 0001:00002e60       ??$_Insert_nohint@AAU?$pair@$$CBV?$basic_string@DU?$char_traits@D@std@@V?$allocator@D@2@@std@@V12@@std@@PAU?$_Tree_node@U?$pair@$$CBV?$basic_string@DU?$char_traits@D@std@@V?$allocator@D@2@@std@@V12@@std@@PAX@2@@?$_Tree@V?$_Tmap_traits@V?$basic_string@DU?$char_traits@D@std@@V?$allocator@D@2@@std@@V12@U?$less@V?$basic_string@DU?$char_traits@D@std@@V?$allocator@D@2@@std@@@2@V?$allocator@U?$pair@$$CBV?$basic_string@DU?$char_traits@D@std@@V?$allocator@D@2@@std@@V12@@std@@@2@$00@std@@@std@@IAE?AU?$pair@V?$_Tree_iterator@V?$_Tree_val@U?$_Tree_simple_types@U?$pair@$$CBV?$basic_string@DU?$char_traits@D@std@@V?$allocator@D@2@@std@@V12@@std@@@std@@@std@@@std@@_N@1@_NAAU?$pair@$$CBV?$basic_string@DU?$char_traits@D@std@@V?$allocator@D@2@@std@@V12@@1@PAU?$_Tree_node@U?$pair@$$CBV?$basic_string@DU?$char_traits@D@std@@V?$allocator@D@2@@std@@V12@@std@@PAX@1@@Z 00403e60 f i 3DApplication.obj
 0001:00002fb0       ?_Buynode0@?$_Tree_buy@U?$pair@$$CBV?$basic_string@DU?$char_traits@D@std@@V?$allocator@D@2@@std@@V12@@std@@V?$allocator@U?$pair@$$CBV?$basic_string@DU?$char_traits@D@std@@V?$allocator@D@2@@std@@V12@@std@@@2@@std@@QAEPAU?$_Tree_node@U?$pair@$$CBV?$basic_string@DU?$char_traits@D@std@@V?$allocator@D@2@@std@@V12@@std@@PAX@2@XZ 00403fb0 f i 3DApplication.obj
 0001:00003000       ?_Destroy_if_not_nil@?$_Tree@V?$_Tmap_traits@V?$basic_string@DU?$char_traits@D@std@@V?$allocator@D@2@@std@@V12@U?$less@V?$basic_string@DU?$char_traits@D@std@@V?$allocator@D@2@@std@@@2@V?$allocator@U?$pair@$$CBV?$basic_string@DU?$char_traits@D@std@@V?$allocator@D@2@@std@@V12@@std@@@2@$00@std@@@std@@IAEXPAU?$_Tree_node@U?$pair@$$CBV?$basic_string@DU?$char_traits@D@std@@V?$allocator@D@2@@std@@V12@@std@@PAX@2@@Z 00404000 f i 3DApplication.obj
 0001:00003000       ?_Destroy_if_not_nil@?$_Tree@V?$_Tmap_traits@V?$basic_string@DU?$char_traits@D@std@@V?$allocator@D@2@@std@@V12@U?$less@V?$basic_string@DU?$char_traits@D@std@@V?$allocator@D@2@@std@@@2@V?$allocator@U?$pair@$$CBV?$basic_string@DU?$char_traits@D@std@@V?$allocator@D@2@@std@@V12@@std@@@2@$0A@@std@@@std@@IAEXPAU?$_Tree_node@U?$pair@$$CBV?$basic_string@DU?$char_traits@D@std@@V?$allocator@D@2@@std@@V12@@std@@PAX@2@@Z 00404000 f i Configure.obj
 0001:00003060       ??F?$_Tree_unchecked_const_iterator@V?$_Tree_val@U?$_Tree_simple_types@U?$pair@$$CBIPAVCEntity@Logic@@@std@@@std@@@std@@U_Iterator_base0@2@@std@@QAEAAV01@XZ 00404060 f i Logic:Scene.obj
 0001:00003060       ??F?$_Tree_unchecked_const_iterator@V?$_Tree_val@U?$_Tree_simple_types@U?$pair@$$CBV?$basic_string@DU?$char_traits@D@std@@V?$allocator@D@2@@std@@V12@@std@@@std@@@std@@U_Iterator_base0@2@@std@@QAEAAV01@XZ 00404060 f i 3DApplication.obj
 0001:00003060       ??F?$_Tree_unchecked_const_iterator@V?$_Tree_val@U?$_Tree_simple_types@U?$pair@$$CBV?$basic_string@DU?$char_traits@D@std@@V?$allocator@D@2@@std@@P6APAVIComponent@Logic@@XZ@std@@@std@@@std@@U_Iterator_base0@2@@std@@QAEAAV01@XZ 00404060 f i Logic:ControllerComponent.obj
 0001:00003060       ??F?$_Tree_unchecked_const_iterator@V?$_Tree_val@U?$_Tree_simple_types@U?$pair@$$CBV?$basic_string@DU?$char_traits@D@std@@V?$allocator@D@2@@std@@V?$vector@UTXMLComponent@Blueprints@Data@Common@@V?$allocator@UTXMLComponent@Blueprints@Data@Common@@@std@@@2@@std@@@std@@@std@@U_Iterator_base0@2@@std@@QAEAAV01@XZ 00404060 f i XmlParser.obj
 0001:00003060       ??F?$_Tree_unchecked_const_iterator@V?$_Tree_val@U?$_Tree_simple_types@U?$pair@$$CBV?$basic_string@DU?$char_traits@D@std@@V?$allocator@D@2@@std@@_J@std@@@std@@@std@@U_Iterator_base0@2@@std@@QAEAAV01@XZ 00404060 f i Map:MapGenerator.obj
 0001:00003060       ??F?$_Tree_unchecked_const_iterator@V?$_Tree_val@U?$_Tree_simple_types@U?$pair@$$CBV?$basic_string@DU?$char_traits@D@std@@V?$allocator@D@2@@std@@PAVCConfigure@Configuration@Common@@@std@@@std@@@std@@U_Iterator_base0@2@@std@@QAEAAV01@XZ 00404060 f i Configure.obj
 0001:00003060       ??F?$_Tree_unchecked_const_iterator@V?$_Tree_val@U?$_Tree_simple_types@U?$pair@$$CBV?$basic_string@DU?$char_traits@D@std@@V?$allocator@D@2@@std@@PAVCApplicationState@Application@@@std@@@std@@@std@@U_Iterator_base0@2@@std@@QAEAAV01@XZ 00404060 f i BaseApplication.obj
 0001:00003060       ??F?$_Tree_unchecked_const_iterator@V?$_Tree_val@U?$_Tree_simple_types@U?$pair@$$CBW4TKeyID@Key@Input@Common@@PAVICommand@Command@Controller@GUI@@@std@@@std@@@std@@U_Iterator_base0@2@@std@@QAEAAV01@XZ 00404060 f i GUI:PlayerController.obj
 0001:00003060       ??F?$_Tree_unchecked_const_iterator@V?$_Tree_val@U?$_Tree_simple_types@U?$pair@$$CBV?$basic_string@DU?$char_traits@D@std@@V?$allocator@D@2@@std@@UTBluePrint@CEntityFactory@Logic@@@std@@@std@@@std@@U_Iterator_base0@2@@std@@QAEAAV01@XZ 00404060 f i Logic:EntityFactory.obj
 0001:000030c0       ??$_Insert_at@AAU?$pair@$$CBV?$basic_string@DU?$char_traits@D@std@@V?$allocator@D@2@@std@@V12@@std@@PAU?$_Tree_node@U?$pair@$$CBV?$basic_string@DU?$char_traits@D@std@@V?$allocator@D@2@@std@@V12@@std@@PAX@2@@?$_Tree@V?$_Tmap_traits@V?$basic_string@DU?$char_traits@D@std@@V?$allocator@D@2@@std@@V12@U?$less@V?$basic_string@DU?$char_traits@D@std@@V?$allocator@D@2@@std@@@2@V?$allocator@U?$pair@$$CBV?$basic_string@DU?$char_traits@D@std@@V?$allocator@D@2@@std@@V12@@std@@@2@$0A@@std@@@std@@IAE?AV?$_Tree_iterator@V?$_Tree_val@U?$_Tree_simple_types@U?$pair@$$CBV?$basic_string@DU?$char_traits@D@std@@V?$allocator@D@2@@std@@V12@@std@@@std@@@std@@@1@_NPAU?$_Tree_node@U?$pair@$$CBV?$basic_string@DU?$char_traits@D@std@@V?$allocator@D@2@@std@@V12@@std@@PAX@1@AAU?$pair@$$CBV?$basic_string@DU?$char_traits@D@std@@V?$allocator@D@2@@std@@V12@@1@1@Z 004040c0 f i Configure.obj
 0001:000030c0       ??$_Insert_at@AAU?$pair@$$CBV?$basic_string@DU?$char_traits@D@std@@V?$allocator@D@2@@std@@V12@@std@@PAU?$_Tree_node@U?$pair@$$CBV?$basic_string@DU?$char_traits@D@std@@V?$allocator@D@2@@std@@V12@@std@@PAX@2@@?$_Tree@V?$_Tmap_traits@V?$basic_string@DU?$char_traits@D@std@@V?$allocator@D@2@@std@@V12@U?$less@V?$basic_string@DU?$char_traits@D@std@@V?$allocator@D@2@@std@@@2@V?$allocator@U?$pair@$$CBV?$basic_string@DU?$char_traits@D@std@@V?$allocator@D@2@@std@@V12@@std@@@2@$00@std@@@std@@IAE?AV?$_Tree_iterator@V?$_Tree_val@U?$_Tree_simple_types@U?$pair@$$CBV?$basic_string@DU?$char_traits@D@std@@V?$allocator@D@2@@std@@V12@@std@@@std@@@std@@@1@_NPAU?$_Tree_node@U?$pair@$$CBV?$basic_string@DU?$char_traits@D@std@@V?$allocator@D@2@@std@@V12@@std@@PAX@1@AAU?$pair@$$CBV?$basic_string@DU?$char_traits@D@std@@V?$allocator@D@2@@std@@V12@@1@1@Z 004040c0 f i 3DApplication.obj
 0001:0000330f       ?_Add_vtordisp2@?$basic_ostream@DU?$char_traits@D@std@@@std@@$4PPPPPPPM@EI@AEXXZ 0040430f f i 3DApplication.obj
 0001:0000331b       ??_E?$basic_ostringstream@DU?$char_traits@D@std@@V?$allocator@D@2@@std@@$4PPPPPPPM@A@AEPAXI@Z 0040431b f i 3DApplication.obj
 0001:00003330       ?mousePressed@CGalaxyState@Application@@UAE_NABVCMouseState@InputListener@GUI@@@Z 00404330 f i GalaxyState.obj
 0001:00003330       ?mouseReleased@CApplicationState@Application@@UAE_NABVCMouseState@InputListener@GUI@@@Z 00404330 f i EventState.obj
 0001:00003330       ?mouseReleased@CMouseListener@InputListener@GUI@@UAE_NABVCMouseState@23@@Z 00404330 f i BaseApplication.obj
 0001:00003330       ?mouseMoved@CMouseListener@InputListener@GUI@@UAE_NABVCMouseState@23@@Z 00404330 f i BaseApplication.obj
 0001:00003330       ?mouseReleased@CSystemState@Application@@UAE_NABVCMouseState@InputListener@GUI@@@Z 00404330 f i SystemState.obj
 0001:00003330       ?mousePressed@CMouseListener@InputListener@GUI@@UAE_NABVCMouseState@23@@Z 00404330 f i BaseApplication.obj
 0001:00003330       ?mouseMoved@CSystemState@Application@@UAE_NABVCMouseState@InputListener@GUI@@@Z 00404330 f i SystemState.obj
 0001:00003330       ?mousePressed@CPauseState@Application@@UAE_NABVCMouseState@InputListener@GUI@@@Z 00404330 f i PauseState.obj
 0001:00003330       ?mouseMoved@CPlanetState@Application@@UAE_NABVCMouseState@InputListener@GUI@@@Z 00404330 f i PlanetState.obj
 0001:00003330       ?mousePressed@CPlayerController@Controller@GUI@@UAE_NABVCMouseState@InputListener@3@@Z 00404330 f i GUI:PlayerController.obj
 0001:00003330       ?mousePressed@CPlanetState@Application@@UAE_NABVCMouseState@InputListener@GUI@@@Z 00404330 f i PlanetState.obj
 0001:00003330       ?mouseMoved@CEventState@Application@@UAE_NABVCMouseState@InputListener@GUI@@@Z 00404330 f i EventState.obj
 0001:00003330       ?mouseMoved@CPlayerController@Controller@GUI@@UAE_NABVCMouseState@InputListener@3@@Z 00404330 f i GUI:PlayerController.obj
 0001:00003330       ?mouseMoved@CMenuState@Application@@UAE_NABVCMouseState@InputListener@GUI@@@Z 00404330 f i MenuState.obj
 0001:00003330       ?mouseReleased@CMenuState@Application@@UAE_NABVCMouseState@InputListener@GUI@@@Z 00404330 f i MenuState.obj
 0001:00003330       ?mouseMoved@CPauseState@Application@@UAE_NABVCMouseState@InputListener@GUI@@@Z 00404330 f i PauseState.obj
 0001:00003330       ?mousePressed@CMenuState@Application@@UAE_NABVCMouseState@InputListener@GUI@@@Z 00404330 f i MenuState.obj
 0001:00003330       ?mouseMoved@CGalaxyState@Application@@UAE_NABVCMouseState@InputListener@GUI@@@Z 00404330 f i GalaxyState.obj
 0001:00003330       ?mouseReleased@CPlanetState@Application@@UAE_NABVCMouseState@InputListener@GUI@@@Z 00404330 f i PlanetState.obj
 0001:00003330       ?mousePressed@CApplicationState@Application@@UAE_NABVCMouseState@InputListener@GUI@@@Z 00404330 f i EventState.obj
 0001:00003330       ?mouseReleased@CPlayerController@Controller@GUI@@UAE_NABVCMouseState@InputListener@3@@Z 00404330 f i GUI:PlayerController.obj
 0001:00003330       ?mouseReleased@CEventState@Application@@UAE_NABVCMouseState@InputListener@GUI@@@Z 00404330 f i EventState.obj
 0001:00003330       ?mouseReleased@CGalaxyState@Application@@UAE_NABVCMouseState@InputListener@GUI@@@Z 00404330 f i GalaxyState.obj
 0001:00003330       ?mousePressed@CSystemState@Application@@UAE_NABVCMouseState@InputListener@GUI@@@Z 00404330 f i SystemState.obj
 0001:00003330       ?mouseMoved@CApplicationState@Application@@UAE_NABVCMouseState@InputListener@GUI@@@Z 00404330 f i EventState.obj
 0001:00003330       ?mousePressed@CEventState@Application@@UAE_NABVCMouseState@InputListener@GUI@@@Z 00404330 f i EventState.obj
 0001:00003330       ?accept@CMessageManager@Logic@@UAE_NABVIMessage@2@@Z 00404330 f i Logic:ControllerComponent.obj
 0001:00003330       ?mouseReleased@CPauseState@Application@@UAE_NABVCMouseState@InputListener@GUI@@@Z 00404330 f i PauseState.obj
 0001:00003340       ??0CBaseApplication@Application@@QAE@XZ 00404340 f   BaseApplication.obj
 0001:00003430       ??_ECTTGApplication@Application@@UAEPAXI@Z 00404430 f i * CIL library *:* CIL module *
 0001:00003430       ??_GCBaseApplication@Application@@UAEPAXI@Z 00404430 f i BaseApplication.obj
 0001:00003430       ??_ECBaseApplication@Application@@UAEPAXI@Z 00404430 f i * CIL library *:* CIL module *
 0001:00003430       ??_GCTTGApplication@Application@@UAEPAXI@Z 00404430 f i TTGApplication.obj
 0001:000034a0       ??1?$map@V?$basic_string@DU?$char_traits@D@std@@V?$allocator@D@2@@std@@P6APAVIComponent@Logic@@XZU?$less@V?$basic_string@DU?$char_traits@D@std@@V?$allocator@D@2@@std@@@2@V?$allocator@U?$pair@$$CBV?$basic_string@DU?$char_traits@D@std@@V?$allocator@D@2@@std@@P6APAVIComponent@Logic@@XZ@std@@@2@@std@@QAE@XZ 004044a0 f i Logic:ComponentFactory.obj
 0001:000034a0       ??1?$map@V?$basic_string@DU?$char_traits@D@std@@V?$allocator@D@2@@std@@PAVCApplicationState@Application@@U?$less@V?$basic_string@DU?$char_traits@D@std@@V?$allocator@D@2@@std@@@2@V?$allocator@U?$pair@$$CBV?$basic_string@DU?$char_traits@D@std@@V?$allocator@D@2@@std@@PAVCApplicationState@Application@@@std@@@2@@std@@QAE@XZ 004044a0 f i BaseApplication.obj
 0001:000034d0       ?init@CBaseApplication@Application@@UAE_NXZ 004044d0 f   BaseApplication.obj
 0001:000034e0       ?release@CBaseApplication@Application@@UAEXXZ 004044e0 f   BaseApplication.obj
 0001:000034f0       ?releaseAllStates@CBaseApplication@Application@@UAEXXZ 004044f0 f   BaseApplication.obj
 0001:000035c0       ?run@CBaseApplication@Application@@UAEXXZ 004045c0 f   BaseApplication.obj
 0001:00003670       ?setState@CBaseApplication@Application@@QAE_NABV?$basic_string@DU?$char_traits@D@std@@V?$allocator@D@2@@std@@@Z 00404670 f   BaseApplication.obj
 0001:000036b0       ?popState@CBaseApplication@Application@@QAE_NXZ 004046b0 f   BaseApplication.obj
 0001:00003720       ?resetToMenuState@CBaseApplication@Application@@QAE_NABV?$basic_string@DU?$char_traits@D@std@@V?$allocator@D@2@@std@@@Z 00404720 f   BaseApplication.obj
 0001:000038b0       ?tick@CBaseApplication@Application@@MAEXI@Z 004048b0 f   BaseApplication.obj
 0001:000038d0       ?keyPressed@CBaseApplication@Application@@UAE_NUTKey@Input@Common@@@Z 004048d0 f   BaseApplication.obj
 0001:000038f0       ?keyReleased@CBaseApplication@Application@@UAE_NUTKey@Input@Common@@@Z 004048f0 f   BaseApplication.obj
 0001:00003920       ?mouseMoved@CBaseApplication@Application@@UAE_NABVCMouseState@InputListener@GUI@@@Z 00404920 f   BaseApplication.obj
 0001:00003940       ?mousePressed@CBaseApplication@Application@@UAE_NABVCMouseState@InputListener@GUI@@@Z 00404940 f   BaseApplication.obj
 0001:00003960       ?mouseReleased@CBaseApplication@Application@@UAE_NABVCMouseState@InputListener@GUI@@@Z 00404960 f   BaseApplication.obj
 0001:00003980       ??A?$map@V?$basic_string@DU?$char_traits@D@std@@V?$allocator@D@2@@std@@PAVCApplicationState@Application@@U?$less@V?$basic_string@DU?$char_traits@D@std@@V?$allocator@D@2@@std@@@2@V?$allocator@U?$pair@$$CBV?$basic_string@DU?$char_traits@D@std@@V?$allocator@D@2@@std@@PAVCApplicationState@Application@@@std@@@2@@std@@QAEAAPAVCApplicationState@Application@@ABV?$basic_string@DU?$char_traits@D@std@@V?$allocator@D@2@@1@@Z 00404980 f i BaseApplication.obj
 0001:00003aa0       ?find@?$_Tree@V?$_Tmap_traits@V?$basic_string@DU?$char_traits@D@std@@V?$allocator@D@2@@std@@PAVCApplicationState@Application@@U?$less@V?$basic_string@DU?$char_traits@D@std@@V?$allocator@D@2@@std@@@2@V?$allocator@U?$pair@$$CBV?$basic_string@DU?$char_traits@D@std@@V?$allocator@D@2@@std@@PAVCApplicationState@Application@@@std@@@2@$0A@@std@@@std@@QAE?AV?$_Tree_iterator@V?$_Tree_val@U?$_Tree_simple_types@U?$pair@$$CBV?$basic_string@DU?$char_traits@D@std@@V?$allocator@D@2@@std@@PAVCApplicationState@Application@@@std@@@std@@@std@@@2@ABV?$basic_string@DU?$char_traits@D@std@@V?$allocator@D@2@@2@@Z 00404aa0 f i BaseApplication.obj
 0001:00003aa0       ?find@?$_Tree@V?$_Tmap_traits@V?$basic_string@DU?$char_traits@D@std@@V?$allocator@D@2@@std@@P6APAVIComponent@Logic@@XZU?$less@V?$basic_string@DU?$char_traits@D@std@@V?$allocator@D@2@@std@@@2@V?$allocator@U?$pair@$$CBV?$basic_string@DU?$char_traits@D@std@@V?$allocator@D@2@@std@@P6APAVIComponent@Logic@@XZ@std@@@2@$0A@@std@@@std@@QBE?AV?$_Tree_const_iterator@V?$_Tree_val@U?$_Tree_simple_types@U?$pair@$$CBV?$basic_string@DU?$char_traits@D@std@@V?$allocator@D@2@@std@@P6APAVIComponent@Logic@@XZ@std@@@std@@@std@@@2@ABV?$basic_string@DU?$char_traits@D@std@@V?$allocator@D@2@@2@@Z 00404aa0 f i Logic:EntityFactory.obj
 0001:00003aa0       ?find@?$_Tree@V?$_Tmap_traits@V?$basic_string@DU?$char_traits@D@std@@V?$allocator@D@2@@std@@UTBluePrint@CEntityFactory@Logic@@U?$less@V?$basic_string@DU?$char_traits@D@std@@V?$allocator@D@2@@std@@@2@V?$allocator@U?$pair@$$CBV?$basic_string@DU?$char_traits@D@std@@V?$allocator@D@2@@std@@UTBluePrint@CEntityFactory@Logic@@@std@@@2@$0A@@std@@@std@@QAE?AV?$_Tree_iterator@V?$_Tree_val@U?$_Tree_simple_types@U?$pair@$$CBV?$basic_string@DU?$char_traits@D@std@@V?$allocator@D@2@@std@@UTBluePrint@CEntityFactory@Logic@@@std@@@std@@@std@@@2@ABV?$basic_string@DU?$char_traits@D@std@@V?$allocator@D@2@@2@@Z 00404aa0 f i Logic:EntityFactory.obj
 0001:00003aa0       ?find@?$_Tree@V?$_Tmap_traits@V?$basic_string@DU?$char_traits@D@std@@V?$allocator@D@2@@std@@_JU?$less@V?$basic_string@DU?$char_traits@D@std@@V?$allocator@D@2@@std@@@2@V?$allocator@U?$pair@$$CBV?$basic_string@DU?$char_traits@D@std@@V?$allocator@D@2@@std@@_J@std@@@2@$0A@@std@@@std@@QAE?AV?$_Tree_iterator@V?$_Tree_val@U?$_Tree_simple_types@U?$pair@$$CBV?$basic_string@DU?$char_traits@D@std@@V?$allocator@D@2@@std@@_J@std@@@std@@@std@@@2@ABV?$basic_string@DU?$char_traits@D@std@@V?$allocator@D@2@@2@@Z 00404aa0 f i Map:MapGenerator.obj
 0001:00003aa0       ?find@?$_Tree@V?$_Tmap_traits@V?$basic_string@DU?$char_traits@D@std@@V?$allocator@D@2@@std@@V?$vector@UTXMLComponent@Blueprints@Data@Common@@V?$allocator@UTXMLComponent@Blueprints@Data@Common@@@std@@@2@U?$less@V?$basic_string@DU?$char_traits@D@std@@V?$allocator@D@2@@std@@@2@V?$allocator@U?$pair@$$CBV?$basic_string@DU?$char_traits@D@std@@V?$allocator@D@2@@std@@V?$vector@UTXMLComponent@Blueprints@Data@Common@@V?$allocator@UTXMLComponent@Blueprints@Data@Common@@@std@@@2@@std@@@2@$0A@@std@@@std@@QAE?AV?$_Tree_iterator@V?$_Tree_val@U?$_Tree_simple_types@U?$pair@$$CBV?$basic_string@DU?$char_traits@D@std@@V?$allocator@D@2@@std@@V?$vector@UTXMLComponent@Blueprints@Data@Common@@V?$allocator@UTXMLComponent@Blueprints@Data@Common@@@std@@@2@@std@@@std@@@std@@@2@ABV?$basic_string@DU?$char_traits@D@std@@V?$allocator@D@2@@2@@Z 00404aa0 f i Logic:EntityFactory.obj
 0001:00003aa0       ?find@?$_Tree@V?$_Tmap_traits@V?$basic_string@DU?$char_traits@D@std@@V?$allocator@D@2@@std@@V12@U?$less@V?$basic_string@DU?$char_traits@D@std@@V?$allocator@D@2@@std@@@2@V?$allocator@U?$pair@$$CBV?$basic_string@DU?$char_traits@D@std@@V?$allocator@D@2@@std@@V12@@std@@@2@$0A@@std@@@std@@QBE?AV?$_Tree_const_iterator@V?$_Tree_val@U?$_Tree_simple_types@U?$pair@$$CBV?$basic_string@DU?$char_traits@D@std@@V?$allocator@D@2@@std@@V12@@std@@@std@@@std@@@2@ABV?$basic_string@DU?$char_traits@D@std@@V?$allocator@D@2@@2@@Z 00404aa0 f i Configure.obj
 0001:00003b30       ?_Erase@?$_Tree@V?$_Tmap_traits@V?$basic_string@DU?$char_traits@D@std@@V?$allocator@D@2@@std@@_JU?$less@V?$basic_string@DU?$char_traits@D@std@@V?$allocator@D@2@@std@@@2@V?$allocator@U?$pair@$$CBV?$basic_string@DU?$char_traits@D@std@@V?$allocator@D@2@@std@@_J@std@@@2@$0A@@std@@@std@@IAEXPAU?$_Tree_node@U?$pair@$$CBV?$basic_string@DU?$char_traits@D@std@@V?$allocator@D@2@@std@@_J@std@@PAX@2@@Z 00404b30 f i BaseApplication.obj
 0001:00003b30       ?_Erase@?$_Tree@V?$_Tmap_traits@V?$basic_string@DU?$char_traits@D@std@@V?$allocator@D@2@@std@@PAVCApplicationState@Application@@U?$less@V?$basic_string@DU?$char_traits@D@std@@V?$allocator@D@2@@std@@@2@V?$allocator@U?$pair@$$CBV?$basic_string@DU?$char_traits@D@std@@V?$allocator@D@2@@std@@PAVCApplicationState@Application@@@std@@@2@$0A@@std@@@std@@IAEXPAU?$_Tree_node@U?$pair@$$CBV?$basic_string@DU?$char_traits@D@std@@V?$allocator@D@2@@std@@PAVCApplicationState@Application@@@std@@PAX@2@@Z 00404b30 f i BaseApplication.obj
 0001:00003b30       ?_Erase@?$_Tree@V?$_Tmap_traits@V?$basic_string@DU?$char_traits@D@std@@V?$allocator@D@2@@std@@PAVCConfigure@Configuration@Common@@U?$less@V?$basic_string@DU?$char_traits@D@std@@V?$allocator@D@2@@std@@@2@V?$allocator@U?$pair@$$CBV?$basic_string@DU?$char_traits@D@std@@V?$allocator@D@2@@std@@PAVCConfigure@Configuration@Common@@@std@@@2@$0A@@std@@@std@@IAEXPAU?$_Tree_node@U?$pair@$$CBV?$basic_string@DU?$char_traits@D@std@@V?$allocator@D@2@@std@@PAVCConfigure@Configuration@Common@@@std@@PAX@2@@Z 00404b30 f i Configure.obj
 0001:00003b30       ?_Erase@?$_Tree@V?$_Tmap_traits@V?$basic_string@DU?$char_traits@D@std@@V?$allocator@D@2@@std@@P6APAVIComponent@Logic@@XZU?$less@V?$basic_string@DU?$char_traits@D@std@@V?$allocator@D@2@@std@@@2@V?$allocator@U?$pair@$$CBV?$basic_string@DU?$char_traits@D@std@@V?$allocator@D@2@@std@@P6APAVIComponent@Logic@@XZ@std@@@2@$0A@@std@@@std@@IAEXPAU?$_Tree_node@U?$pair@$$CBV?$basic_string@DU?$char_traits@D@std@@V?$allocator@D@2@@std@@P6APAVIComponent@Logic@@XZ@std@@PAX@2@@Z 00404b30 f i Logic:ComponentFactory.obj
 0001:00003ba0       ?push_back@?$deque@HV?$allocator@H@std@@@std@@QAEXABH@Z 00404ba0 f i Map:Parser.obj
 0001:00003ba0       ?push_back@?$deque@Tsemantic_type@CParser@Map@@V?$allocator@Tsemantic_type@CParser@Map@@@std@@@std@@QAEXABTsemantic_type@CParser@Map@@@Z 00404ba0 f i Map:Parser.obj
 0001:00003ba0       ?push_back@?$deque@PAVCApplicationState@Application@@V?$allocator@PAVCApplicationState@Application@@@std@@@std@@QAEXABQAVCApplicationState@Application@@@Z 00404ba0 f i BaseApplication.obj
 0001:00003c30       ?_Tidy@?$deque@Vlocation@Map@@V?$allocator@Vlocation@Map@@@std@@@std@@IAEXXZ 00404c30 f i Map:Parser.obj
 0001:00003c30       ?_Tidy@?$deque@PAVCApplicationState@Application@@V?$allocator@PAVCApplicationState@Application@@@std@@@std@@IAEXXZ 00404c30 f i BaseApplication.obj
 0001:00003c30       ?_Tidy@?$deque@HV?$allocator@H@std@@@std@@IAEXXZ 00404c30 f i Map:Parser.obj
 0001:00003c30       ?_Tidy@?$deque@Tsemantic_type@CParser@Map@@V?$allocator@Tsemantic_type@CParser@Map@@@std@@@std@@IAEXXZ 00404c30 f i Map:Parser.obj
 0001:00003c90       ?erase@?$_Tree@V?$_Tmap_traits@V?$basic_string@DU?$char_traits@D@std@@V?$allocator@D@2@@std@@PAVCApplicationState@Application@@U?$less@V?$basic_string@DU?$char_traits@D@std@@V?$allocator@D@2@@std@@@2@V?$allocator@U?$pair@$$CBV?$basic_string@DU?$char_traits@D@std@@V?$allocator@D@2@@std@@PAVCApplicationState@Application@@@std@@@2@$0A@@std@@@std@@QAE?AV?$_Tree_iterator@V?$_Tree_val@U?$_Tree_simple_types@U?$pair@$$CBV?$basic_string@DU?$char_traits@D@std@@V?$allocator@D@2@@std@@PAVCApplicationState@Application@@@std@@@std@@@std@@@2@V?$_Tree_const_iterator@V?$_Tree_val@U?$_Tree_simple_types@U?$pair@$$CBV?$basic_string@DU?$char_traits@D@std@@V?$allocator@D@2@@std@@PAVCApplicationState@Application@@@std@@@std@@@std@@@2@0@Z 00404c90 f i BaseApplication.obj
 0001:00003c90       ?erase@?$_Tree@V?$_Tmap_traits@V?$basic_string@DU?$char_traits@D@std@@V?$allocator@D@2@@std@@P6APAVIComponent@Logic@@XZU?$less@V?$basic_string@DU?$char_traits@D@std@@V?$allocator@D@2@@std@@@2@V?$allocator@U?$pair@$$CBV?$basic_string@DU?$char_traits@D@std@@V?$allocator@D@2@@std@@P6APAVIComponent@Logic@@XZ@std@@@2@$0A@@std@@@std@@QAE?AV?$_Tree_iterator@V?$_Tree_val@U?$_Tree_simple_types@U?$pair@$$CBV?$basic_string@DU?$char_traits@D@std@@V?$allocator@D@2@@std@@P6APAVIComponent@Logic@@XZ@std@@@std@@@std@@@2@V?$_Tree_const_iterator@V?$_Tree_val@U?$_Tree_simple_types@U?$pair@$$CBV?$basic_string@DU?$char_traits@D@std@@V?$allocator@D@2@@std@@P6APAVIComponent@Logic@@XZ@std@@@std@@@std@@@2@0@Z 00404c90 f i Logic:ComponentFactory.obj
 0001:00003c90       ?erase@?$_Tree@V?$_Tmap_traits@V?$basic_string@DU?$char_traits@D@std@@V?$allocator@D@2@@std@@_JU?$less@V?$basic_string@DU?$char_traits@D@std@@V?$allocator@D@2@@std@@@2@V?$allocator@U?$pair@$$CBV?$basic_string@DU?$char_traits@D@std@@V?$allocator@D@2@@std@@_J@std@@@2@$0A@@std@@@std@@QAE?AV?$_Tree_iterator@V?$_Tree_val@U?$_Tree_simple_types@U?$pair@$$CBV?$basic_string@DU?$char_traits@D@std@@V?$allocator@D@2@@std@@_J@std@@@std@@@std@@@2@V?$_Tree_const_iterator@V?$_Tree_val@U?$_Tree_simple_types@U?$pair@$$CBV?$basic_string@DU?$char_traits@D@std@@V?$allocator@D@2@@std@@_J@std@@@std@@@std@@@2@0@Z 00404c90 f i Map:MapGenerator.obj
 0001:00003d50       ?_Lbound@?$_Tree@V?$_Tmap_traits@V?$basic_string@DU?$char_traits@D@std@@V?$allocator@D@2@@std@@V12@U?$less@V?$basic_string@DU?$char_traits@D@std@@V?$allocator@D@2@@std@@@2@V?$allocator@U?$pair@$$CBV?$basic_string@DU?$char_traits@D@std@@V?$allocator@D@2@@std@@V12@@std@@@2@$0A@@std@@@std@@IAEPAU?$_Tree_node@U?$pair@$$CBV?$basic_string@DU?$char_traits@D@std@@V?$allocator@D@2@@std@@V12@@std@@PAX@2@ABV?$basic_string@DU?$char_traits@D@std@@V?$allocator@D@2@@2@@Z 00404d50 f i Configure.obj
 0001:00003d50       ?_Lbound@?$_Tree@V?$_Tmap_traits@V?$basic_string@DU?$char_traits@D@std@@V?$allocator@D@2@@std@@V?$vector@UTXMLComponent@Blueprints@Data@Common@@V?$allocator@UTXMLComponent@Blueprints@Data@Common@@@std@@@2@U?$less@V?$basic_string@DU?$char_traits@D@std@@V?$allocator@D@2@@std@@@2@V?$allocator@U?$pair@$$CBV?$basic_string@DU?$char_traits@D@std@@V?$allocator@D@2@@std@@V?$vector@UTXMLComponent@Blueprints@Data@Common@@V?$allocator@UTXMLComponent@Blueprints@Data@Common@@@std@@@2@@std@@@2@$0A@@std@@@std@@IAEPAU?$_Tree_node@U?$pair@$$CBV?$basic_string@DU?$char_traits@D@std@@V?$allocator@D@2@@std@@V?$vector@UTXMLComponent@Blueprints@Data@Common@@V?$allocator@UTXMLComponent@Blueprints@Data@Common@@@std@@@2@@std@@PAX@2@ABV?$basic_string@DU?$char_traits@D@std@@V?$allocator@D@2@@2@@Z 00404d50 f i Logic:EntityFactory.obj
 0001:00003d50       ?_Lbound@?$_Tree@V?$_Tmap_traits@V?$basic_string@DU?$char_traits@D@std@@V?$allocator@D@2@@std@@V12@U?$less@V?$basic_string@DU?$char_traits@D@std@@V?$allocator@D@2@@std@@@2@V?$allocator@U?$pair@$$CBV?$basic_string@DU?$char_traits@D@std@@V?$allocator@D@2@@std@@V12@@std@@@2@$0A@@std@@@std@@IBEPAU?$_Tree_node@U?$pair@$$CBV?$basic_string@DU?$char_traits@D@std@@V?$allocator@D@2@@std@@V12@@std@@PAX@2@ABV?$basic_string@DU?$char_traits@D@std@@V?$allocator@D@2@@2@@Z 00404d50 f i Configure.obj
 0001:00003d50       ?_Lbound@?$_Tree@V?$_Tmap_traits@V?$basic_string@DU?$char_traits@D@std@@V?$allocator@D@2@@std@@P6APAVIComponent@Logic@@XZU?$less@V?$basic_string@DU?$char_traits@D@std@@V?$allocator@D@2@@std@@@2@V?$allocator@U?$pair@$$CBV?$basic_string@DU?$char_traits@D@std@@V?$allocator@D@2@@std@@P6APAVIComponent@Logic@@XZ@std@@@2@$0A@@std@@@std@@IBEPAU?$_Tree_node@U?$pair@$$CBV?$basic_string@DU?$char_traits@D@std@@V?$allocator@D@2@@std@@P6APAVIComponent@Logic@@XZ@std@@PAX@2@ABV?$basic_string@DU?$char_traits@D@std@@V?$allocator@D@2@@2@@Z 00404d50 f i Logic:EntityFactory.obj
 0001:00003d50       ?_Lbound@?$_Tree@V?$_Tmap_traits@V?$basic_string@DU?$char_traits@D@std@@V?$allocator@D@2@@std@@_JU?$less@V?$basic_string@DU?$char_traits@D@std@@V?$allocator@D@2@@std@@@2@V?$allocator@U?$pair@$$CBV?$basic_string@DU?$char_traits@D@std@@V?$allocator@D@2@@std@@_J@std@@@2@$0A@@std@@@std@@IAEPAU?$_Tree_node@U?$pair@$$CBV?$basic_string@DU?$char_traits@D@std@@V?$allocator@D@2@@std@@_J@std@@PAX@2@ABV?$basic_string@DU?$char_traits@D@std@@V?$allocator@D@2@@2@@Z 00404d50 f i Map:MapGenerator.obj
 0001:00003d50       ?_Lbound@?$_Tree@V?$_Tmap_traits@V?$basic_string@DU?$char_traits@D@std@@V?$allocator@D@2@@std@@UTBluePrint@CEntityFactory@Logic@@U?$less@V?$basic_string@DU?$char_traits@D@std@@V?$allocator@D@2@@std@@@2@V?$allocator@U?$pair@$$CBV?$basic_string@DU?$char_traits@D@std@@V?$allocator@D@2@@std@@UTBluePrint@CEntityFactory@Logic@@@std@@@2@$0A@@std@@@std@@IAEPAU?$_Tree_node@U?$pair@$$CBV?$basic_string@DU?$char_traits@D@std@@V?$allocator@D@2@@std@@UTBluePrint@CEntityFactory@Logic@@@std@@PAX@2@ABV?$basic_string@DU?$char_traits@D@std@@V?$allocator@D@2@@2@@Z 00404d50 f i Logic:EntityFactory.obj
 0001:00003d50       ?_Lbound@?$_Tree@V?$_Tmap_traits@V?$basic_string@DU?$char_traits@D@std@@V?$allocator@D@2@@std@@PAVCApplicationState@Application@@U?$less@V?$basic_string@DU?$char_traits@D@std@@V?$allocator@D@2@@std@@@2@V?$allocator@U?$pair@$$CBV?$basic_string@DU?$char_traits@D@std@@V?$allocator@D@2@@std@@PAVCApplicationState@Application@@@std@@@2@$0A@@std@@@std@@IAEPAU?$_Tree_node@U?$pair@$$CBV?$basic_string@DU?$char_traits@D@std@@V?$allocator@D@2@@std@@PAVCApplicationState@Application@@@std@@PAX@2@ABV?$basic_string@DU?$char_traits@D@std@@V?$allocator@D@2@@2@@Z 00404d50 f i BaseApplication.obj
 0001:00003e30       ?end@?$deque@Tsemantic_type@CParser@Map@@V?$allocator@Tsemantic_type@CParser@Map@@@std@@@std@@QBE?AV?$_Deque_const_iterator@V?$_Deque_val@U?$_Deque_simple_types@Tsemantic_type@CParser@Map@@@std@@@std@@@2@XZ 00404e30 f i Map:Parser.obj
 0001:00003e30       ?end@?$deque@HV?$allocator@H@std@@@std@@QAE?AV?$_Deque_iterator@V?$_Deque_val@U?$_Deque_simple_types@H@std@@@std@@@2@XZ 00404e30 f i Map:Parser.obj
 0001:00003e30       ?end@?$deque@Tsemantic_type@CParser@Map@@V?$allocator@Tsemantic_type@CParser@Map@@@std@@@std@@QAE?AV?$_Deque_iterator@V?$_Deque_val@U?$_Deque_simple_types@Tsemantic_type@CParser@Map@@@std@@@std@@@2@XZ 00404e30 f i Map:Parser.obj
 0001:00003e30       ?end@?$deque@HV?$allocator@H@std@@@std@@QBE?AV?$_Deque_const_iterator@V?$_Deque_val@U?$_Deque_simple_types@H@std@@@std@@@2@XZ 00404e30 f i Map:Parser.obj
 0001:00003e30       ?end@?$deque@Vlocation@Map@@V?$allocator@Vlocation@Map@@@std@@@std@@QBE?AV?$_Deque_const_iterator@V?$_Deque_val@U?$_Deque_simple_types@Vlocation@Map@@@std@@@std@@@2@XZ 00404e30 f i Map:Parser.obj
 0001:00003e30       ?end@?$deque@PAVCApplicationState@Application@@V?$allocator@PAVCApplicationState@Application@@@std@@@std@@QAE?AV?$_Deque_iterator@V?$_Deque_val@U?$_Deque_simple_types@PAVCApplicationState@Application@@@std@@@std@@@2@XZ 00404e30 f i BaseApplication.obj
 0001:00003e30       ?end@?$deque@Vlocation@Map@@V?$allocator@Vlocation@Map@@@std@@@std@@QAE?AV?$_Deque_iterator@V?$_Deque_val@U?$_Deque_simple_types@Vlocation@Map@@@std@@@std@@@2@XZ 00404e30 f i Map:Parser.obj
 0001:00003e50       ?_Growmap@?$deque@HV?$allocator@H@std@@@std@@IAEXI@Z 00404e50 f i Map:Parser.obj
 0001:00003e50       ?_Growmap@?$deque@Tsemantic_type@CParser@Map@@V?$allocator@Tsemantic_type@CParser@Map@@@std@@@std@@IAEXI@Z 00404e50 f i Map:Parser.obj
 0001:00003e50       ?_Growmap@?$deque@PAVCApplicationState@Application@@V?$allocator@PAVCApplicationState@Application@@@std@@@std@@IAEXI@Z 00404e50 f i BaseApplication.obj
 0001:00003fe0       ??G?$_Deque_iterator@V?$_Deque_val@U?$_Deque_simple_types@PAVCApplicationState@Application@@@std@@@std@@@std@@QBE?AV01@H@Z 00404fe0 f i BaseApplication.obj
 0001:00004070       ?erase@?$_Tree@V?$_Tmap_traits@V?$basic_string@DU?$char_traits@D@std@@V?$allocator@D@2@@std@@_JU?$less@V?$basic_string@DU?$char_traits@D@std@@V?$allocator@D@2@@std@@@2@V?$allocator@U?$pair@$$CBV?$basic_string@DU?$char_traits@D@std@@V?$allocator@D@2@@std@@_J@std@@@2@$0A@@std@@@std@@QAE?AV?$_Tree_iterator@V?$_Tree_val@U?$_Tree_simple_types@U?$pair@$$CBV?$basic_string@DU?$char_traits@D@std@@V?$allocator@D@2@@std@@_J@std@@@std@@@std@@@2@V?$_Tree_const_iterator@V?$_Tree_val@U?$_Tree_simple_types@U?$pair@$$CBV?$basic_string@DU?$char_traits@D@std@@V?$allocator@D@2@@std@@_J@std@@@std@@@std@@@2@@Z 00405070 f i Map:MapGenerator.obj
 0001:00004070       ?erase@?$_Tree@V?$_Tmap_traits@V?$basic_string@DU?$char_traits@D@std@@V?$allocator@D@2@@std@@PAVCApplicationState@Application@@U?$less@V?$basic_string@DU?$char_traits@D@std@@V?$allocator@D@2@@std@@@2@V?$allocator@U?$pair@$$CBV?$basic_string@DU?$char_traits@D@std@@V?$allocator@D@2@@std@@PAVCApplicationState@Application@@@std@@@2@$0A@@std@@@std@@QAE?AV?$_Tree_iterator@V?$_Tree_val@U?$_Tree_simple_types@U?$pair@$$CBV?$basic_string@DU?$char_traits@D@std@@V?$allocator@D@2@@std@@PAVCApplicationState@Application@@@std@@@std@@@std@@@2@V?$_Tree_const_iterator@V?$_Tree_val@U?$_Tree_simple_types@U?$pair@$$CBV?$basic_string@DU?$char_traits@D@std@@V?$allocator@D@2@@std@@PAVCApplicationState@Application@@@std@@@std@@@std@@@2@@Z 00405070 f i BaseApplication.obj
 0001:00004070       ?erase@?$_Tree@V?$_Tmap_traits@V?$basic_string@DU?$char_traits@D@std@@V?$allocator@D@2@@std@@P6APAVIComponent@Logic@@XZU?$less@V?$basic_string@DU?$char_traits@D@std@@V?$allocator@D@2@@std@@@2@V?$allocator@U?$pair@$$CBV?$basic_string@DU?$char_traits@D@std@@V?$allocator@D@2@@std@@P6APAVIComponent@Logic@@XZ@std@@@2@$0A@@std@@@std@@QAE?AV?$_Tree_iterator@V?$_Tree_val@U?$_Tree_simple_types@U?$pair@$$CBV?$basic_string@DU?$char_traits@D@std@@V?$allocator@D@2@@std@@P6APAVIComponent@Logic@@XZ@std@@@std@@@std@@@2@V?$_Tree_const_iterator@V?$_Tree_val@U?$_Tree_simple_types@U?$pair@$$CBV?$basic_string@DU?$char_traits@D@std@@V?$allocator@D@2@@std@@P6APAVIComponent@Logic@@XZ@std@@@std@@@std@@@2@@Z 00405070 f i Logic:ComponentFactory.obj
 0001:00004320       ?_Buyheadnode@?$_Tree_alloc@$0A@U?$_Tree_base_types@U?$pair@$$CBV?$basic_string@DU?$char_traits@D@std@@V?$allocator@D@2@@std@@P6APAVIComponent@Logic@@XZ@std@@V?$allocator@U?$pair@$$CBV?$basic_string@DU?$char_traits@D@std@@V?$allocator@D@2@@std@@P6APAVIComponent@Logic@@XZ@std@@@2@@std@@@std@@QAEPAU?$_Tree_node@U?$pair@$$CBV?$basic_string@DU?$char_traits@D@std@@V?$allocator@D@2@@std@@P6APAVIComponent@Logic@@XZ@std@@PAX@2@XZ 00405320 f i Logic:ComponentFactory.obj
 0001:00004320       ?_Buyheadnode@?$_Tree_alloc@$0A@U?$_Tree_base_types@U?$pair@$$CBV?$basic_string@DU?$char_traits@D@std@@V?$allocator@D@2@@std@@PAVCApplicationState@Application@@@std@@V?$allocator@U?$pair@$$CBV?$basic_string@DU?$char_traits@D@std@@V?$allocator@D@2@@std@@PAVCApplicationState@Application@@@std@@@2@@std@@@std@@QAEPAU?$_Tree_node@U?$pair@$$CBV?$basic_string@DU?$char_traits@D@std@@V?$allocator@D@2@@std@@PAVCApplicationState@Application@@@std@@PAX@2@XZ 00405320 f i BaseApplication.obj
 0001:00004320       ?_Buyheadnode@?$_Tree_alloc@$0A@U?$_Tree_base_types@U?$pair@$$CBV?$basic_string@DU?$char_traits@D@std@@V?$allocator@D@2@@std@@PAVCConfigure@Configuration@Common@@@std@@V?$allocator@U?$pair@$$CBV?$basic_string@DU?$char_traits@D@std@@V?$allocator@D@2@@std@@PAVCConfigure@Configuration@Common@@@std@@@2@@std@@@std@@QAEPAU?$_Tree_node@U?$pair@$$CBV?$basic_string@DU?$char_traits@D@std@@V?$allocator@D@2@@std@@PAVCConfigure@Configuration@Common@@@std@@PAX@2@XZ 00405320 f i Configure.obj
 0001:00004350       ??$_Buynode@U?$pair@V?$basic_string@DU?$char_traits@D@std@@V?$allocator@D@2@@std@@PAVCApplicationState@Application@@@std@@@?$_Tree_buy@U?$pair@$$CBV?$basic_string@DU?$char_traits@D@std@@V?$allocator@D@2@@std@@PAVCApplicationState@Application@@@std@@V?$allocator@U?$pair@$$CBV?$basic_string@DU?$char_traits@D@std@@V?$allocator@D@2@@std@@PAVCApplicationState@Application@@@std@@@2@@std@@QAEPAU?$_Tree_node@U?$pair@$$CBV?$basic_string@DU?$char_traits@D@std@@V?$allocator@D@2@@std@@PAVCApplicationState@Application@@@std@@PAX@1@$$QAU?$pair@V?$basic_string@DU?$char_traits@D@std@@V?$allocator@D@2@@std@@PAVCApplicationState@Application@@@1@@Z 00405350 f i BaseApplication.obj
 0001:00004380       ??$_Insert_hint@AAU?$pair@$$CBV?$basic_string@DU?$char_traits@D@std@@V?$allocator@D@2@@std@@PAVCApplicationState@Application@@@std@@PAU?$_Tree_node@U?$pair@$$CBV?$basic_string@DU?$char_traits@D@std@@V?$allocator@D@2@@std@@PAVCApplicationState@Application@@@std@@PAX@2@@?$_Tree@V?$_Tmap_traits@V?$basic_string@DU?$char_traits@D@std@@V?$allocator@D@2@@std@@PAVCApplicationState@Application@@U?$less@V?$basic_string@DU?$char_traits@D@std@@V?$allocator@D@2@@std@@@2@V?$allocator@U?$pair@$$CBV?$basic_string@DU?$char_traits@D@std@@V?$allocator@D@2@@std@@PAVCApplicationState@Application@@@std@@@2@$0A@@std@@@std@@IAE?AV?$_Tree_iterator@V?$_Tree_val@U?$_Tree_simple_types@U?$pair@$$CBV?$basic_string@DU?$char_traits@D@std@@V?$allocator@D@2@@std@@PAVCApplicationState@Application@@@std@@@std@@@std@@@1@V?$_Tree_const_iterator@V?$_Tree_val@U?$_Tree_simple_types@U?$pair@$$CBV?$basic_string@DU?$char_traits@D@std@@V?$allocator@D@2@@std@@PAVCApplicationState@Application@@@std@@@std@@@std@@@1@AAU?$pair@$$CBV?$basic_string@DU?$char_traits@D@std@@V?$allocator@D@2@@std@@PAVCApplicationState@Application@@@1@PAU?$_Tree_node@U?$pair@$$CBV?$basic_string@DU?$char_traits@D@std@@V?$allocator@D@2@@std@@PAVCApplicationState@Application@@@std@@PAX@1@@Z 00405380 f i BaseApplication.obj
 0001:000045b0       ?_Destroy_if_not_nil@?$_Tree@V?$_Tmap_traits@V?$basic_string@DU?$char_traits@D@std@@V?$allocator@D@2@@std@@PAVCApplicationState@Application@@U?$less@V?$basic_string@DU?$char_traits@D@std@@V?$allocator@D@2@@std@@@2@V?$allocator@U?$pair@$$CBV?$basic_string@DU?$char_traits@D@std@@V?$allocator@D@2@@std@@PAVCApplicationState@Application@@@std@@@2@$0A@@std@@@std@@IAEXPAU?$_Tree_node@U?$pair@$$CBV?$basic_string@DU?$char_traits@D@std@@V?$allocator@D@2@@std@@PAVCApplicationState@Application@@@std@@PAX@2@@Z 004055b0 f i BaseApplication.obj
 0001:000045b0       ?_Destroy_if_not_nil@?$_Tree@V?$_Tmap_traits@V?$basic_string@DU?$char_traits@D@std@@V?$allocator@D@2@@std@@P6APAVIComponent@Logic@@XZU?$less@V?$basic_string@DU?$char_traits@D@std@@V?$allocator@D@2@@std@@@2@V?$allocator@U?$pair@$$CBV?$basic_string@DU?$char_traits@D@std@@V?$allocator@D@2@@std@@P6APAVIComponent@Logic@@XZ@std@@@2@$0A@@std@@@std@@IAEXPAU?$_Tree_node@U?$pair@$$CBV?$basic_string@DU?$char_traits@D@std@@V?$allocator@D@2@@std@@P6APAVIComponent@Logic@@XZ@std@@PAX@2@@Z 004055b0 f i Logic:ControllerComponent.obj
 0001:000045b0       ?_Destroy_if_not_nil@?$_Tree@V?$_Tmap_traits@V?$basic_string@DU?$char_traits@D@std@@V?$allocator@D@2@@std@@_JU?$less@V?$basic_string@DU?$char_traits@D@std@@V?$allocator@D@2@@std@@@2@V?$allocator@U?$pair@$$CBV?$basic_string@DU?$char_traits@D@std@@V?$allocator@D@2@@std@@_J@std@@@2@$0A@@std@@@std@@IAEXPAU?$_Tree_node@U?$pair@$$CBV?$basic_string@DU?$char_traits@D@std@@V?$allocator@D@2@@std@@_J@std@@PAX@2@@Z 004055b0 f i Map:MapGenerator.obj
 0001:000045b0       ?_Destroy_if_not_nil@?$_Tree@V?$_Tmap_traits@V?$basic_string@DU?$char_traits@D@std@@V?$allocator@D@2@@std@@PAVCConfigure@Configuration@Common@@U?$less@V?$basic_string@DU?$char_traits@D@std@@V?$allocator@D@2@@std@@@2@V?$allocator@U?$pair@$$CBV?$basic_string@DU?$char_traits@D@std@@V?$allocator@D@2@@std@@PAVCConfigure@Configuration@Common@@@std@@@2@$0A@@std@@@std@@IAEXPAU?$_Tree_node@U?$pair@$$CBV?$basic_string@DU?$char_traits@D@std@@V?$allocator@D@2@@std@@PAVCConfigure@Configuration@Common@@@std@@PAX@2@@Z 004055b0 f i Configure.obj
 0001:000045f0       ?_Buynode0@?$_Tree_buy@U?$pair@$$CBV?$basic_string@DU?$char_traits@D@std@@V?$allocator@D@2@@std@@P6APAVIComponent@Logic@@XZ@std@@V?$allocator@U?$pair@$$CBV?$basic_string@DU?$char_traits@D@std@@V?$allocator@D@2@@std@@P6APAVIComponent@Logic@@XZ@std@@@2@@std@@QAEPAU?$_Tree_node@U?$pair@$$CBV?$basic_string@DU?$char_traits@D@std@@V?$allocator@D@2@@std@@P6APAVIComponent@Logic@@XZ@std@@PAX@2@XZ 004055f0 f i Logic:ControllerComponent.obj
 0001:000045f0       ?_Buynode0@?$_Tree_buy@U?$pair@$$CBV?$basic_string@DU?$char_traits@D@std@@V?$allocator@D@2@@std@@PAVCApplicationState@Application@@@std@@V?$allocator@U?$pair@$$CBV?$basic_string@DU?$char_traits@D@std@@V?$allocator@D@2@@std@@PAVCApplicationState@Application@@@std@@@2@@std@@QAEPAU?$_Tree_node@U?$pair@$$CBV?$basic_string@DU?$char_traits@D@std@@V?$allocator@D@2@@std@@PAVCApplicationState@Application@@@std@@PAX@2@XZ 004055f0 f i BaseApplication.obj
 0001:00004630       ??$_Insert_at@AAU?$pair@$$CBV?$basic_string@DU?$char_traits@D@std@@V?$allocator@D@2@@std@@PAVCApplicationState@Application@@@std@@PAU?$_Tree_node@U?$pair@$$CBV?$basic_string@DU?$char_traits@D@std@@V?$allocator@D@2@@std@@PAVCApplicationState@Application@@@std@@PAX@2@@?$_Tree@V?$_Tmap_traits@V?$basic_string@DU?$char_traits@D@std@@V?$allocator@D@2@@std@@PAVCApplicationState@Application@@U?$less@V?$basic_string@DU?$char_traits@D@std@@V?$allocator@D@2@@std@@@2@V?$allocator@U?$pair@$$CBV?$basic_string@DU?$char_traits@D@std@@V?$allocator@D@2@@std@@PAVCApplicationState@Application@@@std@@@2@$0A@@std@@@std@@IAE?AV?$_Tree_iterator@V?$_Tree_val@U?$_Tree_simple_types@U?$pair@$$CBV?$basic_string@DU?$char_traits@D@std@@V?$allocator@D@2@@std@@PAVCApplicationState@Application@@@std@@@std@@@std@@@1@_NPAU?$_Tree_node@U?$pair@$$CBV?$basic_string@DU?$char_traits@D@std@@V?$allocator@D@2@@std@@PAVCApplicationState@Application@@@std@@PAX@1@AAU?$pair@$$CBV?$basic_string@DU?$char_traits@D@std@@V?$allocator@D@2@@std@@PAVCApplicationState@Application@@@1@1@Z 00405630 f i BaseApplication.obj
 0001:00004630       ??$_Insert_at@AAU?$pair@$$CBV?$basic_string@DU?$char_traits@D@std@@V?$allocator@D@2@@std@@P6APAVIComponent@Logic@@XZ@std@@PAU?$_Tree_node@U?$pair@$$CBV?$basic_string@DU?$char_traits@D@std@@V?$allocator@D@2@@std@@P6APAVIComponent@Logic@@XZ@std@@PAX@2@@?$_Tree@V?$_Tmap_traits@V?$basic_string@DU?$char_traits@D@std@@V?$allocator@D@2@@std@@P6APAVIComponent@Logic@@XZU?$less@V?$basic_string@DU?$char_traits@D@std@@V?$allocator@D@2@@std@@@2@V?$allocator@U?$pair@$$CBV?$basic_string@DU?$char_traits@D@std@@V?$allocator@D@2@@std@@P6APAVIComponent@Logic@@XZ@std@@@2@$0A@@std@@@std@@IAE?AV?$_Tree_iterator@V?$_Tree_val@U?$_Tree_simple_types@U?$pair@$$CBV?$basic_string@DU?$char_traits@D@std@@V?$allocator@D@2@@std@@P6APAVIComponent@Logic@@XZ@std@@@std@@@std@@@1@_NPAU?$_Tree_node@U?$pair@$$CBV?$basic_string@DU?$char_traits@D@std@@V?$allocator@D@2@@std@@P6APAVIComponent@Logic@@XZ@std@@PAX@1@AAU?$pair@$$CBV?$basic_string@DU?$char_traits@D@std@@V?$allocator@D@2@@std@@P6APAVIComponent@Logic@@XZ@1@1@Z 00405630 f i Logic:ControllerComponent.obj
 0001:00004860       ??$_Insert_nohint@AAU?$pair@$$CBV?$basic_string@DU?$char_traits@D@std@@V?$allocator@D@2@@std@@PAVCApplicationState@Application@@@std@@PAU?$_Tree_node@U?$pair@$$CBV?$basic_string@DU?$char_traits@D@std@@V?$allocator@D@2@@std@@PAVCApplicationState@Application@@@std@@PAX@2@@?$_Tree@V?$_Tmap_traits@V?$basic_string@DU?$char_traits@D@std@@V?$allocator@D@2@@std@@PAVCApplicationState@Application@@U?$less@V?$basic_string@DU?$char_traits@D@std@@V?$allocator@D@2@@std@@@2@V?$allocator@U?$pair@$$CBV?$basic_string@DU?$char_traits@D@std@@V?$allocator@D@2@@std@@PAVCApplicationState@Application@@@std@@@2@$0A@@std@@@std@@IAE?AU?$pair@V?$_Tree_iterator@V?$_Tree_val@U?$_Tree_simple_types@U?$pair@$$CBV?$basic_string@DU?$char_traits@D@std@@V?$allocator@D@2@@std@@PAVCApplicationState@Application@@@std@@@std@@@std@@@std@@_N@1@_NAAU?$pair@$$CBV?$basic_string@DU?$char_traits@D@std@@V?$allocator@D@2@@std@@PAVCApplicationState@Application@@@1@PAU?$_Tree_node@U?$pair@$$CBV?$basic_string@DU?$char_traits@D@std@@V?$allocator@D@2@@std@@PAVCApplicationState@Application@@@std@@PAX@1@@Z 00405860 f i BaseApplication.obj
 0001:00004860       ??$_Insert_nohint@AAU?$pair@$$CBV?$basic_string@DU?$char_traits@D@std@@V?$allocator@D@2@@std@@P6APAVIComponent@Logic@@XZ@std@@PAU?$_Tree_node@U?$pair@$$CBV?$basic_string@DU?$char_traits@D@std@@V?$allocator@D@2@@std@@P6APAVIComponent@Logic@@XZ@std@@PAX@2@@?$_Tree@V?$_Tmap_traits@V?$basic_string@DU?$char_traits@D@std@@V?$allocator@D@2@@std@@P6APAVIComponent@Logic@@XZU?$less@V?$basic_string@DU?$char_traits@D@std@@V?$allocator@D@2@@std@@@2@V?$allocator@U?$pair@$$CBV?$basic_string@DU?$char_traits@D@std@@V?$allocator@D@2@@std@@P6APAVIComponent@Logic@@XZ@std@@@2@$0A@@std@@@std@@IAE?AU?$pair@V?$_Tree_iterator@V?$_Tree_val@U?$_Tree_simple_types@U?$pair@$$CBV?$basic_string@DU?$char_traits@D@std@@V?$allocator@D@2@@std@@P6APAVIComponent@Logic@@XZ@std@@@std@@@std@@@std@@_N@1@_NAAU?$pair@$$CBV?$basic_string@DU?$char_traits@D@std@@V?$allocator@D@2@@std@@P6APAVIComponent@Logic@@XZ@1@PAU?$_Tree_node@U?$pair@$$CBV?$basic_string@DU?$char_traits@D@std@@V?$allocator@D@2@@std@@P6APAVIComponent@Logic@@XZ@std@@PAX@1@@Z 00405860 f i Logic:ControllerComponent.obj
 0001:00004a90       ??$?0V?$basic_string@DU?$char_traits@D@std@@V?$allocator@D@2@@std@@PAVCConfigure@Configuration@Common@@@?$pair@$$CBV?$basic_string@DU?$char_traits@D@std@@V?$allocator@D@2@@std@@PAVCConfigure@Configuration@Common@@@std@@QAE@$$QAU?$pair@V?$basic_string@DU?$char_traits@D@std@@V?$allocator@D@2@@std@@PAVCConfigure@Configuration@Common@@@1@PAPAX@Z 00405a90 f i Configure.obj
 0001:00004a90       ??$?0V?$basic_string@DU?$char_traits@D@std@@V?$allocator@D@2@@std@@PAVCApplicationState@Application@@@?$pair@$$CBV?$basic_string@DU?$char_traits@D@std@@V?$allocator@D@2@@std@@PAVCApplicationState@Application@@@std@@QAE@$$QAU?$pair@V?$basic_string@DU?$char_traits@D@std@@V?$allocator@D@2@@std@@PAVCApplicationState@Application@@@1@PAPAX@Z 00405a90 f i BaseApplication.obj
 0001:00004b00       ?activate@IComponent@Logic@@UAE_NXZ 00405b00 f i Logic:ControllerComponent.obj
 0001:00004b00       ?activate@CControllerComponent@Logic@@UAE_NXZ 00405b00 f i Logic:ControllerComponent.obj
 0001:00004b00       ?init@CApplicationState@Application@@UAE_NXZ 00405b00 f i EventState.obj
 0001:00004b10       ?what@parse_error@rapidxml@@UBEPBDXZ 00405b10 f i XmlParser.obj
 0001:00004b10       ?getType@CApplicationState@Application@@UAE?AW4GameType@Data@Common@@XZ 00405b10 f i EventState.obj
 0001:00004b20       ?setType@CApplicationState@Application@@UAEXW4GameType@Data@Common@@@Z 00405b20 f i EventState.obj
 0001:00004b30       ?keyPressed@CMenuState@Application@@UAE_NUTKey@Input@Common@@@Z 00405b30 f i MenuState.obj
 0001:00004b30       ?keyPressed@CEventState@Application@@UAE_NUTKey@Input@Common@@@Z 00405b30 f i EventState.obj
 0001:00004b30       ?keyPressed@CPlanetState@Application@@UAE_NUTKey@Input@Common@@@Z 00405b30 f i PlanetState.obj
 0001:00004b30       ?keyReleased@CApplicationState@Application@@UAE_NUTKey@Input@Common@@@Z 00405b30 f i EventState.obj
 0001:00004b30       ?keyPressed@CPauseState@Application@@UAE_NUTKey@Input@Common@@@Z 00405b30 f i PauseState.obj
 0001:00004b30       ?keyPressed@CSystemState@Application@@UAE_NUTKey@Input@Common@@@Z 00405b30 f i SystemState.obj
 0001:00004b30       ?keyPressed@CApplicationState@Application@@UAE_NUTKey@Input@Common@@@Z 00405b30 f i EventState.obj
 0001:00004b30       ?keyPressed@CGalaxyState@Application@@UAE_NUTKey@Input@Common@@@Z 00405b30 f i GalaxyState.obj
 0001:00004b40       ??_ECApplicationState@Application@@UAEPAXI@Z 00405b40 f i * CIL library *:* CIL module *
 0001:00004b40       ??_GCGalaxyState@Application@@UAEPAXI@Z 00405b40 f i TTGApplication.obj
 0001:00004b40       ??_ECPauseState@Application@@UAEPAXI@Z 00405b40 f i * CIL library *:* CIL module *
 0001:00004b40       ??_GCMenuState@Application@@UAEPAXI@Z 00405b40 f i MenuState.obj
 0001:00004b40       ??_GCApplicationState@Application@@UAEPAXI@Z 00405b40 f i EventState.obj
 0001:00004b40       ??_GCSystemState@Application@@UAEPAXI@Z 00405b40 f i TTGApplication.obj
 0001:00004b40       ??_GCExitState@Application@@UAEPAXI@Z 00405b40 f i TTGApplication.obj
 0001:00004b40       ??_ECEventState@Application@@UAEPAXI@Z 00405b40 f i * CIL library *:* CIL module *
 0001:00004b40       ??_ECSystemState@Application@@UAEPAXI@Z 00405b40 f i * CIL library *:* CIL module *
 0001:00004b40       ??_ECMenuState@Application@@UAEPAXI@Z 00405b40 f i * CIL library *:* CIL module *
 0001:00004b40       ??_ECGalaxyState@Application@@UAEPAXI@Z 00405b40 f i * CIL library *:* CIL module *
 0001:00004b40       ??_GCPlanetState@Application@@UAEPAXI@Z 00405b40 f i TTGApplication.obj
 0001:00004b40       ??_GCPauseState@Application@@UAEPAXI@Z 00405b40 f i PauseState.obj
 0001:00004b40       ??_ECPlanetState@Application@@UAEPAXI@Z 00405b40 f i * CIL library *:* CIL module *
 0001:00004b40       ??_ECExitState@Application@@UAEPAXI@Z 00405b40 f i * CIL library *:* CIL module *
 0001:00004b40       ??_GCEventState@Application@@UAEPAXI@Z 00405b40 f i EventState.obj
 0001:00004b70       ??_GSlotFunctorBase@CEGUI@@UAEPAXI@Z 00405b70 f i EventState.obj
 0001:00004b70       ??_E?$MemberFunctionSlot@VCEventState@Application@@@CEGUI@@UAEPAXI@Z 00405b70 f i * CIL library *:* CIL module *
 0001:00004b70       ??_E?$MemberFunctionSlot@VCMenuState@Application@@@CEGUI@@UAEPAXI@Z 00405b70 f i * CIL library *:* CIL module *
 0001:00004b70       ??_G?$MemberFunctionSlot@VCPauseState@Application@@@CEGUI@@UAEPAXI@Z 00405b70 f i PauseState.obj
 0001:00004b70       ??_G?$MemberFunctionSlot@VCMenuState@Application@@@CEGUI@@UAEPAXI@Z 00405b70 f i MenuState.obj
 0001:00004b70       ??_ESlotFunctorBase@CEGUI@@UAEPAXI@Z 00405b70 f i * CIL library *:* CIL module *
 0001:00004b70       ??_G?$MemberFunctionSlot@VCEventState@Application@@@CEGUI@@UAEPAXI@Z 00405b70 f i EventState.obj
 0001:00004b70       ??_E?$MemberFunctionSlot@VCPauseState@Application@@@CEGUI@@UAEPAXI@Z 00405b70 f i * CIL library *:* CIL module *
 0001:00004ba0       ?init@CEventState@Application@@UAE_NXZ 00405ba0 f   EventState.obj
 0001:00004d70       ?activate@CPauseState@Application@@UAEXXZ 00405d70 f   PauseState.obj
 0001:00004d70       ?activate@CMenuState@Application@@UAEXXZ 00405d70 f   MenuState.obj
 0001:00004d70       ?activate@CEventState@Application@@UAEXXZ 00405d70 f   EventState.obj
 0001:00004dc0       ?deactivate@CMenuState@Application@@UAEXXZ 00405dc0 f   MenuState.obj
 0001:00004dc0       ?deactivate@CEventState@Application@@UAEXXZ 00405dc0 f   EventState.obj
 0001:00004dc0       ?deactivate@CPauseState@Application@@UAEXXZ 00405dc0 f   PauseState.obj
 0001:00004e00       ?keyReleased@CEventState@Application@@UAE_NUTKey@Input@Common@@@Z 00405e00 f   EventState.obj
 0001:00004ef0       ?backReleased@CEventState@Application@@AAE_NABVEventArgs@CEGUI@@@Z 00405ef0 f   EventState.obj
 0001:00004ef0       ?resumeReleased@CPauseState@Application@@AAE_NABVEventArgs@CEGUI@@@Z 00405ef0 f   PauseState.obj
 0001:00004f00       ??R?$MemberFunctionSlot@VCPauseState@Application@@@CEGUI@@UAE_NABVEventArgs@1@@Z 00405f00 f i PauseState.obj
 0001:00004f00       ??R?$MemberFunctionSlot@VCMenuState@Application@@@CEGUI@@UAE_NABVEventArgs@1@@Z 00405f00 f i MenuState.obj
 0001:00004f00       ??R?$MemberFunctionSlot@VCEventState@Application@@@CEGUI@@UAE_NABVEventArgs@1@@Z 00405f00 f i EventState.obj
 0001:00004f30       ?init@CGalaxyState@Application@@UAE_NXZ 00405f30 f   GalaxyState.obj
 0001:000050a0       ?release@CPlanetState@Application@@UAEXXZ 004060a0 f   PlanetState.obj
 0001:000050a0       ?release@CGalaxyState@Application@@UAEXXZ 004060a0 f   GalaxyState.obj
 0001:000050a0       ?release@CSystemState@Application@@UAEXXZ 004060a0 f   SystemState.obj
 0001:00005100       ?activate@CGalaxyState@Application@@UAEXXZ 00406100 f   GalaxyState.obj
 0001:00005100       ?activate@CSystemState@Application@@UAEXXZ 00406100 f   SystemState.obj
 0001:00005100       ?activate@CPlanetState@Application@@UAEXXZ 00406100 f   PlanetState.obj
 0001:00005110       ?deactivate@CGalaxyState@Application@@UAEXXZ 00406110 f   GalaxyState.obj
 0001:00005110       ?deactivate@CPlanetState@Application@@UAEXXZ 00406110 f   PlanetState.obj
 0001:00005110       ?deactivate@CSystemState@Application@@UAEXXZ 00406110 f   SystemState.obj
 0001:00005120       ?tick@CSystemState@Application@@UAEXI@Z 00406120 f   SystemState.obj
 0001:00005120       ?tick@CPlanetState@Application@@UAEXI@Z 00406120 f   PlanetState.obj
 0001:00005120       ?tick@CGalaxyState@Application@@UAEXI@Z 00406120 f   GalaxyState.obj
 0001:00005150       ?keyReleased@CGalaxyState@Application@@UAE_NUTKey@Input@Common@@@Z 00406150 f   GalaxyState.obj
 0001:00005310       ?init@CMenuState@Application@@UAE_NXZ 00406310 f   MenuState.obj
 0001:000055c0       ?keyReleased@CMenuState@Application@@UAE_NUTKey@Input@Common@@@Z 004065c0 f   MenuState.obj
 0001:000056b0       ?startReleased@CMenuState@Application@@AAE_NABVEventArgs@CEGUI@@@Z 004066b0 f   MenuState.obj
 0001:00005780       ?exitReleased@CPauseState@Application@@AAE_NABVEventArgs@CEGUI@@@Z 00406780 f   PauseState.obj
 0001:00005780       ?exitReleased@CMenuState@Application@@AAE_NABVEventArgs@CEGUI@@@Z 00406780 f   MenuState.obj
 0001:00005790       ?init@CPauseState@Application@@UAE_NXZ 00406790 f   PauseState.obj
 0001:00005b20       ?keyReleased@CPauseState@Application@@UAE_NUTKey@Input@Common@@@Z 00406b20 f   PauseState.obj
 0001:00005be0       ?menuReleased@CPauseState@Application@@AAE_NABVEventArgs@CEGUI@@@Z 00406be0 f   PauseState.obj
 0001:00005c90       ?init@CPlanetState@Application@@UAE_NXZ 00406c90 f   PlanetState.obj
 0001:00005e00       ?keyReleased@CPlanetState@Application@@UAE_NUTKey@Input@Common@@@Z 00406e00 f   PlanetState.obj
 0001:00005f60       ?init@CSystemState@Application@@UAE_NXZ 00406f60 f   SystemState.obj
 0001:000060d0       ?keyReleased@CSystemState@Application@@UAE_NUTKey@Input@Common@@@Z 004070d0 f   SystemState.obj
 0001:00006240       _WinMain@16                00407240 f   TTG.obj
 0001:00006370       ?activate@CExitState@Application@@UAEXXZ 00407370 f i TTGApplication.obj
 0001:00006380       ??1CTTGApplication@Application@@UAE@XZ 00407380 f   TTGApplication.obj
 0001:000063e0       ?init@CTTGApplication@Application@@UAE_NXZ 004073e0 f   TTGApplication.obj
 0001:00006900       ?release@CTTGApplication@Application@@UAEXXZ 00407900 f   TTGApplication.obj
 0001:00006910       ??1locale@std@@QAE@XZ      00407910 f i Configure.obj
 0001:00006930       ??1_Sentry_base@?$basic_ostream@DU?$char_traits@D@std@@@std@@QAE@XZ 00407930 f i log.obj
 0001:00006930       ??1_Sentry_base@?$basic_istream@DU?$char_traits@D@std@@@std@@QAE@XZ 00407930 f i Configure.obj
 0001:00006930       ??1sentry@?$basic_istream@DU?$char_traits@D@std@@@std@@QAE@XZ 00407930 f i Configure.obj
 0001:00006950       ??$_Fputc@D@std@@YA_NDPAU_iobuf@@@Z 00407950 f i Configure.obj
 0001:00006970       ?getDefaultValue@Configuration@Common@@YA?AV?$basic_string@DU?$char_traits@D@std@@V?$allocator@D@2@@std@@ABV34@@Z 00407970 f   Configure.obj
 0001:00006a30       ?getConfiguration@CConfigure@Configuration@Common@@SAAAV123@ABV?$basic_string@DU?$char_traits@D@std@@V?$allocator@D@2@@std@@@Z 00407a30 f   Configure.obj
 0001:00006b40       ??0CConfigure@Configuration@Common@@AAE@ABV?$basic_string@DU?$char_traits@D@std@@V?$allocator@D@2@@std@@@Z 00407b40 f   Configure.obj
 0001:00006d90       ??_D?$basic_ifstream@DU?$char_traits@D@std@@@std@@QAEXXZ 00407d90 f i Configure.obj
 0001:00006dd0       ?getValue@CConfigure@Configuration@Common@@QBE?AV?$basic_string@DU?$char_traits@D@std@@V?$allocator@D@2@@std@@ABV45@@Z 00407dd0 f   Configure.obj
 0001:00006e90       ??A?$map@V?$basic_string@DU?$char_traits@D@std@@V?$allocator@D@2@@std@@V12@U?$less@V?$basic_string@DU?$char_traits@D@std@@V?$allocator@D@2@@std@@@2@V?$allocator@U?$pair@$$CBV?$basic_string@DU?$char_traits@D@std@@V?$allocator@D@2@@std@@V12@@std@@@2@@std@@QAEAAV?$basic_string@DU?$char_traits@D@std@@V?$allocator@D@2@@1@ABV21@@Z 00407e90 f i Configure.obj
 0001:00006ff0       ??A?$map@V?$basic_string@DU?$char_traits@D@std@@V?$allocator@D@2@@std@@PAVCConfigure@Configuration@Common@@U?$less@V?$basic_string@DU?$char_traits@D@std@@V?$allocator@D@2@@std@@@2@V?$allocator@U?$pair@$$CBV?$basic_string@DU?$char_traits@D@std@@V?$allocator@D@2@@std@@PAVCConfigure@Configuration@Common@@@std@@@2@@std@@QAEAAPAVCConfigure@Configuration@Common@@ABV?$basic_string@DU?$char_traits@D@std@@V?$allocator@D@2@@1@@Z 00407ff0 f i Configure.obj
 0001:00007110       ?find@?$_Tree@V?$_Tmap_traits@V?$basic_string@DU?$char_traits@D@std@@V?$allocator@D@2@@std@@PAVCConfigure@Configuration@Common@@U?$less@V?$basic_string@DU?$char_traits@D@std@@V?$allocator@D@2@@std@@@2@V?$allocator@U?$pair@$$CBV?$basic_string@DU?$char_traits@D@std@@V?$allocator@D@2@@std@@PAVCConfigure@Configuration@Common@@@std@@@2@$0A@@std@@@std@@QAE?AV?$_Tree_iterator@V?$_Tree_val@U?$_Tree_simple_types@U?$pair@$$CBV?$basic_string@DU?$char_traits@D@std@@V?$allocator@D@2@@std@@PAVCConfigure@Configuration@Common@@@std@@@std@@@std@@@2@ABV?$basic_string@DU?$char_traits@D@std@@V?$allocator@D@2@@2@@Z 00408110 f i Configure.obj
 0001:00007190       ??0?$basic_ifstream@DU?$char_traits@D@std@@@std@@QAE@PBDHH@Z 00408190 f i Configure.obj
 0001:00007290       ??1?$basic_filebuf@DU?$char_traits@D@std@@@std@@UAE@XZ 00408290 f i Configure.obj
 0001:00007310       ?_Lock@?$basic_filebuf@DU?$char_traits@D@std@@@std@@UAEXXZ 00408310 f i Configure.obj
 0001:00007320       ?_Unlock@?$basic_filebuf@DU?$char_traits@D@std@@@std@@UAEXXZ 00408320 f i Configure.obj
 0001:00007330       ?overflow@?$basic_filebuf@DU?$char_traits@D@std@@@std@@MAEHH@Z 00408330 f i Configure.obj
 0001:00007540       ?pbackfail@?$basic_filebuf@DU?$char_traits@D@std@@@std@@MAEHH@Z 00408540 f i Configure.obj
 0001:000075d0       ?underflow@?$basic_filebuf@DU?$char_traits@D@std@@@std@@MAEHXZ 004085d0 f i Configure.obj
 0001:00007610       ?uflow@?$basic_filebuf@DU?$char_traits@D@std@@@std@@MAEHXZ 00408610 f i Configure.obj
 0001:00007830       ?seekoff@?$basic_filebuf@DU?$char_traits@D@std@@@std@@MAE?AV?$fpos@H@2@_JHH@Z 00408830 f i Configure.obj
 0001:00007940       ?seekpos@?$basic_filebuf@DU?$char_traits@D@std@@@std@@MAE?AV?$fpos@H@2@V32@H@Z 00408940 f i Configure.obj
 0001:00007a30       ?setbuf@?$basic_filebuf@DU?$char_traits@D@std@@@std@@MAEPAV?$basic_streambuf@DU?$char_traits@D@std@@@2@PAD_J@Z 00408a30 f i Configure.obj
 0001:00007ac0       ?sync@?$basic_filebuf@DU?$char_traits@D@std@@@std@@MAEHXZ 00408ac0 f i Configure.obj
 0001:00007af0       ?imbue@?$basic_filebuf@DU?$char_traits@D@std@@@std@@MAEXABVlocale@2@@Z 00408af0 f i Configure.obj
 0001:00007b30       ??_G?$basic_ifstream@DU?$char_traits@D@std@@@std@@UAEPAXI@Z 00408b30 f i Configure.obj
 0001:00007b30       ??_E?$basic_ifstream@DU?$char_traits@D@std@@@std@@UAEPAXI@Z 00408b30 f i * CIL library *:* CIL module *
 0001:00007b90       ??_G?$basic_filebuf@DU?$char_traits@D@std@@@std@@UAEPAXI@Z 00408b90 f i Configure.obj
 0001:00007b90       ??_E?$basic_filebuf@DU?$char_traits@D@std@@@std@@UAEPAXI@Z 00408b90 f i * CIL library *:* CIL module *
 0001:00007bc0       ?append@?$basic_string@DU?$char_traits@D@std@@V?$allocator@D@2@@std@@QAEAAV12@ID@Z 00408bc0 f i Configure.obj
 0001:00007c70       ?open@?$basic_filebuf@DU?$char_traits@D@std@@@std@@QAEPAV12@PBDHH@Z 00408c70 f i Configure.obj
 0001:00007d80       ?_Endwrite@?$basic_filebuf@DU?$char_traits@D@std@@@std@@IAE_NXZ 00408d80 f i Configure.obj
 0001:00007f00       ?_Reset_back@?$basic_filebuf@DU?$char_traits@D@std@@@std@@AAEXXZ 00408f00 f i Configure.obj
 0001:00007f30       ?_Set_back@?$basic_filebuf@DU?$char_traits@D@std@@@std@@AAEXXZ 00408f30 f i Configure.obj
 0001:00007f70       ?assign@?$basic_string@DU?$char_traits@D@std@@V?$allocator@D@2@@std@@QAEAAV12@ID@Z 00408f70 f i Configure.obj
 0001:00008030       ?_Chassign@?$basic_string@DU?$char_traits@D@std@@V?$allocator@D@2@@std@@QAEXIID@Z 00409030 f i Configure.obj
 0001:00008080       ?erase@?$_Tree@V?$_Tmap_traits@V?$basic_string@DU?$char_traits@D@std@@V?$allocator@D@2@@std@@PAVCConfigure@Configuration@Common@@U?$less@V?$basic_string@DU?$char_traits@D@std@@V?$allocator@D@2@@std@@@2@V?$allocator@U?$pair@$$CBV?$basic_string@DU?$char_traits@D@std@@V?$allocator@D@2@@std@@PAVCConfigure@Configuration@Common@@@std@@@2@$0A@@std@@@std@@QAE?AV?$_Tree_iterator@V?$_Tree_val@U?$_Tree_simple_types@U?$pair@$$CBV?$basic_string@DU?$char_traits@D@std@@V?$allocator@D@2@@std@@PAVCConfigure@Configuration@Common@@@std@@@std@@@std@@@2@V?$_Tree_const_iterator@V?$_Tree_val@U?$_Tree_simple_types@U?$pair@$$CBV?$basic_string@DU?$char_traits@D@std@@V?$allocator@D@2@@std@@PAVCConfigure@Configuration@Common@@@std@@@std@@@std@@@2@0@Z 00409080 f i Configure.obj
 0001:00008150       ?_Lbound@?$_Tree@V?$_Tmap_traits@V?$basic_string@DU?$char_traits@D@std@@V?$allocator@D@2@@std@@PAVCConfigure@Configuration@Common@@U?$less@V?$basic_string@DU?$char_traits@D@std@@V?$allocator@D@2@@std@@@2@V?$allocator@U?$pair@$$CBV?$basic_string@DU?$char_traits@D@std@@V?$allocator@D@2@@std@@PAVCConfigure@Configuration@Common@@@std@@@2@$0A@@std@@@std@@IAEPAU?$_Tree_node@U?$pair@$$CBV?$basic_string@DU?$char_traits@D@std@@V?$allocator@D@2@@std@@PAVCConfigure@Configuration@Common@@@std@@PAX@2@ABV?$basic_string@DU?$char_traits@D@std@@V?$allocator@D@2@@2@@Z 00409150 f i Configure.obj
 0001:00008240       ?erase@?$_Tree@V?$_Tmap_traits@V?$basic_string@DU?$char_traits@D@std@@V?$allocator@D@2@@std@@PAVCConfigure@Configuration@Common@@U?$less@V?$basic_string@DU?$char_traits@D@std@@V?$allocator@D@2@@std@@@2@V?$allocator@U?$pair@$$CBV?$basic_string@DU?$char_traits@D@std@@V?$allocator@D@2@@std@@PAVCConfigure@Configuration@Common@@@std@@@2@$0A@@std@@@std@@QAE?AV?$_Tree_iterator@V?$_Tree_val@U?$_Tree_simple_types@U?$pair@$$CBV?$basic_string@DU?$char_traits@D@std@@V?$allocator@D@2@@std@@PAVCConfigure@Configuration@Common@@@std@@@std@@@std@@@2@V?$_Tree_const_iterator@V?$_Tree_val@U?$_Tree_simple_types@U?$pair@$$CBV?$basic_string@DU?$char_traits@D@std@@V?$allocator@D@2@@std@@PAVCConfigure@Configuration@Common@@@std@@@std@@@std@@@2@@Z 00409240 f i Configure.obj
 0001:000084d0       ?_Lrotate@?$_Tree@V?$_Tmap_traits@V?$basic_string@DU?$char_traits@D@std@@V?$allocator@D@2@@std@@PAVCConfigure@Configuration@Common@@U?$less@V?$basic_string@DU?$char_traits@D@std@@V?$allocator@D@2@@std@@@2@V?$allocator@U?$pair@$$CBV?$basic_string@DU?$char_traits@D@std@@V?$allocator@D@2@@std@@PAVCConfigure@Configuration@Common@@@std@@@2@$0A@@std@@@std@@IAEXPAU?$_Tree_node@U?$pair@$$CBV?$basic_string@DU?$char_traits@D@std@@V?$allocator@D@2@@std@@PAVCConfigure@Configuration@Common@@@std@@PAX@2@@Z 004094d0 f i Configure.obj
 0001:00008530       ?_Rrotate@?$_Tree@V?$_Tmap_traits@V?$basic_string@DU?$char_traits@D@std@@V?$allocator@D@2@@std@@PAVCConfigure@Configuration@Common@@U?$less@V?$basic_string@DU?$char_traits@D@std@@V?$allocator@D@2@@std@@@2@V?$allocator@U?$pair@$$CBV?$basic_string@DU?$char_traits@D@std@@V?$allocator@D@2@@std@@PAVCConfigure@Configuration@Common@@@std@@@2@$0A@@std@@@std@@IAEXPAU?$_Tree_node@U?$pair@$$CBV?$basic_string@DU?$char_traits@D@std@@V?$allocator@D@2@@std@@PAVCConfigure@Configuration@Common@@@std@@PAX@2@@Z 00409530 f i Configure.obj
 0001:00008590       ??$?0ABV?$basic_string@DU?$char_traits@D@std@@V?$allocator@D@2@@std@@V01@@?$pair@V?$basic_string@DU?$char_traits@D@std@@V?$allocator@D@2@@std@@V12@@std@@QAE@ABV?$basic_string@DU?$char_traits@D@std@@V?$allocator@D@2@@1@$$QAV21@PAPAX@Z 00409590 f i Configure.obj
 0001:00008620       ??$use_facet@V?$codecvt@DDH@std@@@std@@YAABV?$codecvt@DDH@0@ABVlocale@0@@Z 00409620 f i Configure.obj
 0001:00008710       ??$_Buynode@U?$pair@V?$basic_string@DU?$char_traits@D@std@@V?$allocator@D@2@@std@@PAVCConfigure@Configuration@Common@@@std@@@?$_Tree_buy@U?$pair@$$CBV?$basic_string@DU?$char_traits@D@std@@V?$allocator@D@2@@std@@PAVCConfigure@Configuration@Common@@@std@@V?$allocator@U?$pair@$$CBV?$basic_string@DU?$char_traits@D@std@@V?$allocator@D@2@@std@@PAVCConfigure@Configuration@Common@@@std@@@2@@std@@QAEPAU?$_Tree_node@U?$pair@$$CBV?$basic_string@DU?$char_traits@D@std@@V?$allocator@D@2@@std@@PAVCConfigure@Configuration@Common@@@std@@PAX@1@$$QAU?$pair@V?$basic_string@DU?$char_traits@D@std@@V?$allocator@D@2@@std@@PAVCConfigure@Configuration@Common@@@1@@Z 00409710 f i Configure.obj
 0001:00008740       ??$_Insert_nohint@AAU?$pair@$$CBV?$basic_string@DU?$char_traits@D@std@@V?$allocator@D@2@@std@@PAVCConfigure@Configuration@Common@@@std@@PAU?$_Tree_node@U?$pair@$$CBV?$basic_string@DU?$char_traits@D@std@@V?$allocator@D@2@@std@@PAVCConfigure@Configuration@Common@@@std@@PAX@2@@?$_Tree@V?$_Tmap_traits@V?$basic_string@DU?$char_traits@D@std@@V?$allocator@D@2@@std@@PAVCConfigure@Configuration@Common@@U?$less@V?$basic_string@DU?$char_traits@D@std@@V?$allocator@D@2@@std@@@2@V?$allocator@U?$pair@$$CBV?$basic_string@DU?$char_traits@D@std@@V?$allocator@D@2@@std@@PAVCConfigure@Configuration@Common@@@std@@@2@$0A@@std@@@std@@IAE?AU?$pair@V?$_Tree_iterator@V?$_Tree_val@U?$_Tree_simple_types@U?$pair@$$CBV?$basic_string@DU?$char_traits@D@std@@V?$allocator@D@2@@std@@PAVCConfigure@Configuration@Common@@@std@@@std@@@std@@@std@@_N@1@_NAAU?$pair@$$CBV?$basic_string@DU?$char_traits@D@std@@V?$allocator@D@2@@std@@PAVCConfigure@Configuration@Common@@@1@PAU?$_Tree_node@U?$pair@$$CBV?$basic_string@DU?$char_traits@D@std@@V?$allocator@D@2@@std@@PAVCConfigure@Configuration@Common@@@std@@PAX@1@@Z 00409740 f i Configure.obj
 0001:00008990       ??$getline@DU?$char_traits@D@std@@V?$allocator@D@2@@std@@YAAAV?$basic_istream@DU?$char_traits@D@std@@@0@$$QAV10@AAV?$basic_string@DU?$char_traits@D@std@@V?$allocator@D@2@@0@D@Z 00409990 f i Configure.obj
 0001:00008b00       ??$_Insert_hint@AAU?$pair@$$CBV?$basic_string@DU?$char_traits@D@std@@V?$allocator@D@2@@std@@V12@@std@@PAU?$_Tree_node@U?$pair@$$CBV?$basic_string@DU?$char_traits@D@std@@V?$allocator@D@2@@std@@V12@@std@@PAX@2@@?$_Tree@V?$_Tmap_traits@V?$basic_string@DU?$char_traits@D@std@@V?$allocator@D@2@@std@@V12@U?$less@V?$basic_string@DU?$char_traits@D@std@@V?$allocator@D@2@@std@@@2@V?$allocator@U?$pair@$$CBV?$basic_string@DU?$char_traits@D@std@@V?$allocator@D@2@@std@@V12@@std@@@2@$0A@@std@@@std@@IAE?AV?$_Tree_iterator@V?$_Tree_val@U?$_Tree_simple_types@U?$pair@$$CBV?$basic_string@DU?$char_traits@D@std@@V?$allocator@D@2@@std@@V12@@std@@@std@@@std@@@1@V?$_Tree_const_iterator@V?$_Tree_val@U?$_Tree_simple_types@U?$pair@$$CBV?$basic_string@DU?$char_traits@D@std@@V?$allocator@D@2@@std@@V12@@std@@@std@@@std@@@1@AAU?$pair@$$CBV?$basic_string@DU?$char_traits@D@std@@V?$allocator@D@2@@std@@V12@@1@PAU?$_Tree_node@U?$pair@$$CBV?$basic_string@DU?$char_traits@D@std@@V?$allocator@D@2@@std@@V12@@std@@PAX@1@@Z 00409b00 f i Configure.obj
 0001:00008d30       ??$_Insert_hint@AAU?$pair@$$CBV?$basic_string@DU?$char_traits@D@std@@V?$allocator@D@2@@std@@PAVCConfigure@Configuration@Common@@@std@@PAU?$_Tree_node@U?$pair@$$CBV?$basic_string@DU?$char_traits@D@std@@V?$allocator@D@2@@std@@PAVCConfigure@Configuration@Common@@@std@@PAX@2@@?$_Tree@V?$_Tmap_traits@V?$basic_string@DU?$char_traits@D@std@@V?$allocator@D@2@@std@@PAVCConfigure@Configuration@Common@@U?$less@V?$basic_string@DU?$char_traits@D@std@@V?$allocator@D@2@@std@@@2@V?$allocator@U?$pair@$$CBV?$basic_string@DU?$char_traits@D@std@@V?$allocator@D@2@@std@@PAVCConfigure@Configuration@Common@@@std@@@2@$0A@@std@@@std@@IAE?AV?$_Tree_iterator@V?$_Tree_val@U?$_Tree_simple_types@U?$pair@$$CBV?$basic_string@DU?$char_traits@D@std@@V?$allocator@D@2@@std@@PAVCConfigure@Configuration@Common@@@std@@@std@@@std@@@1@V?$_Tree_const_iterator@V?$_Tree_val@U?$_Tree_simple_types@U?$pair@$$CBV?$basic_string@DU?$char_traits@D@std@@V?$allocator@D@2@@std@@PAVCConfigure@Configuration@Common@@@std@@@std@@@std@@@1@AAU?$pair@$$CBV?$basic_string@DU?$char_traits@D@std@@V?$allocator@D@2@@std@@PAVCConfigure@Configuration@Common@@@1@PAU?$_Tree_node@U?$pair@$$CBV?$basic_string@DU?$char_traits@D@std@@V?$allocator@D@2@@std@@PAVCConfigure@Configuration@Common@@@std@@PAX@1@@Z 00409d30 f i Configure.obj
 0001:00008f40       ?_Buynode0@?$_Tree_buy@U?$pair@$$CBV?$basic_string@DU?$char_traits@D@std@@V?$allocator@D@2@@std@@PAVCConfigure@Configuration@Common@@@std@@V?$allocator@U?$pair@$$CBV?$basic_string@DU?$char_traits@D@std@@V?$allocator@D@2@@std@@PAVCConfigure@Configuration@Common@@@std@@@2@@std@@QAEPAU?$_Tree_node@U?$pair@$$CBV?$basic_string@DU?$char_traits@D@std@@V?$allocator@D@2@@std@@PAVCConfigure@Configuration@Common@@@std@@PAX@2@XZ 00409f40 f i Configure.obj
 0001:00008f80       ??$_Insert_at@AAU?$pair@$$CBV?$basic_string@DU?$char_traits@D@std@@V?$allocator@D@2@@std@@PAVCConfigure@Configuration@Common@@@std@@PAU?$_Tree_node@U?$pair@$$CBV?$basic_string@DU?$char_traits@D@std@@V?$allocator@D@2@@std@@PAVCConfigure@Configuration@Common@@@std@@PAX@2@@?$_Tree@V?$_Tmap_traits@V?$basic_string@DU?$char_traits@D@std@@V?$allocator@D@2@@std@@PAVCConfigure@Configuration@Common@@U?$less@V?$basic_string@DU?$char_traits@D@std@@V?$allocator@D@2@@std@@@2@V?$allocator@U?$pair@$$CBV?$basic_string@DU?$char_traits@D@std@@V?$allocator@D@2@@std@@PAVCConfigure@Configuration@Common@@@std@@@2@$0A@@std@@@std@@IAE?AV?$_Tree_iterator@V?$_Tree_val@U?$_Tree_simple_types@U?$pair@$$CBV?$basic_string@DU?$char_traits@D@std@@V?$allocator@D@2@@std@@PAVCConfigure@Configuration@Common@@@std@@@std@@@std@@@1@_NPAU?$_Tree_node@U?$pair@$$CBV?$basic_string@DU?$char_traits@D@std@@V?$allocator@D@2@@std@@PAVCConfigure@Configuration@Common@@@std@@PAX@1@AAU?$pair@$$CBV?$basic_string@DU?$char_traits@D@std@@V?$allocator@D@2@@std@@PAVCConfigure@Configuration@Common@@@1@1@Z 00409f80 f i Configure.obj
 0001:000091e0       ??$_Insert_nohint@AAU?$pair@$$CBV?$basic_string@DU?$char_traits@D@std@@V?$allocator@D@2@@std@@V12@@std@@PAU?$_Tree_node@U?$pair@$$CBV?$basic_string@DU?$char_traits@D@std@@V?$allocator@D@2@@std@@V12@@std@@PAX@2@@?$_Tree@V?$_Tmap_traits@V?$basic_string@DU?$char_traits@D@std@@V?$allocator@D@2@@std@@V12@U?$less@V?$basic_string@DU?$char_traits@D@std@@V?$allocator@D@2@@std@@@2@V?$allocator@U?$pair@$$CBV?$basic_string@DU?$char_traits@D@std@@V?$allocator@D@2@@std@@V12@@std@@@2@$0A@@std@@@std@@IAE?AU?$pair@V?$_Tree_iterator@V?$_Tree_val@U?$_Tree_simple_types@U?$pair@$$CBV?$basic_string@DU?$char_traits@D@std@@V?$allocator@D@2@@std@@V12@@std@@@std@@@std@@@std@@_N@1@_NAAU?$pair@$$CBV?$basic_string@DU?$char_traits@D@std@@V?$allocator@D@2@@std@@V12@@1@PAU?$_Tree_node@U?$pair@$$CBV?$basic_string@DU?$char_traits@D@std@@V?$allocator@D@2@@std@@V12@@std@@PAX@1@@Z 0040a1e0 f i Configure.obj
 0001:000093e5       ?_Add_vtordisp1@?$basic_istream@DU?$char_traits@D@std@@@std@@$4PPPPPPPM@FI@AEXXZ 0040a3e5 f i Configure.obj
 0001:000093f1       ??_E?$basic_ifstream@DU?$char_traits@D@std@@@std@@$4PPPPPPPM@A@AEPAXI@Z 0040a3f1 f i Configure.obj
 0001:00009400       ??_Gbad_alloc@std@@UAEPAXI@Z 0040a400 f i log.obj
 0001:00009400       ??_Ebad_alloc@std@@UAEPAXI@Z 0040a400 f i * CIL library *:* CIL module *
 0001:00009430       ??1exception@boost@@MAE@XZ 0040a430 f i log.obj
 0001:00009460       ??1clone_base@exception_detail@boost@@UAE@XZ 0040a460 f i log.obj
 0001:00009470       ??_Gclone_base@exception_detail@boost@@UAEPAXI@Z 0040a470 f i log.obj
 0001:00009470       ??_Eclone_base@exception_detail@boost@@UAEPAXI@Z 0040a470 f i * CIL library *:* CIL module *
 0001:000094a0       ?copy_boost_exception@exception_detail@boost@@YAXPAVexception@2@PBV32@@Z 0040a4a0 f i log.obj
 0001:00009580       ?destroy@sp_counted_base@detail@boost@@UAEXXZ 0040a580 f i log.obj
 0001:00009590       ??_Gsp_counted_base@detail@boost@@UAEPAXI@Z 0040a590 f i log.obj
 0001:00009590       ??_Esp_counted_base@detail@boost@@UAEPAXI@Z 0040a590 f i * CIL library *:* CIL module *
 0001:000095c0       ??1shared_count@detail@boost@@QAE@XZ 0040a5c0 f i log.obj
 0001:00009600       ??1?$refcount_ptr@Uerror_info_container@exception_detail@boost@@@exception_detail@boost@@QAE@XZ 0040a600 f i log.obj
 0001:00009620       ?append@?$basic_string@DU?$char_traits@D@std@@V?$allocator@D@2@@std@@QAEAAV12@PBDI@Z 0040a620 f i log.obj
 0001:00009740       ??1sentry@?$basic_ostream@DU?$char_traits@D@std@@@std@@QAE@XZ 0040a740 f i log.obj
 0001:00009770       ?append@?$basic_string@DU?$char_traits@D@std@@V?$allocator@D@2@@std@@QAEAAV12@ABV12@II@Z 0040a770 f i log.obj
 0001:00009860       ?insert@?$basic_string@DU?$char_traits@D@std@@V?$allocator@D@2@@std@@QAEAAV12@IID@Z 0040a860 f i log.obj
 0001:00009960       ??0exception@boost@@QAE@ABV01@@Z 0040a960 f i log.obj
 0001:000099a0       ??0clone_base@exception_detail@boost@@QAE@ABV012@@Z 0040a9a0 f i log.obj
 0001:000099b0       ??0bad_alloc@std@@QAE@ABV01@@Z 0040a9b0 f i log.obj
 0001:000099d0       ??_Eparse_error@rapidxml@@UAEPAXI@Z 0040a9d0 f i * CIL library *:* CIL module *
 0001:000099d0       ??_Gexception@std@@UAEPAXI@Z 0040a9d0 f i Logic:EntityFactory.obj
 0001:000099d0       ??_Gparse_error@rapidxml@@UAEPAXI@Z 0040a9d0 f i XmlParser.obj
 0001:000099d0       ??_Eexception@std@@UAEPAXI@Z 0040a9d0 f i * CIL library *:* CIL module *
 0001:00009a00       ??1parse_error@rapidxml@@UAE@XZ 0040aa00 f i XmlParser.obj
 0001:00009a20       ?loadBluePrints@CXMLParser@XMLParser@Util@Common@@SA?AV?$map@V?$basic_string@DU?$char_traits@D@std@@V?$allocator@D@2@@std@@V?$vector@UTXMLComponent@Blueprints@Data@Common@@V?$allocator@UTXMLComponent@Blueprints@Data@Common@@@std@@@2@U?$less@V?$basic_string@DU?$char_traits@D@std@@V?$allocator@D@2@@std@@@2@V?$allocator@U?$pair@$$CBV?$basic_string@DU?$char_traits@D@std@@V?$allocator@D@2@@std@@V?$vector@UTXMLComponent@Blueprints@Data@Common@@V?$allocator@UTXMLComponent@Blueprints@Data@Common@@@std@@@2@@std@@@2@@std@@ABV?$basic_string@DU?$char_traits@D@std@@V?$allocator@D@2@@6@@Z 0040aa20 f   XmlParser.obj
 0001:0000a7a0       ??1?$map@V?$basic_string@DU?$char_traits@D@std@@V?$allocator@D@2@@std@@V?$vector@UTXMLComponent@Blueprints@Data@Common@@V?$allocator@UTXMLComponent@Blueprints@Data@Common@@@std@@@2@U?$less@V?$basic_string@DU?$char_traits@D@std@@V?$allocator@D@2@@std@@@2@V?$allocator@U?$pair@$$CBV?$basic_string@DU?$char_traits@D@std@@V?$allocator@D@2@@std@@V?$vector@UTXMLComponent@Blueprints@Data@Common@@V?$allocator@UTXMLComponent@Blueprints@Data@Common@@@std@@@2@@std@@@2@@std@@QAE@XZ 0040b7a0 f i XmlParser.obj
 0001:0000a7d0       ??1?$xml_document@D@rapidxml@@QAE@XZ 0040b7d0 f i XmlParser.obj
 0001:0000a7e0       ??1TXMLComponent@Blueprints@Data@Common@@QAE@XZ 0040b7e0 f i XmlParser.obj
 0001:0000a810       ??1?$pair@V?$basic_string@DU?$char_traits@D@std@@V?$allocator@D@2@@std@@V?$vector@UTXMLComponent@Blueprints@Data@Common@@V?$allocator@UTXMLComponent@Blueprints@Data@Common@@@std@@@2@@std@@QAE@XZ 0040b810 f i XmlParser.obj
 0001:0000a880       ??0?$map@V?$basic_string@DU?$char_traits@D@std@@V?$allocator@D@2@@std@@V?$vector@UTXMLComponent@Blueprints@Data@Common@@V?$allocator@UTXMLComponent@Blueprints@Data@Common@@@std@@@2@U?$less@V?$basic_string@DU?$char_traits@D@std@@V?$allocator@D@2@@std@@@2@V?$allocator@U?$pair@$$CBV?$basic_string@DU?$char_traits@D@std@@V?$allocator@D@2@@std@@V?$vector@UTXMLComponent@Blueprints@Data@Common@@V?$allocator@UTXMLComponent@Blueprints@Data@Common@@@std@@@2@@std@@@2@@std@@QAE@$$QAV01@@Z 0040b880 f i XmlParser.obj
 0001:0000a8f0       ??1?$vector@PAVIComponent@Logic@@V?$allocator@PAVIComponent@Logic@@@std@@@std@@QAE@XZ 0040b8f0 f i Logic:Entity.obj
 0001:0000a8f0       ??1?$vector@DV?$allocator@D@std@@@std@@QAE@XZ 0040b8f0 f i XmlParser.obj
 0001:0000a8f0       ?_Tidy@?$vector@DV?$allocator@D@std@@@std@@IAEXXZ 0040b8f0 f i XmlParser.obj
 0001:0000a920       ??1?$vector@UTXMLComponent@Blueprints@Data@Common@@V?$allocator@UTXMLComponent@Blueprints@Data@Common@@@std@@@std@@QAE@XZ 0040b920 f i XmlParser.obj
 0001:0000a920       ?_Tidy@?$vector@UTXMLComponent@Blueprints@Data@Common@@V?$allocator@UTXMLComponent@Blueprints@Data@Common@@@std@@@std@@IAEXXZ 0040b920 f i XmlParser.obj
 0001:0000a960       ??1?$_List_buy@V?$basic_string@DU?$char_traits@D@std@@V?$allocator@D@2@@std@@V?$allocator@V?$basic_string@DU?$char_traits@D@std@@V?$allocator@D@2@@std@@@2@@std@@QAE@XZ 0040b960 f i Logic:EntityFactory.obj
 0001:0000a960       ??1?$_List_buy@PAVCMapEntity@Map@@V?$allocator@PAVCMapEntity@Map@@@std@@@std@@QAE@XZ 0040b960 f i Logic:Scene.obj
 0001:0000a960       ??1?$_Tree_comp@$0A@V?$_Tmap_traits@V?$basic_string@DU?$char_traits@D@std@@V?$allocator@D@2@@std@@V?$vector@UTXMLComponent@Blueprints@Data@Common@@V?$allocator@UTXMLComponent@Blueprints@Data@Common@@@std@@@2@U?$less@V?$basic_string@DU?$char_traits@D@std@@V?$allocator@D@2@@std@@@2@V?$allocator@U?$pair@$$CBV?$basic_string@DU?$char_traits@D@std@@V?$allocator@D@2@@std@@V?$vector@UTXMLComponent@Blueprints@Data@Common@@V?$allocator@UTXMLComponent@Blueprints@Data@Common@@@std@@@2@@std@@@2@$0A@@std@@@std@@QAE@XZ 0040b960 f i XmlParser.obj
 0001:0000a970       ?clear@?$memory_pool@D@rapidxml@@QAEXXZ 0040b970 f i XmlParser.obj
 0001:0000a9d0       ?_Reserve@?$vector@DV?$allocator@D@std@@@std@@IAEXI@Z 0040b9d0 f i XmlParser.obj
 0001:0000aa30       ?erase@?$_Tree@V?$_Tmap_traits@V?$basic_string@DU?$char_traits@D@std@@V?$allocator@D@2@@std@@V?$vector@UTXMLComponent@Blueprints@Data@Common@@V?$allocator@UTXMLComponent@Blueprints@Data@Common@@@std@@@2@U?$less@V?$basic_string@DU?$char_traits@D@std@@V?$allocator@D@2@@std@@@2@V?$allocator@U?$pair@$$CBV?$basic_string@DU?$char_traits@D@std@@V?$allocator@D@2@@std@@V?$vector@UTXMLComponent@Blueprints@Data@Common@@V?$allocator@UTXMLComponent@Blueprints@Data@Common@@@std@@@2@@std@@@2@$0A@@std@@@std@@QAE?AV?$_Tree_iterator@V?$_Tree_val@U?$_Tree_simple_types@U?$pair@$$CBV?$basic_string@DU?$char_traits@D@std@@V?$allocator@D@2@@std@@V?$vector@UTXMLComponent@Blueprints@Data@Common@@V?$allocator@UTXMLComponent@Blueprints@Data@Common@@@std@@@2@@std@@@std@@@std@@@2@V?$_Tree_const_iterator@V?$_Tree_val@U?$_Tree_simple_types@U?$pair@$$CBV?$basic_string@DU?$char_traits@D@std@@V?$allocator@D@2@@std@@V?$vector@UTXMLComponent@Blueprints@Data@Common@@V?$allocator@UTXMLComponent@Blueprints@Data@Common@@@std@@@2@@std@@@std@@@std@@@2@0@Z 0040ba30 f i XmlParser.obj
 0001:0000aaf0       ?_Reallocate@?$vector@DV?$allocator@D@std@@@std@@IAEXI@Z 0040baf0 f i XmlParser.obj
 0001:0000ab60       ?_Reallocate@?$vector@UTXMLComponent@Blueprints@Data@Common@@V?$allocator@UTXMLComponent@Blueprints@Data@Common@@@std@@@std@@IAEXI@Z 0040bb60 f i XmlParser.obj
 0001:0000ac40       ?erase@?$_Tree@V?$_Tmap_traits@V?$basic_string@DU?$char_traits@D@std@@V?$allocator@D@2@@std@@V?$vector@UTXMLComponent@Blueprints@Data@Common@@V?$allocator@UTXMLComponent@Blueprints@Data@Common@@@std@@@2@U?$less@V?$basic_string@DU?$char_traits@D@std@@V?$allocator@D@2@@std@@@2@V?$allocator@U?$pair@$$CBV?$basic_string@DU?$char_traits@D@std@@V?$allocator@D@2@@std@@V?$vector@UTXMLComponent@Blueprints@Data@Common@@V?$allocator@UTXMLComponent@Blueprints@Data@Common@@@std@@@2@@std@@@2@$0A@@std@@@std@@QAE?AV?$_Tree_iterator@V?$_Tree_val@U?$_Tree_simple_types@U?$pair@$$CBV?$basic_string@DU?$char_traits@D@std@@V?$allocator@D@2@@std@@V?$vector@UTXMLComponent@Blueprints@Data@Common@@V?$allocator@UTXMLComponent@Blueprints@Data@Common@@@std@@@2@@std@@@std@@@std@@@2@V?$_Tree_const_iterator@V?$_Tree_val@U?$_Tree_simple_types@U?$pair@$$CBV?$basic_string@DU?$char_traits@D@std@@V?$allocator@D@2@@std@@V?$vector@UTXMLComponent@Blueprints@Data@Common@@V?$allocator@UTXMLComponent@Blueprints@Data@Common@@@std@@@2@@std@@@std@@@std@@@2@@Z 0040bc40 f i XmlParser.obj
 0001:0000af40       ?_Erase@?$_Tree@V?$_Tmap_traits@V?$basic_string@DU?$char_traits@D@std@@V?$allocator@D@2@@std@@V?$vector@UTXMLComponent@Blueprints@Data@Common@@V?$allocator@UTXMLComponent@Blueprints@Data@Common@@@std@@@2@U?$less@V?$basic_string@DU?$char_traits@D@std@@V?$allocator@D@2@@std@@@2@V?$allocator@U?$pair@$$CBV?$basic_string@DU?$char_traits@D@std@@V?$allocator@D@2@@std@@V?$vector@UTXMLComponent@Blueprints@Data@Common@@V?$allocator@UTXMLComponent@Blueprints@Data@Common@@@std@@@2@@std@@@2@$0A@@std@@@std@@IAEXPAU?$_Tree_node@U?$pair@$$CBV?$basic_string@DU?$char_traits@D@std@@V?$allocator@D@2@@std@@V?$vector@UTXMLComponent@Blueprints@Data@Common@@V?$allocator@UTXMLComponent@Blueprints@Data@Common@@@std@@@2@@std@@PAX@2@@Z 0040bf40 f i XmlParser.obj
 0001:0000b020       ?_Buyheadnode@?$_Tree_alloc@$0A@U?$_Tree_base_types@U?$pair@$$CBV?$basic_string@DU?$char_traits@D@std@@V?$allocator@D@2@@std@@V?$vector@UTXMLComponent@Blueprints@Data@Common@@V?$allocator@UTXMLComponent@Blueprints@Data@Common@@@std@@@2@@std@@V?$allocator@U?$pair@$$CBV?$basic_string@DU?$char_traits@D@std@@V?$allocator@D@2@@std@@V?$vector@UTXMLComponent@Blueprints@Data@Common@@V?$allocator@UTXMLComponent@Blueprints@Data@Common@@@std@@@2@@std@@@2@@std@@@std@@QAEPAU?$_Tree_node@U?$pair@$$CBV?$basic_string@DU?$char_traits@D@std@@V?$allocator@D@2@@std@@V?$vector@UTXMLComponent@Blueprints@Data@Common@@V?$allocator@UTXMLComponent@Blueprints@Data@Common@@@std@@@2@@std@@PAX@2@XZ 0040c020 f i XmlParser.obj
 0001:0000b050       ??$parse@$0A@@?$xml_document@D@rapidxml@@QAEXPAD@Z 0040c050 f i XmlParser.obj
 0001:0000b160       ??0parse_error@rapidxml@@QAE@ABV01@@Z 0040c160 f i XmlParser.obj
 0001:0000b190       ??0?$vector@UTXMLComponent@Blueprints@Data@Common@@V?$allocator@UTXMLComponent@Blueprints@Data@Common@@@std@@@std@@QAE@ABV01@@Z 0040c190 f i XmlParser.obj
 0001:0000b230       ?_Buy@?$vector@UTXMLComponent@Blueprints@Data@Common@@V?$allocator@UTXMLComponent@Blueprints@Data@Common@@@std@@@std@@IAE_NI@Z 0040c230 f i XmlParser.obj
 0001:0000b2a0       ??$_Construct@V?$_String_iterator@V?$_String_val@U?$_Simple_types@D@std@@@std@@@std@@@?$vector@DV?$allocator@D@std@@@std@@QAEXV?$_String_iterator@V?$_String_val@U?$_Simple_types@D@std@@@std@@@1@0@Z 0040c2a0 f i XmlParser.obj
 0001:0000b310       ??$parse_node@$0A@@?$xml_document@D@rapidxml@@AAEPAV?$xml_node@D@1@AAPAD@Z 0040c310 f i XmlParser.obj
 0001:0000b490       ??$_Buynode@U?$pair@V?$basic_string@DU?$char_traits@D@std@@V?$allocator@D@2@@std@@V?$vector@UTXMLComponent@Blueprints@Data@Common@@V?$allocator@UTXMLComponent@Blueprints@Data@Common@@@std@@@2@@std@@@?$_Tree_buy@U?$pair@$$CBV?$basic_string@DU?$char_traits@D@std@@V?$allocator@D@2@@std@@V?$vector@UTXMLComponent@Blueprints@Data@Common@@V?$allocator@UTXMLComponent@Blueprints@Data@Common@@@std@@@2@@std@@V?$allocator@U?$pair@$$CBV?$basic_string@DU?$char_traits@D@std@@V?$allocator@D@2@@std@@V?$vector@UTXMLComponent@Blueprints@Data@Common@@V?$allocator@UTXMLComponent@Blueprints@Data@Common@@@std@@@2@@std@@@2@@std@@QAEPAU?$_Tree_node@U?$pair@$$CBV?$basic_string@DU?$char_traits@D@std@@V?$allocator@D@2@@std@@V?$vector@UTXMLComponent@Blueprints@Data@Common@@V?$allocator@UTXMLComponent@Blueprints@Data@Common@@@std@@@2@@std@@PAX@1@$$QAU?$pair@V?$basic_string@DU?$char_traits@D@std@@V?$allocator@D@2@@std@@V?$vector@UTXMLComponent@Blueprints@Data@Common@@V?$allocator@UTXMLComponent@Blueprints@Data@Common@@@std@@@2@@1@@Z 0040c490 f i XmlParser.obj
 0001:0000b4c0       ??$_Insert_nohint@AAU?$pair@$$CBV?$basic_string@DU?$char_traits@D@std@@V?$allocator@D@2@@std@@V?$vector@UTXMLComponent@Blueprints@Data@Common@@V?$allocator@UTXMLComponent@Blueprints@Data@Common@@@std@@@2@@std@@PAU?$_Tree_node@U?$pair@$$CBV?$basic_string@DU?$char_traits@D@std@@V?$allocator@D@2@@std@@V?$vector@UTXMLComponent@Blueprints@Data@Common@@V?$allocator@UTXMLComponent@Blueprints@Data@Common@@@std@@@2@@std@@PAX@2@@?$_Tree@V?$_Tmap_traits@V?$basic_string@DU?$char_traits@D@std@@V?$allocator@D@2@@std@@V?$vector@UTXMLComponent@Blueprints@Data@Common@@V?$allocator@UTXMLComponent@Blueprints@Data@Common@@@std@@@2@U?$less@V?$basic_string@DU?$char_traits@D@std@@V?$allocator@D@2@@std@@@2@V?$allocator@U?$pair@$$CBV?$basic_string@DU?$char_traits@D@std@@V?$allocator@D@2@@std@@V?$vector@UTXMLComponent@Blueprints@Data@Common@@V?$allocator@UTXMLComponent@Blueprints@Data@Common@@@std@@@2@@std@@@2@$0A@@std@@@std@@IAE?AU?$pair@V?$_Tree_iterator@V?$_Tree_val@U?$_Tree_simple_types@U?$pair@$$CBV?$basic_string@DU?$char_traits@D@std@@V?$allocator@D@2@@std@@V?$vector@UTXMLComponent@Blueprints@Data@Common@@V?$allocator@UTXMLComponent@Blueprints@Data@Common@@@std@@@2@@std@@@std@@@std@@@std@@_N@1@_NAAU?$pair@$$CBV?$basic_string@DU?$char_traits@D@std@@V?$allocator@D@2@@std@@V?$vector@UTXMLComponent@Blueprints@Data@Common@@V?$allocator@UTXMLComponent@Blueprints@Data@Common@@@std@@@2@@1@PAU?$_Tree_node@U?$pair@$$CBV?$basic_string@DU?$char_traits@D@std@@V?$allocator@D@2@@std@@V?$vector@UTXMLComponent@Blueprints@Data@Common@@V?$allocator@UTXMLComponent@Blueprints@Data@Common@@@std@@@2@@std@@PAX@1@@Z 0040c4c0 f i XmlParser.obj
 0001:0000b6d0       ??$_Destroy_range@U?$_Wrap_alloc@V?$allocator@UTXMLComponent@Blueprints@Data@Common@@@std@@@std@@@std@@YAXPAUTXMLComponent@Blueprints@Data@Common@@0AAU?$_Wrap_alloc@V?$allocator@UTXMLComponent@Blueprints@Data@Common@@@std@@@0@U_Nonscalar_ptr_iterator_tag@0@@Z 0040c6d0 f i XmlParser.obj
 0001:0000b710       ?_Destroy_if_not_nil@?$_Tree@V?$_Tmap_traits@V?$basic_string@DU?$char_traits@D@std@@V?$allocator@D@2@@std@@V?$vector@UTXMLComponent@Blueprints@Data@Common@@V?$allocator@UTXMLComponent@Blueprints@Data@Common@@@std@@@2@U?$less@V?$basic_string@DU?$char_traits@D@std@@V?$allocator@D@2@@std@@@2@V?$allocator@U?$pair@$$CBV?$basic_string@DU?$char_traits@D@std@@V?$allocator@D@2@@std@@V?$vector@UTXMLComponent@Blueprints@Data@Common@@V?$allocator@UTXMLComponent@Blueprints@Data@Common@@@std@@@2@@std@@@2@$0A@@std@@@std@@IAEXPAU?$_Tree_node@U?$pair@$$CBV?$basic_string@DU?$char_traits@D@std@@V?$allocator@D@2@@std@@V?$vector@UTXMLComponent@Blueprints@Data@Common@@V?$allocator@UTXMLComponent@Blueprints@Data@Common@@@std@@@2@@std@@PAX@2@@Z 0040c710 f i XmlParser.obj
 0001:0000b780       ?_Buynode0@?$_Tree_buy@U?$pair@$$CBV?$basic_string@DU?$char_traits@D@std@@V?$allocator@D@2@@std@@V?$vector@UTXMLComponent@Blueprints@Data@Common@@V?$allocator@UTXMLComponent@Blueprints@Data@Common@@@std@@@2@@std@@V?$allocator@U?$pair@$$CBV?$basic_string@DU?$char_traits@D@std@@V?$allocator@D@2@@std@@V?$vector@UTXMLComponent@Blueprints@Data@Common@@V?$allocator@UTXMLComponent@Blueprints@Data@Common@@@std@@@2@@std@@@2@@std@@QAEPAU?$_Tree_node@U?$pair@$$CBV?$basic_string@DU?$char_traits@D@std@@V?$allocator@D@2@@std@@V?$vector@UTXMLComponent@Blueprints@Data@Common@@V?$allocator@UTXMLComponent@Blueprints@Data@Common@@@std@@@2@@std@@PAX@2@XZ 0040c780 f i XmlParser.obj
 0001:0000b7c0       ??$parse_element@$0A@@?$xml_document@D@rapidxml@@AAEPAV?$xml_node@D@1@AAPAD@Z 0040c7c0 f i XmlParser.obj
 0001:0000b8f0       ??$parse_xml_declaration@$0A@@?$xml_document@D@rapidxml@@AAEPAV?$xml_node@D@1@AAPAD@Z 0040c8f0 f i XmlParser.obj
 0001:0000b8f0       ??$parse_pi@$0A@@?$xml_document@D@rapidxml@@AAEPAV?$xml_node@D@1@AAPAD@Z 0040c8f0 f i XmlParser.obj
 0001:0000b950       ??$parse_comment@$0A@@?$xml_document@D@rapidxml@@AAEPAV?$xml_node@D@1@AAPAD@Z 0040c950 f i XmlParser.obj
 0001:0000b9c0       ??$parse_cdata@$0A@@?$xml_document@D@rapidxml@@AAEPAV?$xml_node@D@1@AAPAD@Z 0040c9c0 f i XmlParser.obj
 0001:0000ba40       ??$parse_doctype@$0A@@?$xml_document@D@rapidxml@@AAEPAV?$xml_node@D@1@AAPAD@Z 0040ca40 f i XmlParser.obj
 0001:0000bb00       ??$_Insert_at@AAU?$pair@$$CBV?$basic_string@DU?$char_traits@D@std@@V?$allocator@D@2@@std@@V?$vector@UTXMLComponent@Blueprints@Data@Common@@V?$allocator@UTXMLComponent@Blueprints@Data@Common@@@std@@@2@@std@@PAU?$_Tree_node@U?$pair@$$CBV?$basic_string@DU?$char_traits@D@std@@V?$allocator@D@2@@std@@V?$vector@UTXMLComponent@Blueprints@Data@Common@@V?$allocator@UTXMLComponent@Blueprints@Data@Common@@@std@@@2@@std@@PAX@2@@?$_Tree@V?$_Tmap_traits@V?$basic_string@DU?$char_traits@D@std@@V?$allocator@D@2@@std@@V?$vector@UTXMLComponent@Blueprints@Data@Common@@V?$allocator@UTXMLComponent@Blueprints@Data@Common@@@std@@@2@U?$less@V?$basic_string@DU?$char_traits@D@std@@V?$allocator@D@2@@std@@@2@V?$allocator@U?$pair@$$CBV?$basic_string@DU?$char_traits@D@std@@V?$allocator@D@2@@std@@V?$vector@UTXMLComponent@Blueprints@Data@Common@@V?$allocator@UTXMLComponent@Blueprints@Data@Common@@@std@@@2@@std@@@2@$0A@@std@@@std@@IAE?AV?$_Tree_iterator@V?$_Tree_val@U?$_Tree_simple_types@U?$pair@$$CBV?$basic_string@DU?$char_traits@D@std@@V?$allocator@D@2@@std@@V?$vector@UTXMLComponent@Blueprints@Data@Common@@V?$allocator@UTXMLComponent@Blueprints@Data@Common@@@std@@@2@@std@@@std@@@std@@@1@_NPAU?$_Tree_node@U?$pair@$$CBV?$basic_string@DU?$char_traits@D@std@@V?$allocator@D@2@@std@@V?$vector@UTXMLComponent@Blueprints@Data@Common@@V?$allocator@UTXMLComponent@Blueprints@Data@Common@@@std@@@2@@std@@PAX@1@AAU?$pair@$$CBV?$basic_string@DU?$char_traits@D@std@@V?$allocator@D@2@@std@@V?$vector@UTXMLComponent@Blueprints@Data@Common@@V?$allocator@UTXMLComponent@Blueprints@Data@Common@@@std@@@2@@1@1@Z 0040cb00 f i XmlParser.obj
 0001:0000bd10       ??$destroy@UTXMLComponent@Blueprints@Data@Common@@@?$_Wrap_alloc@V?$allocator@UTXMLComponent@Blueprints@Data@Common@@@std@@@std@@QAEXPAUTXMLComponent@Blueprints@Data@Common@@@Z 0040cd10 f i XmlParser.obj
 0001:0000bd40       ??$_Uninit_move@PAUTXMLComponent@Blueprints@Data@Common@@PAU1234@V?$allocator@UTXMLComponent@Blueprints@Data@Common@@@std@@U1234@@std@@YAPAUTXMLComponent@Blueprints@Data@Common@@PAU1234@00AAU?$_Wrap_alloc@V?$allocator@UTXMLComponent@Blueprints@Data@Common@@@std@@@0@0U_Nonscalar_ptr_iterator_tag@0@@Z 0040cd40 f i XmlParser.obj
 0001:0000be00       ?allocate_node@?$memory_pool@D@rapidxml@@QAEPAV?$xml_node@D@2@W4node_type@2@PBD1II@Z 0040ce00 f i XmlParser.obj
 0001:0000bea0       ??$_Insert@V?$_String_iterator@V?$_String_val@U?$_Simple_types@D@std@@@std@@@std@@@?$vector@DV?$allocator@D@std@@@std@@QAEXV?$_Vector_const_iterator@V?$_Vector_val@U?$_Simple_types@D@std@@@std@@@1@V?$_String_iterator@V?$_String_val@U?$_Simple_types@D@std@@@std@@@1@1Uforward_iterator_tag@1@@Z 0040cea0 f i XmlParser.obj
 0001:0000bfe0       ??$parse_node_attributes@$0A@@?$xml_document@D@rapidxml@@AAEXAAPADPAV?$xml_node@D@1@@Z 0040cfe0 f i XmlParser.obj
 0001:0000c2a0       ??$parse_node_contents@$0A@@?$xml_document@D@rapidxml@@AAEXAAPADPAV?$xml_node@D@1@@Z 0040d2a0 f i XmlParser.obj
 0001:0000c470       ??$_Uninit_copy@V?$_Vector_const_iterator@V?$_Vector_val@U?$_Simple_types@UTXMLComponent@Blueprints@Data@Common@@@std@@@std@@@std@@PAUTXMLComponent@Blueprints@Data@Common@@V?$allocator@UTXMLComponent@Blueprints@Data@Common@@@2@@std@@YAPAUTXMLComponent@Blueprints@Data@Common@@V?$_Vector_const_iterator@V?$_Vector_val@U?$_Simple_types@UTXMLComponent@Blueprints@Data@Common@@@std@@@std@@@0@0PAU1234@AAU?$_Wrap_alloc@V?$allocator@UTXMLComponent@Blueprints@Data@Common@@@std@@@0@U_Nonscalar_ptr_iterator_tag@0@@Z 0040d470 f i XmlParser.obj
 0001:0000c540       ??$skip_and_expand_character_refs@U?$attribute_value_pred@$0CH@@?$xml_document@D@rapidxml@@U?$attribute_value_pure_pred@$0CH@@23@$0A@@?$xml_document@D@rapidxml@@CAPADAAPAD@Z 0040d540 f i XmlParser.obj
 0001:0000c790       ??$skip_and_expand_character_refs@U?$attribute_value_pred@$0CC@@?$xml_document@D@rapidxml@@U?$attribute_value_pure_pred@$0CC@@23@$0A@@?$xml_document@D@rapidxml@@CAPADAAPAD@Z 0040d790 f i XmlParser.obj
 0001:0000c9e0       ??$insert_coded_character@$0A@@?$xml_document@D@rapidxml@@CAXAAPADK@Z 0040d9e0 f i XmlParser.obj
 0001:0000cac0       ??$skip_and_expand_character_refs@Utext_pred@?$xml_document@D@rapidxml@@Utext_pure_no_ws_pred@23@$0A@@?$xml_document@D@rapidxml@@CAPADAAPAD@Z 0040dac0 f i XmlParser.obj
 0001:0000cd10       ??$?0V?$basic_string@DU?$char_traits@D@std@@V?$allocator@D@2@@std@@V?$vector@UTXMLComponent@Blueprints@Data@Common@@V?$allocator@UTXMLComponent@Blueprints@Data@Common@@@std@@@1@@?$pair@$$CBV?$basic_string@DU?$char_traits@D@std@@V?$allocator@D@2@@std@@V?$vector@UTXMLComponent@Blueprints@Data@Common@@V?$allocator@UTXMLComponent@Blueprints@Data@Common@@@std@@@2@@std@@QAE@$$QAU?$pair@V?$basic_string@DU?$char_traits@D@std@@V?$allocator@D@2@@std@@V?$vector@UTXMLComponent@Blueprints@Data@Common@@V?$allocator@UTXMLComponent@Blueprints@Data@Common@@@std@@@2@@1@PAPAX@Z 0040dd10 f i XmlParser.obj
 0001:0000cdb0       ??$_Uninit_copy@V?$_String_iterator@V?$_String_val@U?$_Simple_types@D@std@@@std@@@std@@PADV?$allocator@D@2@@std@@YAPADV?$_String_iterator@V?$_String_val@U?$_Simple_types@D@std@@@std@@@0@0PADAAU?$_Wrap_alloc@V?$allocator@D@std@@@0@U_Nonscalar_ptr_iterator_tag@0@@Z 0040ddb0 f i XmlParser.obj
 0001:0000cde0       ??$_Rotate@PADHD@std@@YAXPAD00PAH0@Z 0040dde0 f i XmlParser.obj
 0001:0000ceb0       ??1MouseListener@OIS@@UAE@XZ 0040deb0 f i GUI:InputManager.obj
 0001:0000cec0       ??_GMouseListener@OIS@@UAEPAXI@Z 0040dec0 f i GUI:InputManager.obj
 0001:0000cec0       ??_EMouseListener@OIS@@UAEPAXI@Z 0040dec0 f i * CIL library *:* CIL module *
 0001:0000cef0       ??1KeyListener@OIS@@UAE@XZ 0040def0 f i GUI:InputManager.obj
 0001:0000cf00       ??_EKeyListener@OIS@@UAEPAXI@Z 0040df00 f i * CIL library *:* CIL module *
 0001:0000cf00       ??_GKeyListener@OIS@@UAEPAXI@Z 0040df00 f i GUI:InputManager.obj
 0001:0000cf30       ??0CInputManager@GUI@@AAE@XZ 0040df30 f   GUI:InputManager.obj
 0001:0000d030       ??_GCInputManager@GUI@@EAEPAXI@Z 0040e030 f i GUI:InputManager.obj
 0001:0000d030       ??_ECInputManager@GUI@@EAEPAXI@Z 0040e030 f i * CIL library *:* CIL module *
 0001:0000d060       ??1CInputManager@GUI@@EAE@XZ 0040e060 f   GUI:InputManager.obj
 0001:0000d100       ?init@CInputManager@GUI@@SA_NPAVInputManager@OIS@@PAVKeyboard@4@PAVMouse@4@@Z 0040e100 f   GUI:InputManager.obj
 0001:0000d1d0       ?addKeyListener@CInputManager@GUI@@QAEXPAVCkeyBoardListener@InputListener@2@@Z 0040e1d0 f   GUI:InputManager.obj
 0001:0000d220       ?addMouseListener@CInputManager@GUI@@QAEXPAVCMouseListener@InputListener@2@@Z 0040e220 f   GUI:InputManager.obj
 0001:0000d270       ?removeKeyListener@CInputManager@GUI@@QAEXPAVCkeyBoardListener@InputListener@2@@Z 0040e270 f   GUI:InputManager.obj
 0001:0000d2c0       ?removeMouseListener@CInputManager@GUI@@QAEXPAVCMouseListener@InputListener@2@@Z 0040e2c0 f   GUI:InputManager.obj
 0001:0000d310       ?ois2ttg@CInputManager@GUI@@AAE?AUTKey@Input@Common@@ABVKeyEvent@OIS@@@Z 0040e310 f   GUI:InputManager.obj
 0001:0000d4b0       ?keyPressed@CInputManager@GUI@@EAE_NABVKeyEvent@OIS@@@Z 0040e4b0 f   GUI:InputManager.obj
 0001:0000d510       ?keyReleased@CInputManager@GUI@@EAE_NABVKeyEvent@OIS@@@Z 0040e510 f   GUI:InputManager.obj
 0001:0000d570       ?mouseMoved@CInputManager@GUI@@EAE_NABVMouseEvent@OIS@@@Z 0040e570 f   GUI:InputManager.obj
 0001:0000d670       ?mousePressed@CInputManager@GUI@@EAE_NABVMouseEvent@OIS@@W4MouseButtonID@4@@Z 0040e670 f   GUI:InputManager.obj
 0001:0000d770       ?mouseReleased@CInputManager@GUI@@EAE_NABVMouseEvent@OIS@@W4MouseButtonID@4@@Z 0040e770 f   GUI:InputManager.obj
 0001:0000d870       ??1?$list@PAVCEntity@Logic@@V?$allocator@PAVCEntity@Logic@@@std@@@std@@QAE@XZ 0040e870 f i Logic:EntityFactory.obj
 0001:0000d870       ??1?$list@PAVCkeyBoardListener@InputListener@GUI@@V?$allocator@PAVCkeyBoardListener@InputListener@GUI@@@std@@@std@@QAE@XZ 0040e870 f i GUI:InputManager.obj
 0001:0000d870       ??1?$list@PAVSceneNode@Ogre@@V?$allocator@PAVSceneNode@Ogre@@@std@@@std@@QAE@XZ 0040e870 f i Logic:Scene.obj
 0001:0000d870       ??1?$list@PAVCMapEntity@Map@@V?$allocator@PAVCMapEntity@Map@@@std@@@std@@QAE@XZ 0040e870 f i Logic:Scene.obj
 0001:0000d8b0       ?_Buynode0@?$_List_alloc@$0A@U?$_List_base_types@PAVCMouseListener@InputListener@GUI@@V?$allocator@PAVCMouseListener@InputListener@GUI@@@std@@@std@@@std@@QAEPAU?$_List_node@PAVCMouseListener@InputListener@GUI@@PAX@2@PAU32@0@Z 0040e8b0 f i GUI:InputManager.obj
 0001:0000d8b0       ?_Buynode0@?$_List_alloc@$0A@U?$_List_base_types@PAVCMapEntity@Map@@V?$allocator@PAVCMapEntity@Map@@@std@@@std@@@std@@QAEPAU?$_List_node@PAVCMapEntity@Map@@PAX@2@PAU32@0@Z 0040e8b0 f i Logic:Scene.obj
 0001:0000d8b0       ?_Buynode0@?$_List_alloc@$0A@U?$_List_base_types@PAVCkeyBoardListener@InputListener@GUI@@V?$allocator@PAVCkeyBoardListener@InputListener@GUI@@@std@@@std@@@std@@QAEPAU?$_List_node@PAVCkeyBoardListener@InputListener@GUI@@PAX@2@PAU32@0@Z 0040e8b0 f i GUI:InputManager.obj
 0001:0000d8f0       ??$_Buynode@ABQAVCkeyBoardListener@InputListener@GUI@@@?$_List_buy@PAVCkeyBoardListener@InputListener@GUI@@V?$allocator@PAVCkeyBoardListener@InputListener@GUI@@@std@@@std@@QAEPAU?$_List_node@PAVCkeyBoardListener@InputListener@GUI@@PAX@1@PAU21@0ABQAVCkeyBoardListener@InputListener@GUI@@@Z 0040e8f0 f i GUI:InputManager.obj
 0001:0000d8f0       ??$_Buynode@ABQAVCMouseListener@InputListener@GUI@@@?$_List_buy@PAVCMouseListener@InputListener@GUI@@V?$allocator@PAVCMouseListener@InputListener@GUI@@@std@@@std@@QAEPAU?$_List_node@PAVCMouseListener@InputListener@GUI@@PAX@1@PAU21@0ABQAVCMouseListener@InputListener@GUI@@@Z 0040e8f0 f i GUI:InputManager.obj
 0001:0000d8f0       ??$_Buynode@ABQAVCMapEntity@Map@@@?$_List_buy@PAVCMapEntity@Map@@V?$allocator@PAVCMapEntity@Map@@@std@@@std@@QAEPAU?$_List_node@PAVCMapEntity@Map@@PAX@1@PAU21@0ABQAVCMapEntity@Map@@@Z 0040e8f0 f i Logic:Scene.obj
 0001:0000d910       ??_ECInputManager@GUI@@G3AEPAXI@Z 0040e910 f i GUI:InputManager.obj
 0001:0000d920       ?init@CGUI@GUI@@SA_NPAVSystem@CEGUI@@@Z 0040e920 f   GUI:GUI.obj
 0001:0000d970       ?release@CGUI@GUI@@SAXXZ   0040e970 f   GUI:GUI.obj
 0001:0000d9f0       ?open@CGUI@GUI@@AAE_NPAVSystem@CEGUI@@@Z 0040e9f0 f   GUI:GUI.obj
 0001:0000dd40       ?keyPressed@CGUI@GUI@@UAE_NUTKey@Input@Common@@@Z 0040ed40 f   GUI:GUI.obj
 0001:0000dd80       ?keyReleased@CGUI@GUI@@UAE_NUTKey@Input@Common@@@Z 0040ed80 f   GUI:GUI.obj
 0001:0000dda0       ?mouseMoved@CGUI@GUI@@UAE_NABVCMouseState@InputListener@2@@Z 0040eda0 f   GUI:GUI.obj
 0001:0000dde0       ?mousePressed@CGUI@GUI@@UAE_NABVCMouseState@InputListener@2@@Z 0040ede0 f   GUI:GUI.obj
 0001:0000de40       ?mouseReleased@CGUI@GUI@@UAE_NABVCMouseState@InputListener@2@@Z 0040ee40 f   GUI:GUI.obj
 0001:0000dea0       ??0CPlayerController@Controller@GUI@@QAE@XZ 0040eea0 f   GUI:PlayerController.obj
 0001:0000df30       ??1?$map@W4TKeyID@Key@Input@Common@@PAVICommand@Command@Controller@GUI@@U?$less@W4TKeyID@Key@Input@Common@@@std@@V?$allocator@U?$pair@$$CBW4TKeyID@Key@Input@Common@@PAVICommand@Command@Controller@GUI@@@std@@@std@@@std@@QAE@XZ 0040ef30 f i GUI:PlayerController.obj
 0001:0000df30       ??1?$map@IPAVCEntity@Logic@@U?$less@I@std@@V?$allocator@U?$pair@$$CBIPAVCEntity@Logic@@@std@@@4@@std@@QAE@XZ 0040ef30 f i Logic:Scene.obj
 0001:0000df60       ??1CPlayerController@Controller@GUI@@QAE@XZ 0040ef60 f   GUI:PlayerController.obj
 0001:0000dfe0       ?keyPressed@CPlayerController@Controller@GUI@@UAE_NUTKey@Input@Common@@@Z 0040efe0 f   GUI:PlayerController.obj
 0001:0000e060       ?keyReleased@CPlayerController@Controller@GUI@@UAE_NUTKey@Input@Common@@@Z 0040f060 f   GUI:PlayerController.obj
 0001:0000e0e0       ??A?$map@W4TKeyID@Key@Input@Common@@PAVICommand@Command@Controller@GUI@@U?$less@W4TKeyID@Key@Input@Common@@@std@@V?$allocator@U?$pair@$$CBW4TKeyID@Key@Input@Common@@PAVICommand@Command@Controller@GUI@@@std@@@std@@@std@@QAEAAPAVICommand@Command@Controller@GUI@@ABW4TKeyID@Key@Input@Common@@@Z 0040f0e0 f i GUI:PlayerController.obj
 0001:0000e170       ?erase@?$_Tree@V?$_Tmap_traits@IPAVCEntity@Logic@@U?$less@I@std@@V?$allocator@U?$pair@$$CBIPAVCEntity@Logic@@@std@@@4@$0A@@std@@@std@@QAE?AV?$_Tree_iterator@V?$_Tree_val@U?$_Tree_simple_types@U?$pair@$$CBIPAVCEntity@Logic@@@std@@@std@@@std@@@2@V?$_Tree_const_iterator@V?$_Tree_val@U?$_Tree_simple_types@U?$pair@$$CBIPAVCEntity@Logic@@@std@@@std@@@std@@@2@0@Z 0040f170 f i Logic:Scene.obj
 0001:0000e170       ?erase@?$_Tree@V?$_Tmap_traits@W4TKeyID@Key@Input@Common@@PAVICommand@Command@Controller@GUI@@U?$less@W4TKeyID@Key@Input@Common@@@std@@V?$allocator@U?$pair@$$CBW4TKeyID@Key@Input@Common@@PAVICommand@Command@Controller@GUI@@@std@@@std@@$0A@@std@@@std@@QAE?AV?$_Tree_iterator@V?$_Tree_val@U?$_Tree_simple_types@U?$pair@$$CBW4TKeyID@Key@Input@Common@@PAVICommand@Command@Controller@GUI@@@std@@@std@@@std@@@2@V?$_Tree_const_iterator@V?$_Tree_val@U?$_Tree_simple_types@U?$pair@$$CBW4TKeyID@Key@Input@Common@@PAVICommand@Command@Controller@GUI@@@std@@@std@@@std@@@2@0@Z 0040f170 f i GUI:PlayerController.obj
 0001:0000e210       ?erase@?$_Tree@V?$_Tmap_traits@PAVCMouseState@InputListener@GUI@@PAVICommand@Command@Controller@3@U?$less@PAVCMouseState@InputListener@GUI@@@std@@V?$allocator@U?$pair@QAVCMouseState@InputListener@GUI@@PAVICommand@Command@Controller@3@@std@@@8@$0A@@std@@@std@@QAE?AV?$_Tree_iterator@V?$_Tree_val@U?$_Tree_simple_types@U?$pair@QAVCMouseState@InputListener@GUI@@PAVICommand@Command@Controller@3@@std@@@std@@@std@@@2@V?$_Tree_const_iterator@V?$_Tree_val@U?$_Tree_simple_types@U?$pair@QAVCMouseState@InputListener@GUI@@PAVICommand@Command@Controller@3@@std@@@std@@@std@@@2@0@Z 0040f210 f i GUI:PlayerController.obj
 0001:0000e2b0       ?erase@?$_Tree@V?$_Tmap_traits@IPAVCEntity@Logic@@U?$less@I@std@@V?$allocator@U?$pair@$$CBIPAVCEntity@Logic@@@std@@@4@$0A@@std@@@std@@QAE?AV?$_Tree_iterator@V?$_Tree_val@U?$_Tree_simple_types@U?$pair@$$CBIPAVCEntity@Logic@@@std@@@std@@@std@@@2@V?$_Tree_const_iterator@V?$_Tree_val@U?$_Tree_simple_types@U?$pair@$$CBIPAVCEntity@Logic@@@std@@@std@@@std@@@2@@Z 0040f2b0 f i Logic:Scene.obj
 0001:0000e2b0       ?erase@?$_Tree@V?$_Tmap_traits@W4TKeyID@Key@Input@Common@@PAVICommand@Command@Controller@GUI@@U?$less@W4TKeyID@Key@Input@Common@@@std@@V?$allocator@U?$pair@$$CBW4TKeyID@Key@Input@Common@@PAVICommand@Command@Controller@GUI@@@std@@@std@@$0A@@std@@@std@@QAE?AV?$_Tree_iterator@V?$_Tree_val@U?$_Tree_simple_types@U?$pair@$$CBW4TKeyID@Key@Input@Common@@PAVICommand@Command@Controller@GUI@@@std@@@std@@@std@@@2@V?$_Tree_const_iterator@V?$_Tree_val@U?$_Tree_simple_types@U?$pair@$$CBW4TKeyID@Key@Input@Common@@PAVICommand@Command@Controller@GUI@@@std@@@std@@@std@@@2@@Z 0040f2b0 f i GUI:PlayerController.obj
 0001:0000e510       ?clear@?$_Tree@V?$_Tmap_traits@W4TKeyID@Key@Input@Common@@PAVICommand@Command@Controller@GUI@@U?$less@W4TKeyID@Key@Input@Common@@@std@@V?$allocator@U?$pair@$$CBW4TKeyID@Key@Input@Common@@PAVICommand@Command@Controller@GUI@@@std@@@std@@$0A@@std@@@std@@QAEXXZ 0040f510 f i GUI:PlayerController.obj
 0001:0000e510       ?clear@?$_Tree@V?$_Tmap_traits@IPAVCEntity@Logic@@U?$less@I@std@@V?$allocator@U?$pair@$$CBIPAVCEntity@Logic@@@std@@@4@$0A@@std@@@std@@QAEXXZ 0040f510 f i Logic:Scene.obj
 0001:0000e510       ?clear@?$_Tree@V?$_Tmap_traits@PAVCMouseState@InputListener@GUI@@PAVICommand@Command@Controller@3@U?$less@PAVCMouseState@InputListener@GUI@@@std@@V?$allocator@U?$pair@QAVCMouseState@InputListener@GUI@@PAVICommand@Command@Controller@3@@std@@@8@$0A@@std@@@std@@QAEXXZ 0040f510 f i GUI:PlayerController.obj
 0001:0000e560       ?erase@?$_Tree@V?$_Tmap_traits@PAVCMouseState@InputListener@GUI@@PAVICommand@Command@Controller@3@U?$less@PAVCMouseState@InputListener@GUI@@@std@@V?$allocator@U?$pair@QAVCMouseState@InputListener@GUI@@PAVICommand@Command@Controller@3@@std@@@8@$0A@@std@@@std@@QAE?AV?$_Tree_iterator@V?$_Tree_val@U?$_Tree_simple_types@U?$pair@QAVCMouseState@InputListener@GUI@@PAVICommand@Command@Controller@3@@std@@@std@@@std@@@2@V?$_Tree_const_iterator@V?$_Tree_val@U?$_Tree_simple_types@U?$pair@QAVCMouseState@InputListener@GUI@@PAVICommand@Command@Controller@3@@std@@@std@@@std@@@2@@Z 0040f560 f i GUI:PlayerController.obj
 0001:0000e7e0       ?_Erase@?$_Tree@V?$_Tmap_traits@W4TKeyID@Key@Input@Common@@PAVICommand@Command@Controller@GUI@@U?$less@W4TKeyID@Key@Input@Common@@@std@@V?$allocator@U?$pair@$$CBW4TKeyID@Key@Input@Common@@PAVICommand@Command@Controller@GUI@@@std@@@std@@$0A@@std@@@std@@IAEXPAU?$_Tree_node@U?$pair@$$CBW4TKeyID@Key@Input@Common@@PAVICommand@Command@Controller@GUI@@@std@@PAX@2@@Z 0040f7e0 f i GUI:PlayerController.obj
 0001:0000e7e0       ?_Erase@?$_Tree@V?$_Tmap_traits@PAVCMouseState@InputListener@GUI@@PAVICommand@Command@Controller@3@U?$less@PAVCMouseState@InputListener@GUI@@@std@@V?$allocator@U?$pair@QAVCMouseState@InputListener@GUI@@PAVICommand@Command@Controller@3@@std@@@8@$0A@@std@@@std@@IAEXPAU?$_Tree_node@U?$pair@QAVCMouseState@InputListener@GUI@@PAVICommand@Command@Controller@3@@std@@PAX@2@@Z 0040f7e0 f i GUI:PlayerController.obj
 0001:0000e7e0       ?_Erase@?$_Tree@V?$_Tmap_traits@IPAVCEntity@Logic@@U?$less@I@std@@V?$allocator@U?$pair@$$CBIPAVCEntity@Logic@@@std@@@4@$0A@@std@@@std@@IAEXPAU?$_Tree_node@U?$pair@$$CBIPAVCEntity@Logic@@@std@@PAX@2@@Z 0040f7e0 f i Logic:Scene.obj
 0001:0000e830       ?_Buyheadnode@?$_Tree_alloc@$0A@U?$_Tree_base_types@U?$pair@QAVCMouseState@InputListener@GUI@@PAVICommand@Command@Controller@3@@std@@V?$allocator@U?$pair@QAVCMouseState@InputListener@GUI@@PAVICommand@Command@Controller@3@@std@@@2@@std@@@std@@QAEPAU?$_Tree_node@U?$pair@QAVCMouseState@InputListener@GUI@@PAVICommand@Command@Controller@3@@std@@PAX@2@XZ 0040f830 f i GUI:PlayerController.obj
 0001:0000e830       ?_Buyheadnode@?$_Tree_alloc@$0A@U?$_Tree_base_types@U?$pair@$$CBIPAVCEntity@Logic@@@std@@V?$allocator@U?$pair@$$CBIPAVCEntity@Logic@@@std@@@2@@std@@@std@@QAEPAU?$_Tree_node@U?$pair@$$CBIPAVCEntity@Logic@@@std@@PAX@2@XZ 0040f830 f i Logic:Scene.obj
 0001:0000e830       ?_Buyheadnode@?$_Tree_alloc@$0A@U?$_Tree_base_types@U?$pair@$$CBW4TKeyID@Key@Input@Common@@PAVICommand@Command@Controller@GUI@@@std@@V?$allocator@U?$pair@$$CBW4TKeyID@Key@Input@Common@@PAVICommand@Command@Controller@GUI@@@std@@@2@@std@@@std@@QAEPAU?$_Tree_node@U?$pair@$$CBW4TKeyID@Key@Input@Common@@PAVICommand@Command@Controller@GUI@@@std@@PAX@2@XZ 0040f830 f i GUI:PlayerController.obj
 0001:0000e860       ??$_Buynode@U?$pair@W4TKeyID@Key@Input@Common@@PAVICommand@Command@Controller@GUI@@@std@@@?$_Tree_buy@U?$pair@$$CBW4TKeyID@Key@Input@Common@@PAVICommand@Command@Controller@GUI@@@std@@V?$allocator@U?$pair@$$CBW4TKeyID@Key@Input@Common@@PAVICommand@Command@Controller@GUI@@@std@@@2@@std@@QAEPAU?$_Tree_node@U?$pair@$$CBW4TKeyID@Key@Input@Common@@PAVICommand@Command@Controller@GUI@@@std@@PAX@1@$$QAU?$pair@W4TKeyID@Key@Input@Common@@PAVICommand@Command@Controller@GUI@@@1@@Z 0040f860 f i GUI:PlayerController.obj
 0001:0000e860       ??$_Buynode@U?$pair@IPAVCEntity@Logic@@@std@@@?$_Tree_buy@U?$pair@$$CBIPAVCEntity@Logic@@@std@@V?$allocator@U?$pair@$$CBIPAVCEntity@Logic@@@std@@@2@@std@@QAEPAU?$_Tree_node@U?$pair@$$CBIPAVCEntity@Logic@@@std@@PAX@1@$$QAU?$pair@IPAVCEntity@Logic@@@1@@Z 0040f860 f i Logic:Scene.obj
 0001:0000e890       ??$_Insert_nohint@AAU?$pair@$$CBW4TKeyID@Key@Input@Common@@PAVICommand@Command@Controller@GUI@@@std@@PAU?$_Tree_node@U?$pair@$$CBW4TKeyID@Key@Input@Common@@PAVICommand@Command@Controller@GUI@@@std@@PAX@2@@?$_Tree@V?$_Tmap_traits@W4TKeyID@Key@Input@Common@@PAVICommand@Command@Controller@GUI@@U?$less@W4TKeyID@Key@Input@Common@@@std@@V?$allocator@U?$pair@$$CBW4TKeyID@Key@Input@Common@@PAVICommand@Command@Controller@GUI@@@std@@@std@@$0A@@std@@@std@@IAE?AU?$pair@V?$_Tree_iterator@V?$_Tree_val@U?$_Tree_simple_types@U?$pair@$$CBW4TKeyID@Key@Input@Common@@PAVICommand@Command@Controller@GUI@@@std@@@std@@@std@@@std@@_N@1@_NAAU?$pair@$$CBW4TKeyID@Key@Input@Common@@PAVICommand@Command@Controller@GUI@@@1@PAU?$_Tree_node@U?$pair@$$CBW4TKeyID@Key@Input@Common@@PAVICommand@Command@Controller@GUI@@@std@@PAX@1@@Z 0040f890 f i GUI:PlayerController.obj
 0001:0000e9a0       ??$_Insert_hint@AAU?$pair@$$CBW4TKeyID@Key@Input@Common@@PAVICommand@Command@Controller@GUI@@@std@@PAU?$_Tree_node@U?$pair@$$CBW4TKeyID@Key@Input@Common@@PAVICommand@Command@Controller@GUI@@@std@@PAX@2@@?$_Tree@V?$_Tmap_traits@W4TKeyID@Key@Input@Common@@PAVICommand@Command@Controller@GUI@@U?$less@W4TKeyID@Key@Input@Common@@@std@@V?$allocator@U?$pair@$$CBW4TKeyID@Key@Input@Common@@PAVICommand@Command@Controller@GUI@@@std@@@std@@$0A@@std@@@std@@IAE?AV?$_Tree_iterator@V?$_Tree_val@U?$_Tree_simple_types@U?$pair@$$CBW4TKeyID@Key@Input@Common@@PAVICommand@Command@Controller@GUI@@@std@@@std@@@std@@@1@V?$_Tree_const_iterator@V?$_Tree_val@U?$_Tree_simple_types@U?$pair@$$CBW4TKeyID@Key@Input@Common@@PAVICommand@Command@Controller@GUI@@@std@@@std@@@std@@@1@AAU?$pair@$$CBW4TKeyID@Key@Input@Common@@PAVICommand@Command@Controller@GUI@@@1@PAU?$_Tree_node@U?$pair@$$CBW4TKeyID@Key@Input@Common@@PAVICommand@Command@Controller@GUI@@@std@@PAX@1@@Z 0040f9a0 f i GUI:PlayerController.obj
 0001:0000ebc0       ?_Buynode0@?$_Tree_buy@U?$pair@$$CBW4TKeyID@Key@Input@Common@@PAVICommand@Command@Controller@GUI@@@std@@V?$allocator@U?$pair@$$CBW4TKeyID@Key@Input@Common@@PAVICommand@Command@Controller@GUI@@@std@@@2@@std@@QAEPAU?$_Tree_node@U?$pair@$$CBW4TKeyID@Key@Input@Common@@PAVICommand@Command@Controller@GUI@@@std@@PAX@2@XZ 0040fbc0 f i GUI:PlayerController.obj
 0001:0000ebc0       ?_Buynode0@?$_Tree_buy@U?$pair@$$CBIPAVCEntity@Logic@@@std@@V?$allocator@U?$pair@$$CBIPAVCEntity@Logic@@@std@@@2@@std@@QAEPAU?$_Tree_node@U?$pair@$$CBIPAVCEntity@Logic@@@std@@PAX@2@XZ 0040fbc0 f i Logic:Scene.obj
 0001:0000ec00       ??$_Insert_at@AAU?$pair@$$CBW4TKeyID@Key@Input@Common@@PAVICommand@Command@Controller@GUI@@@std@@PAU?$_Tree_node@U?$pair@$$CBW4TKeyID@Key@Input@Common@@PAVICommand@Command@Controller@GUI@@@std@@PAX@2@@?$_Tree@V?$_Tmap_traits@W4TKeyID@Key@Input@Common@@PAVICommand@Command@Controller@GUI@@U?$less@W4TKeyID@Key@Input@Common@@@std@@V?$allocator@U?$pair@$$CBW4TKeyID@Key@Input@Common@@PAVICommand@Command@Controller@GUI@@@std@@@std@@$0A@@std@@@std@@IAE?AV?$_Tree_iterator@V?$_Tree_val@U?$_Tree_simple_types@U?$pair@$$CBW4TKeyID@Key@Input@Common@@PAVICommand@Command@Controller@GUI@@@std@@@std@@@std@@@1@_NPAU?$_Tree_node@U?$pair@$$CBW4TKeyID@Key@Input@Common@@PAVICommand@Command@Controller@GUI@@@std@@PAX@1@AAU?$pair@$$CBW4TKeyID@Key@Input@Common@@PAVICommand@Command@Controller@GUI@@@1@1@Z 0040fc00 f i GUI:PlayerController.obj
 0001:0000ec00       ??$_Insert_at@AAU?$pair@$$CBIPAVCEntity@Logic@@@std@@PAU?$_Tree_node@U?$pair@$$CBIPAVCEntity@Logic@@@std@@PAX@2@@?$_Tree@V?$_Tmap_traits@IPAVCEntity@Logic@@U?$less@I@std@@V?$allocator@U?$pair@$$CBIPAVCEntity@Logic@@@std@@@4@$0A@@std@@@std@@IAE?AV?$_Tree_iterator@V?$_Tree_val@U?$_Tree_simple_types@U?$pair@$$CBIPAVCEntity@Logic@@@std@@@std@@@std@@@1@_NPAU?$_Tree_node@U?$pair@$$CBIPAVCEntity@Logic@@@std@@PAX@1@AAU?$pair@$$CBIPAVCEntity@Logic@@@1@1@Z 0040fc00 f i Logic:Scene.obj
 0001:0000ee10       ?init@CLogic@Logic@@SA_NXZ 0040fe10 f   Logic:Logic.obj
 0001:0000ee70       ?loadLevel@CLogic@Logic@@QAE_NABV?$basic_string@DU?$char_traits@D@std@@V?$allocator@D@2@@std@@PAVRoot@Ogre@@PAVRenderWindow@6@W4SceneType@Data@Common@@@Z 0040fe70 f   Logic:Logic.obj
 0001:0000eee0       ?open@CLogic@Logic@@AAE_NXZ 0040fee0 f   Logic:Logic.obj
 0001:0000ef80       ?close@CLogic@Logic@@AAEXXZ 0040ff80 f   Logic:Logic.obj
 0001:0000f020       ??5@YAAAV?$basic_istream@DU?$char_traits@D@std@@@std@@AAV01@AAUTBluePrint@CEntityFactory@Logic@@@Z 00410020 f   Logic:EntityFactory.obj
 0001:0000f1b0       ??_D?$basic_istringstream@DU?$char_traits@D@std@@V?$allocator@D@2@@std@@QAEXXZ 004101b0 f i Logic:EntityFactory.obj
 0001:0000f1f0       ??0CEntityFactory@Logic@@AAE@XZ 004101f0 f   Logic:EntityFactory.obj
 0001:0000f280       ??1?$map@V?$basic_string@DU?$char_traits@D@std@@V?$allocator@D@2@@std@@UTBluePrint@CEntityFactory@Logic@@U?$less@V?$basic_string@DU?$char_traits@D@std@@V?$allocator@D@2@@std@@@2@V?$allocator@U?$pair@$$CBV?$basic_string@DU?$char_traits@D@std@@V?$allocator@D@2@@std@@UTBluePrint@CEntityFactory@Logic@@@std@@@2@@std@@QAE@XZ 00410280 f i Logic:EntityFactory.obj
 0001:0000f2b0       ??1CEntityFactory@Logic@@AAE@XZ 004102b0 f   Logic:EntityFactory.obj
 0001:0000f330       ?loadBluePrints@CEntityFactory@Logic@@QAE_NABV?$basic_string@DU?$char_traits@D@std@@V?$allocator@D@2@@std@@@Z 00410330 f   Logic:EntityFactory.obj
 0001:0000f760       ??1TBluePrint@CEntityFactory@Logic@@QAE@XZ 00410760 f i Logic:EntityFactory.obj
 0001:0000f7a0       ??1?$pair@V?$basic_string@DU?$char_traits@D@std@@V?$allocator@D@2@@std@@UTBluePrint@CEntityFactory@Logic@@@std@@QAE@XZ 004107a0 f i Logic:EntityFactory.obj
 0001:0000f800       ?createEntity@CEntityFactory@Logic@@QAEPAVCEntity@2@PBVCMapEntity@Map@@PAVCScene@2@@Z 00410800 f   Logic:EntityFactory.obj
 0001:0000f8c0       ?deleteDeferredEntities@CEntityFactory@Logic@@QAEXXZ 004108c0 f   Logic:EntityFactory.obj
 0001:0000f930       ?assembleEntity@CEntityFactory@Logic@@AAEPAVCEntity@2@ABV?$basic_string@DU?$char_traits@D@std@@V?$allocator@D@2@@std@@@Z 00410930 f   Logic:EntityFactory.obj
 0001:0000fbe0       ??0?$basic_istringstream@DU?$char_traits@D@std@@V?$allocator@D@2@@std@@QAE@ABV?$basic_string@DU?$char_traits@D@std@@V?$allocator@D@2@@1@H@Z 00410be0 f i Logic:EntityFactory.obj
 0001:0000fcb0       ?close@?$basic_ifstream@DU?$char_traits@D@std@@@std@@QAEXXZ 00410cb0 f i Logic:EntityFactory.obj
 0001:0000fd30       ??_G?$basic_istringstream@DU?$char_traits@D@std@@V?$allocator@D@2@@std@@UAEPAXI@Z 00410d30 f i Logic:EntityFactory.obj
 0001:0000fd30       ??_E?$basic_istringstream@DU?$char_traits@D@std@@V?$allocator@D@2@@std@@UAEPAXI@Z 00410d30 f i * CIL library *:* CIL module *
 0001:0000fd90       ?erase@?$_Tree@V?$_Tmap_traits@V?$basic_string@DU?$char_traits@D@std@@V?$allocator@D@2@@std@@UTBluePrint@CEntityFactory@Logic@@U?$less@V?$basic_string@DU?$char_traits@D@std@@V?$allocator@D@2@@std@@@2@V?$allocator@U?$pair@$$CBV?$basic_string@DU?$char_traits@D@std@@V?$allocator@D@2@@std@@UTBluePrint@CEntityFactory@Logic@@@std@@@2@$0A@@std@@@std@@QAE?AV?$_Tree_iterator@V?$_Tree_val@U?$_Tree_simple_types@U?$pair@$$CBV?$basic_string@DU?$char_traits@D@std@@V?$allocator@D@2@@std@@UTBluePrint@CEntityFactory@Logic@@@std@@@std@@@std@@@2@V?$_Tree_const_iterator@V?$_Tree_val@U?$_Tree_simple_types@U?$pair@$$CBV?$basic_string@DU?$char_traits@D@std@@V?$allocator@D@2@@std@@UTBluePrint@CEntityFactory@Logic@@@std@@@std@@@std@@@2@0@Z 00410d90 f i Logic:EntityFactory.obj
 0001:0000fe50       ?_Erase@?$_Tree@V?$_Tmap_traits@V?$basic_string@DU?$char_traits@D@std@@V?$allocator@D@2@@std@@UTBluePrint@CEntityFactory@Logic@@U?$less@V?$basic_string@DU?$char_traits@D@std@@V?$allocator@D@2@@std@@@2@V?$allocator@U?$pair@$$CBV?$basic_string@DU?$char_traits@D@std@@V?$allocator@D@2@@std@@UTBluePrint@CEntityFactory@Logic@@@std@@@2@$0A@@std@@@std@@IAEXPAU?$_Tree_node@U?$pair@$$CBV?$basic_string@DU?$char_traits@D@std@@V?$allocator@D@2@@std@@UTBluePrint@CEntityFactory@Logic@@@std@@PAX@2@@Z 00410e50 f i Logic:EntityFactory.obj
 0001:0000fef0       ?clear@?$list@V?$basic_string@DU?$char_traits@D@std@@V?$allocator@D@2@@std@@V?$allocator@V?$basic_string@DU?$char_traits@D@std@@V?$allocator@D@2@@std@@@2@@std@@QAEXXZ 00410ef0 f i Logic:EntityFactory.obj
 0001:0000ff50       ?erase@?$_Tree@V?$_Tmap_traits@V?$basic_string@DU?$char_traits@D@std@@V?$allocator@D@2@@std@@UTBluePrint@CEntityFactory@Logic@@U?$less@V?$basic_string@DU?$char_traits@D@std@@V?$allocator@D@2@@std@@@2@V?$allocator@U?$pair@$$CBV?$basic_string@DU?$char_traits@D@std@@V?$allocator@D@2@@std@@UTBluePrint@CEntityFactory@Logic@@@std@@@2@$0A@@std@@@std@@QAE?AV?$_Tree_iterator@V?$_Tree_val@U?$_Tree_simple_types@U?$pair@$$CBV?$basic_string@DU?$char_traits@D@std@@V?$allocator@D@2@@std@@UTBluePrint@CEntityFactory@Logic@@@std@@@std@@@std@@@2@V?$_Tree_const_iterator@V?$_Tree_val@U?$_Tree_simple_types@U?$pair@$$CBV?$basic_string@DU?$char_traits@D@std@@V?$allocator@D@2@@std@@UTBluePrint@CEntityFactory@Logic@@@std@@@std@@@std@@@2@@Z 00410f50 f i Logic:EntityFactory.obj
 0001:00010220       ?_Eqrange@?$_Tree@V?$_Tmap_traits@V?$basic_string@DU?$char_traits@D@std@@V?$allocator@D@2@@std@@V12@U?$less@V?$basic_string@DU?$char_traits@D@std@@V?$allocator@D@2@@std@@@2@V?$allocator@U?$pair@$$CBV?$basic_string@DU?$char_traits@D@std@@V?$allocator@D@2@@std@@V12@@std@@@2@$0A@@std@@@std@@IBE?AU?$pair@V?$_Tree_const_iterator@V?$_Tree_val@U?$_Tree_simple_types@U?$pair@$$CBV?$basic_string@DU?$char_traits@D@std@@V?$allocator@D@2@@std@@V12@@std@@@std@@@std@@@std@@V12@@2@ABV?$basic_string@DU?$char_traits@D@std@@V?$allocator@D@2@@2@@Z 00411220 f i Map:MapEntity.obj
 0001:00010220       ?_Eqrange@?$_Tree@V?$_Tmap_traits@V?$basic_string@DU?$char_traits@D@std@@V?$allocator@D@2@@std@@UTBluePrint@CEntityFactory@Logic@@U?$less@V?$basic_string@DU?$char_traits@D@std@@V?$allocator@D@2@@std@@@2@V?$allocator@U?$pair@$$CBV?$basic_string@DU?$char_traits@D@std@@V?$allocator@D@2@@std@@UTBluePrint@CEntityFactory@Logic@@@std@@@2@$0A@@std@@@std@@IAE?AU?$pair@V?$_Tree_iterator@V?$_Tree_val@U?$_Tree_simple_types@U?$pair@$$CBV?$basic_string@DU?$char_traits@D@std@@V?$allocator@D@2@@std@@UTBluePrint@CEntityFactory@Logic@@@std@@@std@@@std@@@std@@V12@@2@ABV?$basic_string@DU?$char_traits@D@std@@V?$allocator@D@2@@2@@Z 00411220 f i Logic:EntityFactory.obj
 0001:00010220       ?_Eqrange@?$_Tree@V?$_Tmap_traits@V?$basic_string@DU?$char_traits@D@std@@V?$allocator@D@2@@std@@P6APAVIComponent@Logic@@XZU?$less@V?$basic_string@DU?$char_traits@D@std@@V?$allocator@D@2@@std@@@2@V?$allocator@U?$pair@$$CBV?$basic_string@DU?$char_traits@D@std@@V?$allocator@D@2@@std@@P6APAVIComponent@Logic@@XZ@std@@@2@$0A@@std@@@std@@IBE?AU?$pair@V?$_Tree_const_iterator@V?$_Tree_val@U?$_Tree_simple_types@U?$pair@$$CBV?$basic_string@DU?$char_traits@D@std@@V?$allocator@D@2@@std@@P6APAVIComponent@Logic@@XZ@std@@@std@@@std@@@std@@V12@@2@ABV?$basic_string@DU?$char_traits@D@std@@V?$allocator@D@2@@2@@Z 00411220 f i Logic:EntityFactory.obj
 0001:00010220       ?_Eqrange@?$_Tree@V?$_Tmap_traits@V?$basic_string@DU?$char_traits@D@std@@V?$allocator@D@2@@std@@V12@U?$less@V?$basic_string@DU?$char_traits@D@std@@V?$allocator@D@2@@std@@@2@V?$allocator@U?$pair@$$CBV?$basic_string@DU?$char_traits@D@std@@V?$allocator@D@2@@std@@V12@@std@@@2@$0A@@std@@@std@@IAE?AU?$pair@V?$_Tree_iterator@V?$_Tree_val@U?$_Tree_simple_types@U?$pair@$$CBV?$basic_string@DU?$char_traits@D@std@@V?$allocator@D@2@@std@@V12@@std@@@std@@@std@@@std@@V12@@2@ABV?$basic_string@DU?$char_traits@D@std@@V?$allocator@D@2@@2@@Z 00411220 f i Map:MapEntity.obj
 0001:00010220       ?_Eqrange@?$_Tree@V?$_Tmap_traits@V?$basic_string@DU?$char_traits@D@std@@V?$allocator@D@2@@std@@UTBluePrint@CEntityFactory@Logic@@U?$less@V?$basic_string@DU?$char_traits@D@std@@V?$allocator@D@2@@std@@@2@V?$allocator@U?$pair@$$CBV?$basic_string@DU?$char_traits@D@std@@V?$allocator@D@2@@std@@UTBluePrint@CEntityFactory@Logic@@@std@@@2@$0A@@std@@@std@@IBE?AU?$pair@V?$_Tree_const_iterator@V?$_Tree_val@U?$_Tree_simple_types@U?$pair@$$CBV?$basic_string@DU?$char_traits@D@std@@V?$allocator@D@2@@std@@UTBluePrint@CEntityFactory@Logic@@@std@@@std@@@std@@@std@@V12@@2@ABV?$basic_string@DU?$char_traits@D@std@@V?$allocator@D@2@@2@@Z 00411220 f i Logic:EntityFactory.obj
 0001:00010450       ?_Buynode0@?$_List_alloc@$0A@U?$_List_base_types@V?$basic_string@DU?$char_traits@D@std@@V?$allocator@D@2@@std@@V?$allocator@V?$basic_string@DU?$char_traits@D@std@@V?$allocator@D@2@@std@@@2@@std@@@std@@QAEPAU?$_List_node@V?$basic_string@DU?$char_traits@D@std@@V?$allocator@D@2@@std@@PAX@2@PAU32@0@Z 00411450 f i Logic:EntityFactory.obj
 0001:00010490       ?_Buynode0@?$_List_alloc@$0A@U?$_List_base_types@PAVCEntity@Logic@@V?$allocator@PAVCEntity@Logic@@@std@@@std@@@std@@QAEPAU?$_List_node@PAVCEntity@Logic@@PAX@2@PAU32@0@Z 00411490 f i Logic:EntityFactory.obj
 0001:00010490       ?_Buynode0@?$_List_alloc@$0A@U?$_List_base_types@PAVSceneNode@Ogre@@V?$allocator@PAVSceneNode@Ogre@@@std@@@std@@@std@@QAEPAU?$_List_node@PAVSceneNode@Ogre@@PAX@2@PAU32@0@Z 00411490 f i Logic:Scene.obj
 0001:000104c0       ?_Buyheadnode@?$_Tree_alloc@$0A@U?$_Tree_base_types@U?$pair@$$CBV?$basic_string@DU?$char_traits@D@std@@V?$allocator@D@2@@std@@UTBluePrint@CEntityFactory@Logic@@@std@@V?$allocator@U?$pair@$$CBV?$basic_string@DU?$char_traits@D@std@@V?$allocator@D@2@@std@@UTBluePrint@CEntityFactory@Logic@@@std@@@2@@std@@@std@@QAEPAU?$_Tree_node@U?$pair@$$CBV?$basic_string@DU?$char_traits@D@std@@V?$allocator@D@2@@std@@UTBluePrint@CEntityFactory@Logic@@@std@@PAX@2@XZ 004114c0 f i Logic:EntityFactory.obj
 0001:000104f0       ??$use_facet@V?$ctype@D@std@@@std@@YAABV?$ctype@D@0@ABVlocale@0@@Z 004114f0 f i Logic:EntityFactory.obj
 0001:000105e0       ?create@?$CFactory@PAVIComponent@Logic@@@Logic@@QBEPAVIComponent@2@ABV?$basic_string@DU?$char_traits@D@std@@V?$allocator@D@2@@std@@@Z 004115e0 f i Logic:EntityFactory.obj
 0001:000106d0       ??$?HDU?$char_traits@D@std@@V?$allocator@D@1@@std@@YA?AV?$basic_string@DU?$char_traits@D@std@@V?$allocator@D@2@@0@ABV10@0@Z 004116d0 f i Logic:EntityFactory.obj
 0001:00010790       ??0?$list@V?$basic_string@DU?$char_traits@D@std@@V?$allocator@D@2@@std@@V?$allocator@V?$basic_string@DU?$char_traits@D@std@@V?$allocator@D@2@@std@@@2@@std@@QAE@ABV01@@Z 00411790 f i Logic:EntityFactory.obj
 0001:00010830       ??$?5DU?$char_traits@D@std@@V?$allocator@D@1@@std@@YAAAV?$basic_istream@DU?$char_traits@D@std@@@0@$$QAV10@AAV?$basic_string@DU?$char_traits@D@std@@V?$allocator@D@2@@0@@Z 00411830 f i Logic:EntityFactory.obj
 0001:000109f0       ??$_Buynode@U?$pair@V?$basic_string@DU?$char_traits@D@std@@V?$allocator@D@2@@std@@UTBluePrint@CEntityFactory@Logic@@@std@@@?$_Tree_buy@U?$pair@$$CBV?$basic_string@DU?$char_traits@D@std@@V?$allocator@D@2@@std@@UTBluePrint@CEntityFactory@Logic@@@std@@V?$allocator@U?$pair@$$CBV?$basic_string@DU?$char_traits@D@std@@V?$allocator@D@2@@std@@UTBluePrint@CEntityFactory@Logic@@@std@@@2@@std@@QAEPAU?$_Tree_node@U?$pair@$$CBV?$basic_string@DU?$char_traits@D@std@@V?$allocator@D@2@@std@@UTBluePrint@CEntityFactory@Logic@@@std@@PAX@1@$$QAU?$pair@V?$basic_string@DU?$char_traits@D@std@@V?$allocator@D@2@@std@@UTBluePrint@CEntityFactory@Logic@@@1@@Z 004119f0 f i Logic:EntityFactory.obj
 0001:00010a80       ??$_Insert_nohint@AAU?$pair@$$CBV?$basic_string@DU?$char_traits@D@std@@V?$allocator@D@2@@std@@UTBluePrint@CEntityFactory@Logic@@@std@@PAU?$_Tree_node@U?$pair@$$CBV?$basic_string@DU?$char_traits@D@std@@V?$allocator@D@2@@std@@UTBluePrint@CEntityFactory@Logic@@@std@@PAX@2@@?$_Tree@V?$_Tmap_traits@V?$basic_string@DU?$char_traits@D@std@@V?$allocator@D@2@@std@@UTBluePrint@CEntityFactory@Logic@@U?$less@V?$basic_string@DU?$char_traits@D@std@@V?$allocator@D@2@@std@@@2@V?$allocator@U?$pair@$$CBV?$basic_string@DU?$char_traits@D@std@@V?$allocator@D@2@@std@@UTBluePrint@CEntityFactory@Logic@@@std@@@2@$0A@@std@@@std@@IAE?AU?$pair@V?$_Tree_iterator@V?$_Tree_val@U?$_Tree_simple_types@U?$pair@$$CBV?$basic_string@DU?$char_traits@D@std@@V?$allocator@D@2@@std@@UTBluePrint@CEntityFactory@Logic@@@std@@@std@@@std@@@std@@_N@1@_NAAU?$pair@$$CBV?$basic_string@DU?$char_traits@D@std@@V?$allocator@D@2@@std@@UTBluePrint@CEntityFactory@Logic@@@1@PAU?$_Tree_node@U?$pair@$$CBV?$basic_string@DU?$char_traits@D@std@@V?$allocator@D@2@@std@@UTBluePrint@CEntityFactory@Logic@@@std@@PAX@1@@Z 00411a80 f i Logic:EntityFactory.obj
 0001:00010c90       ??$_Buynode@ABV?$basic_string@DU?$char_traits@D@std@@V?$allocator@D@2@@std@@@?$_List_buy@V?$basic_string@DU?$char_traits@D@std@@V?$allocator@D@2@@std@@V?$allocator@V?$basic_string@DU?$char_traits@D@std@@V?$allocator@D@2@@std@@@2@@std@@QAEPAU?$_List_node@V?$basic_string@DU?$char_traits@D@std@@V?$allocator@D@2@@std@@PAX@1@PAU21@0ABV?$basic_string@DU?$char_traits@D@std@@V?$allocator@D@2@@1@@Z 00411c90 f i Logic:EntityFactory.obj
 0001:00010d30       ??$_Distance2@V?$_Tree_const_iterator@V?$_Tree_val@U?$_Tree_simple_types@U?$pair@$$CBV?$basic_string@DU?$char_traits@D@std@@V?$allocator@D@2@@std@@P6APAVIComponent@Logic@@XZ@std@@@std@@@std@@@std@@I@std@@YAXV?$_Tree_const_iterator@V?$_Tree_val@U?$_Tree_simple_types@U?$pair@$$CBV?$basic_string@DU?$char_traits@D@std@@V?$allocator@D@2@@std@@P6APAVIComponent@Logic@@XZ@std@@@std@@@std@@@0@0AAIUbidirectional_iterator_tag@0@@Z 00411d30 f i Logic:EntityFactory.obj
 0001:00010d30       ??$_Distance2@V?$_Tree_const_iterator@V?$_Tree_val@U?$_Tree_simple_types@U?$pair@$$CBV?$basic_string@DU?$char_traits@D@std@@V?$allocator@D@2@@std@@V12@@std@@@std@@@std@@@std@@I@std@@YAXV?$_Tree_const_iterator@V?$_Tree_val@U?$_Tree_simple_types@U?$pair@$$CBV?$basic_string@DU?$char_traits@D@std@@V?$allocator@D@2@@std@@V12@@std@@@std@@@std@@@0@0AAIUbidirectional_iterator_tag@0@@Z 00411d30 f i Map:MapEntity.obj
 0001:00010d30       ??$_Distance2@V?$_Tree_const_iterator@V?$_Tree_val@U?$_Tree_simple_types@U?$pair@$$CBIPAVCEntity@Logic@@@std@@@std@@@std@@@std@@I@std@@YAXV?$_Tree_const_iterator@V?$_Tree_val@U?$_Tree_simple_types@U?$pair@$$CBIPAVCEntity@Logic@@@std@@@std@@@std@@@0@0AAIUbidirectional_iterator_tag@0@@Z 00411d30 f i Logic:Scene.obj
 0001:00010d30       ??$_Distance2@V?$_Tree_const_iterator@V?$_Tree_val@U?$_Tree_simple_types@U?$pair@$$CBV?$basic_string@DU?$char_traits@D@std@@V?$allocator@D@2@@std@@UTBluePrint@CEntityFactory@Logic@@@std@@@std@@@std@@@std@@I@std@@YAXV?$_Tree_const_iterator@V?$_Tree_val@U?$_Tree_simple_types@U?$pair@$$CBV?$basic_string@DU?$char_traits@D@std@@V?$allocator@D@2@@std@@UTBluePrint@CEntityFactory@Logic@@@std@@@std@@@std@@@0@0AAIUbidirectional_iterator_tag@0@@Z 00411d30 f i Logic:EntityFactory.obj
 0001:00010da0       ?_Destroy_if_not_nil@?$_Tree@V?$_Tmap_traits@V?$basic_string@DU?$char_traits@D@std@@V?$allocator@D@2@@std@@UTBluePrint@CEntityFactory@Logic@@U?$less@V?$basic_string@DU?$char_traits@D@std@@V?$allocator@D@2@@std@@@2@V?$allocator@U?$pair@$$CBV?$basic_string@DU?$char_traits@D@std@@V?$allocator@D@2@@std@@UTBluePrint@CEntityFactory@Logic@@@std@@@2@$0A@@std@@@std@@IAEXPAU?$_Tree_node@U?$pair@$$CBV?$basic_string@DU?$char_traits@D@std@@V?$allocator@D@2@@std@@UTBluePrint@CEntityFactory@Logic@@@std@@PAX@2@@Z 00411da0 f i Logic:EntityFactory.obj
 0001:00010e10       ?_Buynode0@?$_Tree_buy@U?$pair@$$CBV?$basic_string@DU?$char_traits@D@std@@V?$allocator@D@2@@std@@UTBluePrint@CEntityFactory@Logic@@@std@@V?$allocator@U?$pair@$$CBV?$basic_string@DU?$char_traits@D@std@@V?$allocator@D@2@@std@@UTBluePrint@CEntityFactory@Logic@@@std@@@2@@std@@QAEPAU?$_Tree_node@U?$pair@$$CBV?$basic_string@DU?$char_traits@D@std@@V?$allocator@D@2@@std@@UTBluePrint@CEntityFactory@Logic@@@std@@PAX@2@XZ 00411e10 f i Logic:EntityFactory.obj
 0001:00010e50       ??$_Insert_at@AAU?$pair@$$CBV?$basic_string@DU?$char_traits@D@std@@V?$allocator@D@2@@std@@UTBluePrint@CEntityFactory@Logic@@@std@@PAU?$_Tree_node@U?$pair@$$CBV?$basic_string@DU?$char_traits@D@std@@V?$allocator@D@2@@std@@UTBluePrint@CEntityFactory@Logic@@@std@@PAX@2@@?$_Tree@V?$_Tmap_traits@V?$basic_string@DU?$char_traits@D@std@@V?$allocator@D@2@@std@@UTBluePrint@CEntityFactory@Logic@@U?$less@V?$basic_string@DU?$char_traits@D@std@@V?$allocator@D@2@@std@@@2@V?$allocator@U?$pair@$$CBV?$basic_string@DU?$char_traits@D@std@@V?$allocator@D@2@@std@@UTBluePrint@CEntityFactory@Logic@@@std@@@2@$0A@@std@@@std@@IAE?AV?$_Tree_iterator@V?$_Tree_val@U?$_Tree_simple_types@U?$pair@$$CBV?$basic_string@DU?$char_traits@D@std@@V?$allocator@D@2@@std@@UTBluePrint@CEntityFactory@Logic@@@std@@@std@@@std@@@1@_NPAU?$_Tree_node@U?$pair@$$CBV?$basic_string@DU?$char_traits@D@std@@V?$allocator@D@2@@std@@UTBluePrint@CEntityFactory@Logic@@@std@@PAX@1@AAU?$pair@$$CBV?$basic_string@DU?$char_traits@D@std@@V?$allocator@D@2@@std@@UTBluePrint@CEntityFactory@Logic@@@1@1@Z 00411e50 f i Logic:EntityFactory.obj
 0001:00011060       ??$_Insert_range@V?$_List_const_iterator@V?$_List_val@U?$_List_simple_types@V?$basic_string@DU?$char_traits@D@std@@V?$allocator@D@2@@std@@@std@@@std@@@std@@@?$list@V?$basic_string@DU?$char_traits@D@std@@V?$allocator@D@2@@std@@V?$allocator@V?$basic_string@DU?$char_traits@D@std@@V?$allocator@D@2@@std@@@2@@std@@QAEXV?$_List_unchecked_const_iterator@V?$_List_val@U?$_List_simple_types@V?$basic_string@DU?$char_traits@D@std@@V?$allocator@D@2@@std@@@std@@@std@@U_Iterator_base0@2@@1@V?$_List_const_iterator@V?$_List_val@U?$_List_simple_types@V?$basic_string@DU?$char_traits@D@std@@V?$allocator@D@2@@std@@@std@@@std@@@1@1Uforward_iterator_tag@1@@Z 00412060 f i Logic:EntityFactory.obj
 0001:00011130       ?_Unchecked_erase@?$list@V?$basic_string@DU?$char_traits@D@std@@V?$allocator@D@2@@std@@V?$allocator@V?$basic_string@DU?$char_traits@D@std@@V?$allocator@D@2@@std@@@2@@std@@QAEXV?$_List_unchecked_const_iterator@V?$_List_val@U?$_List_simple_types@V?$basic_string@DU?$char_traits@D@std@@V?$allocator@D@2@@std@@@std@@@std@@U_Iterator_base0@2@@2@@Z 00412130 f i Logic:EntityFactory.obj
 0001:00011190       ??$?0V?$basic_string@DU?$char_traits@D@std@@V?$allocator@D@2@@std@@UTBluePrint@CEntityFactory@Logic@@@?$pair@$$CBV?$basic_string@DU?$char_traits@D@std@@V?$allocator@D@2@@std@@UTBluePrint@CEntityFactory@Logic@@@std@@QAE@$$QAU?$pair@V?$basic_string@DU?$char_traits@D@std@@V?$allocator@D@2@@std@@UTBluePrint@CEntityFactory@Logic@@@1@PAPAX@Z 00412190 f i Logic:EntityFactory.obj
 0001:00011263       ?_Add_vtordisp1@?$basic_istream@DU?$char_traits@D@std@@@std@@$4PPPPPPPM@EI@AEXXZ 00412263 f i Logic:EntityFactory.obj
 0001:0001126f       ??_E?$basic_istringstream@DU?$char_traits@D@std@@V?$allocator@D@2@@std@@$4PPPPPPPM@A@AEPAXI@Z 0041226f f i Logic:EntityFactory.obj
 0001:00011280       ??0CEntity@Logic@@AAE@I@Z  00412280 f   Logic:Entity.obj
 0001:00011360       ??1CEntity@Logic@@AAE@XZ   00412360 f   Logic:Entity.obj
 0001:00011480       ?spawn@CEntity@Logic@@IAE_NPAVCScene@2@PBVCMapEntity@Map@@@Z 00412480 f   Logic:Entity.obj
 0001:00011680       ?activate@CEntity@Logic@@QAE_NXZ 00412680 f   Logic:Entity.obj
 0001:000116d0       ?addComponent@CEntity@Logic@@QAEXPAVIComponent@2@@Z 004126d0 f   Logic:Entity.obj
 0001:00011750       ?addComponent@CEntity@Logic@@QAEXPAVIComponent@2@HH@Z 00412750 f   Logic:Entity.obj
 0001:000117f0       ?getComponentByName@CEntity@Logic@@QAEPAVIComponent@2@ABV?$basic_string@DU?$char_traits@D@std@@V?$allocator@D@2@@std@@@Z 004127f0 f   Logic:Entity.obj
 0001:000118e0       ?push_back@?$vector@PAVIComponent@Logic@@V?$allocator@PAVIComponent@Logic@@@std@@@std@@QAEXABQAVIComponent@Logic@@@Z 004128e0 f i Logic:Entity.obj
 0001:00011950       ?resize@?$vector@PAVIComponent@Logic@@V?$allocator@PAVIComponent@Logic@@@std@@@std@@QAEXI@Z 00412950 f i Logic:Entity.obj
 0001:00011970       ?_Reserve@?$vector@PAVIComponent@Logic@@V?$allocator@PAVIComponent@Logic@@@std@@@std@@IAEXI@Z 00412970 f i Logic:Entity.obj
 0001:000119f0       ?_Reallocate@?$vector@PAVIComponent@Logic@@V?$allocator@PAVIComponent@Logic@@@std@@@std@@IAEXI@Z 004129f0 f i Logic:Entity.obj
 0001:00011a70       ??_GCMessageManager@Logic@@UAEPAXI@Z 00412a70 f i Logic:ControllerComponent.obj
 0001:00011a70       ??_ECMessageManager@Logic@@UAEPAXI@Z 00412a70 f i * CIL library *:* CIL module *
 0001:00011ab0       ??1IComponent@Logic@@UAE@XZ 00412ab0 f i Logic:ControllerComponent.obj
 0001:00011b10       ??_GCCameraComponent@Logic@@UAEPAXI@Z 00412b10 f i Logic:CameraComponent.obj
 0001:00011b10       ??_ECCameraComponent@Logic@@UAEPAXI@Z 00412b10 f i * CIL library *:* CIL module *
 0001:00011b10       ??_EIComponent@Logic@@UAEPAXI@Z 00412b10 f i * CIL library *:* CIL module *
 0001:00011b10       ??_GCTransform@Logic@@UAEPAXI@Z 00412b10 f i Logic:Transform.obj
 0001:00011b10       ??_GCControllerComponent@Logic@@UAEPAXI@Z 00412b10 f i Logic:ControllerComponent.obj
 0001:00011b10       ??_ECControllerComponent@Logic@@UAEPAXI@Z 00412b10 f i * CIL library *:* CIL module *
 0001:00011b10       ??_ECTransform@Logic@@UAEPAXI@Z 00412b10 f i * CIL library *:* CIL module *
 0001:00011b10       ??_GIComponent@Logic@@UAEPAXI@Z 00412b10 f i Logic:ControllerComponent.obj
 0001:00011b80       ?create@CControllerComponent@Logic@@SAPAVIComponent@2@XZ 00412b80 f   Logic:ControllerComponent.obj
 0001:00011c30       ?regist@CControllerComponent@Logic@@SA_NXZ 00412c30 f   Logic:ControllerComponent.obj
 0001:00011d70       ?spawn@CControllerComponent@Logic@@UAE_NPAVCEntity@2@PAVCScene@2@PBVCMapEntity@Map@@@Z 00412d70 f   Logic:ControllerComponent.obj
 0001:00011ea0       ?tick@IComponent@Logic@@UAEXI@Z 00412ea0 f   Logic:Component.obj
 0001:00011ea0       ?tick@CControllerComponent@Logic@@UAEXI@Z 00412ea0 f   Logic:ControllerComponent.obj
 0001:00011eb0       ?accept@CCameraComponent@Logic@@UAE_NABVIMessage@2@@Z 00412eb0 f   Logic:CameraComponent.obj
 0001:00011eb0       ?accept@CTransform@Logic@@UAE_NABVIMessage@2@@Z 00412eb0 f   Logic:Transform.obj
 0001:00011eb0       ?accept@CGraphics@Logic@@UAE_NABVIMessage@2@@Z 00412eb0 f   Logic:Graphics.obj
 0001:00011eb0       ?accept@CControllerComponent@Logic@@UAE_NABVIMessage@2@@Z 00412eb0 f   Logic:ControllerComponent.obj
 0001:00011ec0       ?clear@?$list@VIMessage@Logic@@V?$allocator@VIMessage@Logic@@@std@@@std@@QAEXXZ 00412ec0 f i Logic:ControllerComponent.obj
 0001:00011f00       ?_Buynode0@?$_List_alloc@$0A@U?$_List_base_types@VIMessage@Logic@@V?$allocator@VIMessage@Logic@@@std@@@std@@@std@@QAEPAU?$_List_node@VIMessage@Logic@@PAX@2@PAU32@0@Z 00412f00 f i Logic:ControllerComponent.obj
 0001:00011f30       ?add@?$CFactory@PAVIComponent@Logic@@@Logic@@QAEXP6APAVIComponent@2@XZABV?$basic_string@DU?$char_traits@D@std@@V?$allocator@D@2@@std@@@Z 00412f30 f i Logic:ControllerComponent.obj
 0001:00011fe0       ??$_Buynode@AAU?$pair@V?$basic_string@DU?$char_traits@D@std@@V?$allocator@D@2@@std@@P6APAVIComponent@Logic@@XZ@std@@@?$_Tree_buy@U?$pair@$$CBV?$basic_string@DU?$char_traits@D@std@@V?$allocator@D@2@@std@@P6APAVIComponent@Logic@@XZ@std@@V?$allocator@U?$pair@$$CBV?$basic_string@DU?$char_traits@D@std@@V?$allocator@D@2@@std@@P6APAVIComponent@Logic@@XZ@std@@@2@@std@@QAEPAU?$_Tree_node@U?$pair@$$CBV?$basic_string@DU?$char_traits@D@std@@V?$allocator@D@2@@std@@P6APAVIComponent@Logic@@XZ@std@@PAX@1@AAU?$pair@V?$basic_string@DU?$char_traits@D@std@@V?$allocator@D@2@@std@@P6APAVIComponent@Logic@@XZ@1@@Z 00412fe0 f i Logic:ControllerComponent.obj
 0001:00012090       ??0CGraphics@Logic@@QAE@XZ 00413090 f i Logic:Graphics.obj
 0001:00012110       ??_ECGraphics@Logic@@UAEPAXI@Z 00413110 f i * CIL library *:* CIL module *
 0001:00012110       ??_GCGraphics@Logic@@UAEPAXI@Z 00413110 f i Logic:Graphics.obj
 0001:00012140       ?create@CGraphics@Logic@@SAPAVIComponent@2@XZ 00413140 f   Logic:Graphics.obj
 0001:000121b0       ?regist@CGraphics@Logic@@SA_NXZ 004131b0 f   Logic:Graphics.obj
 0001:000122f0       ??1CGraphics@Logic@@UAE@XZ 004132f0 f   Logic:Graphics.obj
 0001:000123e0       ?spawn@CGraphics@Logic@@UAE_NPAVCEntity@2@PAVCScene@2@PBVCMapEntity@Map@@@Z 004133e0 f   Logic:Graphics.obj
 0001:00012540       ?createGraphicEntity@CGraphics@Logic@@MAEPAVEntity@Ogre@@PBVCMapEntity@Map@@@Z 00413540 f   Logic:Graphics.obj
 0001:00012700       ??$?HDU?$char_traits@D@std@@V?$allocator@D@1@@std@@YA?AV?$basic_string@DU?$char_traits@D@std@@V?$allocator@D@2@@0@ABV10@PBD@Z 00413700 f i Logic:Graphics.obj
 0001:00012880       ?create@CTransform@Logic@@SAPAVIComponent@2@XZ 00413880 f   Logic:Transform.obj
 0001:00012930       ?regist@CTransform@Logic@@SA_NXZ 00413930 f   Logic:Transform.obj
 0001:00012a70       ?spawn@CTransform@Logic@@UAE_NPAVCEntity@2@PAVCScene@2@PBVCMapEntity@Map@@@Z 00413a70 f   Logic:Transform.obj
 0001:00012ca0       ?create@CCameraComponent@Logic@@SAPAVIComponent@2@XZ 00413ca0 f   Logic:CameraComponent.obj
 0001:00012d50       ?regist@CCameraComponent@Logic@@SA_NXZ 00413d50 f   Logic:CameraComponent.obj
 0001:00012e90       ?spawn@CCameraComponent@Logic@@UAE_NPAVCEntity@2@PAVCScene@2@PBVCMapEntity@Map@@@Z 00413e90 f   Logic:CameraComponent.obj
 0001:00012eb0       ?moveCamera@CCameraComponent@Logic@@EAEXPBVCMapEntity@Map@@@Z 00413eb0 f   Logic:CameraComponent.obj
 0001:00013070       ?getEntityList@CMap@Map@@QAE?BV?$list@PAVCMapEntity@Map@@V?$allocator@PAVCMapEntity@Map@@@std@@@std@@XZ 00414070 f i Logic:Scene.obj
 0001:00013090       ??0CScene@Logic@@QAE@ABV?$basic_string@DU?$char_traits@D@std@@V?$allocator@D@2@@std@@PAVRoot@Ogre@@PAVRenderWindow@5@W4SceneType@Data@Common@@@Z 00414090 f   Logic:Scene.obj
 0001:00013170       ??1CScene@Logic@@QAE@XZ    00414170 f   Logic:Scene.obj
 0001:00013270       ?createSceneFromFile@CScene@Logic@@SAPAV12@ABV?$basic_string@DU?$char_traits@D@std@@V?$allocator@D@2@@std@@PAVRoot@Ogre@@PAVRenderWindow@6@W4SceneType@Data@Common@@@Z 00414270 f   Logic:Scene.obj
 0001:000133d0       ?activate@CScene@Logic@@QAE_NXZ 004143d0 f   Logic:Scene.obj
 0001:00013460       ?deactivate@CScene@Logic@@QAEXXZ 00414460 f   Logic:Scene.obj
 0001:00013510       ?tick@CScene@Logic@@QAEXI@Z 00414510 f   Logic:Scene.obj
 0001:000135c0       ?removeEntity@CScene@Logic@@QAEXPAVCEntity@2@@Z 004145c0 f   Logic:Scene.obj
 0001:00013670       ?removeAllEntities@CScene@Logic@@QAEXXZ 00414670 f   Logic:Scene.obj
 0001:00013700       ?createOgreScene@CScene@Logic@@AAEXXZ 00414700 f   Logic:Scene.obj
 0001:00013880       ?destroyOgreScene@CScene@Logic@@AAEXXZ 00414880 f   Logic:Scene.obj
 0001:000139d0       ?activateOgreScene@CScene@Logic@@AAEXXZ 004149d0 f   Logic:Scene.obj
 0001:00013ca0       ?deactivateOgreScene@CScene@Logic@@AAEXXZ 00414ca0 f   Logic:Scene.obj
 0001:00013da0       ??0?$list@PAVCMapEntity@Map@@V?$allocator@PAVCMapEntity@Map@@@std@@@std@@QAE@ABV01@@Z 00414da0 f i Logic:Scene.obj
 0001:00013e40       ?_Tidy@?$list@PAVCMapEntity@Map@@V?$allocator@PAVCMapEntity@Map@@@std@@@std@@QAEXXZ 00414e40 f i Logic:Scene.obj
 0001:00013e40       ?clear@?$list@PAVCMapEntity@Map@@V?$allocator@PAVCMapEntity@Map@@@std@@@std@@QAEXXZ 00414e40 f i Logic:Scene.obj
 0001:00013e80       ?_Eqrange@?$_Tree@V?$_Tmap_traits@IPAVCEntity@Logic@@U?$less@I@std@@V?$allocator@U?$pair@$$CBIPAVCEntity@Logic@@@std@@@4@$0A@@std@@@std@@IBE?AU?$pair@V?$_Tree_const_iterator@V?$_Tree_val@U?$_Tree_simple_types@U?$pair@$$CBIPAVCEntity@Logic@@@std@@@std@@@std@@@std@@V12@@2@ABI@Z 00414e80 f i Logic:Scene.obj
 0001:00013e80       ?_Eqrange@?$_Tree@V?$_Tmap_traits@IPAVCEntity@Logic@@U?$less@I@std@@V?$allocator@U?$pair@$$CBIPAVCEntity@Logic@@@std@@@4@$0A@@std@@@std@@IAE?AU?$pair@V?$_Tree_iterator@V?$_Tree_val@U?$_Tree_simple_types@U?$pair@$$CBIPAVCEntity@Logic@@@std@@@std@@@std@@@std@@V12@@2@ABI@Z 00414e80 f i Logic:Scene.obj
 0001:00013f00       ??$_Insert_nohint@AAU?$pair@$$CBIPAVCEntity@Logic@@@std@@PAU?$_Tree_node@U?$pair@$$CBIPAVCEntity@Logic@@@std@@PAX@2@@?$_Tree@V?$_Tmap_traits@IPAVCEntity@Logic@@U?$less@I@std@@V?$allocator@U?$pair@$$CBIPAVCEntity@Logic@@@std@@@4@$0A@@std@@@std@@IAE?AU?$pair@V?$_Tree_iterator@V?$_Tree_val@U?$_Tree_simple_types@U?$pair@$$CBIPAVCEntity@Logic@@@std@@@std@@@std@@@std@@_N@1@_NAAU?$pair@$$CBIPAVCEntity@Logic@@@1@PAU?$_Tree_node@U?$pair@$$CBIPAVCEntity@Logic@@@std@@PAX@1@@Z 00414f00 f i Logic:Scene.obj
 0001:00014010       ??$_Insert_range@V?$_List_const_iterator@V?$_List_val@U?$_List_simple_types@PAVCMapEntity@Map@@@std@@@std@@@std@@@?$list@PAVCMapEntity@Map@@V?$allocator@PAVCMapEntity@Map@@@std@@@std@@QAEXV?$_List_unchecked_const_iterator@V?$_List_val@U?$_List_simple_types@PAVCMapEntity@Map@@@std@@@std@@U_Iterator_base0@2@@1@V?$_List_const_iterator@V?$_List_val@U?$_List_simple_types@PAVCMapEntity@Map@@@std@@@std@@@1@1Uforward_iterator_tag@1@@Z 00415010 f i Logic:Scene.obj
 0001:00014100       ??_GCComponentFactory@Logic@@EAEPAXI@Z 00415100 f i Logic:ComponentFactory.obj
 0001:00014100       ??_ECComponentFactory@Logic@@EAEPAXI@Z 00415100 f i * CIL library *:* CIL module *
 0001:00014140       ?getInstance@CComponentFactory@Logic@@SAPAV12@XZ 00415140 f   Logic:ComponentFactory.obj
 0001:000141e0       ??_E?$CFactory@PAVIComponent@Logic@@@Logic@@UAEPAXI@Z 004151e0 f i * CIL library *:* CIL module *
 0001:000141e0       ??_G?$CFactory@PAVIComponent@Logic@@@Logic@@UAEPAXI@Z 004151e0 f i Logic:ComponentFactory.obj
 0001:00014210       ??1?$CFactory@PAVIComponent@Logic@@@Logic@@UAE@XZ 00415210 f i Logic:ComponentFactory.obj
 0001:000142e0       ?processMessages@CMessageManager@Logic@@QAEXXZ 004152e0 f   Logic:MessageManager.obj
 0001:00014350       ?spawn@IComponent@Logic@@UAE_NPAVCEntity@2@PAVCScene@2@PBVCMapEntity@Map@@@Z 00415350 f   Logic:Component.obj
 0001:00014360       ?getEntityList@CMapParser@Map@@QAE?BV?$list@PAVCMapEntity@Map@@V?$allocator@PAVCMapEntity@Map@@@std@@@std@@XZ 00415360 f i Map:Map.obj
 0001:00014380       ??0CMap@Map@@AAE@XZ        00415380 f   Map:Map.obj
 0001:00014450       ??_ECMap@Map@@EAEPAXI@Z    00415450 f i * CIL library *:* CIL module *
 0001:00014450       ??_GCMap@Map@@EAEPAXI@Z    00415450 f i Map:Map.obj
 0001:00014480       ??1CMap@Map@@EAE@XZ        00415480 f   Map:Map.obj
 0001:00014530       ?parseFile@CMap@Map@@QAE_NABV?$basic_string@DU?$char_traits@D@std@@V?$allocator@D@2@@std@@@Z 00415530 f   Map:Map.obj
 0001:00014730       ?releaseEntityList@CMap@Map@@QAEXXZ 00415730 f   Map:Map.obj
 0001:000147f0       ?end@?$basic_string@DU?$char_traits@D@std@@V?$allocator@D@2@@std@@QBE?AV?$_String_const_iterator@V?$_String_val@U?$_Simple_types@D@std@@@std@@@2@XZ 004157f0 f i Map:Map.obj
 0001:00014820       ??4?$list@PAVCMapEntity@Map@@V?$allocator@PAVCMapEntity@Map@@@std@@@std@@QAEAAV01@$$QAV01@@Z 00415820 f i Map:Map.obj
 0001:00014880       ??$assign@V?$_List_const_iterator@V?$_List_val@U?$_List_simple_types@PAVCMapEntity@Map@@@std@@@std@@@std@@@?$list@PAVCMapEntity@Map@@V?$allocator@PAVCMapEntity@Map@@@std@@@std@@QAEXV?$_List_const_iterator@V?$_List_val@U?$_List_simple_types@PAVCMapEntity@Map@@@std@@@std@@@1@0@Z 00415880 f i Map:Map.obj
 0001:00014960       ?erase@?$list@PAVCMapEntity@Map@@V?$allocator@PAVCMapEntity@Map@@@std@@@std@@QAE?AV?$_List_iterator@V?$_List_val@U?$_List_simple_types@PAVCMapEntity@Map@@@std@@@std@@@2@V?$_List_const_iterator@V?$_List_val@U?$_List_simple_types@PAVCMapEntity@Map@@@std@@@std@@@2@0@Z 00415960 f i Map:Map.obj
 0001:000149d0       ?setAttribute@CMapEntity@Map@@QAEXABV?$basic_string@DU?$char_traits@D@std@@V?$allocator@D@2@@std@@0@Z 004159d0 f   Map:MapEntity.obj
 0001:00014b10       ?hasAttribute@CMapEntity@Map@@QBE_NABV?$basic_string@DU?$char_traits@D@std@@V?$allocator@D@2@@std@@@Z 00415b10 f   Map:MapEntity.obj
 0001:00014be0       ?getStringAttribute@CMapEntity@Map@@QBEABV?$basic_string@DU?$char_traits@D@std@@V?$allocator@D@2@@std@@ABV34@@Z 00415be0 f   Map:MapEntity.obj
 0001:00014c90       ?getBoolAttribute@CMapEntity@Map@@QBE_NABV?$basic_string@DU?$char_traits@D@std@@V?$allocator@D@2@@std@@@Z 00415c90 f   Map:MapEntity.obj
 0001:00014dd0       ?getVector3Attribute@CMapEntity@Map@@QBE?BVVector3@Ogre@@ABV?$basic_string@DU?$char_traits@D@std@@V?$allocator@D@2@@std@@@Z 00415dd0 f   Map:MapEntity.obj
 0001:00014f60       ?substr@?$basic_string@DU?$char_traits@D@std@@V?$allocator@D@2@@std@@QBE?AV12@II@Z 00415f60 f i Map:MapEntity.obj
 0001:00014fa0       ?compare@?$basic_string@DU?$char_traits@D@std@@V?$allocator@D@2@@std@@QBEHPBD@Z 00415fa0 f i Map:MapEntity.obj
 0001:00015000       ?find@?$basic_string@DU?$char_traits@D@std@@V?$allocator@D@2@@std@@QBEIPBDII@Z 00416000 f i Map:MapEntity.obj
 0001:00015090       ??$_Buynode@AAU?$pair@V?$basic_string@DU?$char_traits@D@std@@V?$allocator@D@2@@std@@V12@@std@@@?$_Tree_buy@U?$pair@$$CBV?$basic_string@DU?$char_traits@D@std@@V?$allocator@D@2@@std@@V12@@std@@V?$allocator@U?$pair@$$CBV?$basic_string@DU?$char_traits@D@std@@V?$allocator@D@2@@std@@V12@@std@@@2@@std@@QAEPAU?$_Tree_node@U?$pair@$$CBV?$basic_string@DU?$char_traits@D@std@@V?$allocator@D@2@@std@@V12@@std@@PAX@1@AAU?$pair@V?$basic_string@DU?$char_traits@D@std@@V?$allocator@D@2@@std@@V12@@1@@Z 00416090 f i Map:MapEntity.obj
 0001:00015160       ?to_string@std@@YA?AV?$basic_string@DU?$char_traits@D@std@@V?$allocator@D@2@@1@O@Z 00416160 f i Map:MapGenerator.obj
 0001:00015260       ?to_string@std@@YA?AV?$basic_string@DU?$char_traits@D@std@@V?$allocator@D@2@@1@M@Z 00416260 f i Map:MapGenerator.obj
 0001:00015290       ??0CMapEntity@Map@@QAE@ABV?$basic_string@DU?$char_traits@D@std@@V?$allocator@D@2@@std@@@Z 00416290 f i Map:MapGenerator.obj
 0001:00015330       ??1CMapGenerator@Map@@QAE@XZ 00416330 f   Map:MapGenerator.obj
 0001:00015380       ?generateGalaxy@CMapGenerator@Map@@QAE?AV?$list@PAVCMapEntity@Map@@V?$allocator@PAVCMapEntity@Map@@@std@@@std@@ABV?$basic_string@DU?$char_traits@D@std@@V?$allocator@D@2@@4@@Z 00416380 f   Map:MapGenerator.obj
 0001:00016530       ?generatePlanet@CMapGenerator@Map@@QAE?AV?$list@PAVCMapEntity@Map@@V?$allocator@PAVCMapEntity@Map@@@std@@@std@@ABV?$basic_string@DU?$char_traits@D@std@@V?$allocator@D@2@@4@@Z 00417530 f   Map:MapGenerator.obj
 0001:00016530       ?generateSystem@CMapGenerator@Map@@QAE?AV?$list@PAVCMapEntity@Map@@V?$allocator@PAVCMapEntity@Map@@@std@@@std@@ABV?$basic_string@DU?$char_traits@D@std@@V?$allocator@D@2@@4@@Z 00417530 f   Map:MapGenerator.obj
 0001:00016560       ?do_decimal_point@?$numpunct@D@std@@MBEDXZ 00417560 f i Map:MapGenerator.obj
 0001:00016570       ?do_thousands_sep@?$numpunct@D@std@@MBEDXZ 00417570 f i Map:MapGenerator.obj
 0001:00016580       ?do_grouping@?$numpunct@D@std@@MBE?AV?$basic_string@DU?$char_traits@D@std@@V?$allocator@D@2@@2@XZ 00417580 f i Map:MapGenerator.obj
 0001:000165e0       ?do_falsename@?$numpunct@D@std@@MBE?AV?$basic_string@DU?$char_traits@D@std@@V?$allocator@D@2@@2@XZ 004175e0 f i Map:MapGenerator.obj
 0001:00016640       ?do_truename@?$numpunct@D@std@@MBE?AV?$basic_string@DU?$char_traits@D@std@@V?$allocator@D@2@@2@XZ 00417640 f i Map:MapGenerator.obj
 0001:000166a0       ?do_put@?$num_put@DV?$back_insert_iterator@V?$basic_string@DU?$char_traits@D@std@@V?$allocator@D@2@@std@@@std@@@std@@MBE?AV?$back_insert_iterator@V?$basic_string@DU?$char_traits@D@std@@V?$allocator@D@2@@std@@@2@V32@AAVios_base@2@D_N@Z 004176a0 f i Map:MapGenerator.obj
 0001:00016870       ?do_put@?$num_put@DV?$back_insert_iterator@V?$basic_string@DU?$char_traits@D@std@@V?$allocator@D@2@@std@@@std@@@std@@MBE?AV?$back_insert_iterator@V?$basic_string@DU?$char_traits@D@std@@V?$allocator@D@2@@std@@@2@V32@AAVios_base@2@DJ@Z 00417870 f i Map:MapGenerator.obj
 0001:000168e0       ?do_put@?$num_put@DV?$back_insert_iterator@V?$basic_string@DU?$char_traits@D@std@@V?$allocator@D@2@@std@@@std@@@std@@MBE?AV?$back_insert_iterator@V?$basic_string@DU?$char_traits@D@std@@V?$allocator@D@2@@std@@@2@V32@AAVios_base@2@DK@Z 004178e0 f i Map:MapGenerator.obj
 0001:00016950       ?do_put@?$num_put@DV?$back_insert_iterator@V?$basic_string@DU?$char_traits@D@std@@V?$allocator@D@2@@std@@@std@@@std@@MBE?AV?$back_insert_iterator@V?$basic_string@DU?$char_traits@D@std@@V?$allocator@D@2@@std@@@2@V32@AAVios_base@2@D_J@Z 00417950 f i Map:MapGenerator.obj
 0001:000169c0       ?do_put@?$num_put@DV?$back_insert_iterator@V?$basic_string@DU?$char_traits@D@std@@V?$allocator@D@2@@std@@@std@@@std@@MBE?AV?$back_insert_iterator@V?$basic_string@DU?$char_traits@D@std@@V?$allocator@D@2@@std@@@2@V32@AAVios_base@2@D_K@Z 004179c0 f i Map:MapGenerator.obj
 0001:00016a30       ?do_put@?$num_put@DV?$back_insert_iterator@V?$basic_string@DU?$char_traits@D@std@@V?$allocator@D@2@@std@@@std@@@std@@MBE?AV?$back_insert_iterator@V?$basic_string@DU?$char_traits@D@std@@V?$allocator@D@2@@std@@@2@V32@AAVios_base@2@DN@Z 00417a30 f i Map:MapGenerator.obj
 0001:00016c60       ?do_put@?$num_put@DV?$back_insert_iterator@V?$basic_string@DU?$char_traits@D@std@@V?$allocator@D@2@@std@@@std@@@std@@MBE?AV?$back_insert_iterator@V?$basic_string@DU?$char_traits@D@std@@V?$allocator@D@2@@std@@@2@V32@AAVios_base@2@DO@Z 00417c60 f i Map:MapGenerator.obj
 0001:00016df0       ?do_put@?$num_put@DV?$back_insert_iterator@V?$basic_string@DU?$char_traits@D@std@@V?$allocator@D@2@@std@@@std@@@std@@MBE?AV?$back_insert_iterator@V?$basic_string@DU?$char_traits@D@std@@V?$allocator@D@2@@std@@@2@V32@AAVios_base@2@DPBX@Z 00417df0 f i Map:MapGenerator.obj
 0001:00016e50       ??A?$map@V?$basic_string@DU?$char_traits@D@std@@V?$allocator@D@2@@std@@_JU?$less@V?$basic_string@DU?$char_traits@D@std@@V?$allocator@D@2@@std@@@2@V?$allocator@U?$pair@$$CBV?$basic_string@DU?$char_traits@D@std@@V?$allocator@D@2@@std@@_J@std@@@2@@std@@QAEAA_JABV?$basic_string@DU?$char_traits@D@std@@V?$allocator@D@2@@1@@Z 00417e50 f i Map:MapGenerator.obj
 0001:00016f70       ??_E?$numpunct@D@std@@MAEPAXI@Z 00417f70 f i * CIL library *:* CIL module *
 0001:00016f70       ??_G?$numpunct@D@std@@MAEPAXI@Z 00417f70 f i Map:MapGenerator.obj
 0001:00016fc0       ??_E?$num_put@DV?$back_insert_iterator@V?$basic_string@DU?$char_traits@D@std@@V?$allocator@D@2@@std@@@std@@@std@@MAEPAXI@Z 00417fc0 f i * CIL library *:* CIL module *
 0001:00016fc0       ??_G?$num_put@DV?$back_insert_iterator@V?$basic_string@DU?$char_traits@D@std@@V?$allocator@D@2@@std@@@std@@@std@@MAEPAXI@Z 00417fc0 f i Map:MapGenerator.obj
 0001:00017000       ?assign@?$basic_string@DU?$char_traits@D@std@@V?$allocator@D@2@@std@@QAEAAV12@$$QAV12@@Z 00418000 f i Map:MapGenerator.obj
 0001:00017080       ?falsename@?$numpunct@D@std@@QBE?AV?$basic_string@DU?$char_traits@D@std@@V?$allocator@D@2@@2@XZ 00418080 f i Map:MapGenerator.obj
 0001:000170a0       ?truename@?$numpunct@D@std@@QBE?AV?$basic_string@DU?$char_traits@D@std@@V?$allocator@D@2@@2@XZ 004180a0 f i Map:MapGenerator.obj
 0001:000170c0       ?_Ffmt@?$num_put@DV?$back_insert_iterator@V?$basic_string@DU?$char_traits@D@std@@V?$allocator@D@2@@std@@@std@@@std@@ABAPADPADDH@Z 004180c0 f i Map:MapGenerator.obj
 0001:00017180       ?_Fput@?$num_put@DV?$back_insert_iterator@V?$basic_string@DU?$char_traits@D@std@@V?$allocator@D@2@@std@@@std@@@std@@ABA?AV?$back_insert_iterator@V?$basic_string@DU?$char_traits@D@std@@V?$allocator@D@2@@std@@@2@V32@AAVios_base@2@DPBDIIII@Z 00418180 f i Map:MapGenerator.obj
 0001:00017530       ?_Ifmt@?$num_put@DV?$back_insert_iterator@V?$basic_string@DU?$char_traits@D@std@@V?$allocator@D@2@@std@@@std@@@std@@ABAPADPADPBDH@Z 00418530 f i Map:MapGenerator.obj
 0001:000175c0       ?_Iput@?$num_put@DV?$back_insert_iterator@V?$basic_string@DU?$char_traits@D@std@@V?$allocator@D@2@@std@@@std@@@std@@ABA?AV?$back_insert_iterator@V?$basic_string@DU?$char_traits@D@std@@V?$allocator@D@2@@std@@@2@V32@AAVios_base@2@DPADI@Z 004185c0 f i Map:MapGenerator.obj
 0001:000178f0       ?_Put@?$num_put@DV?$back_insert_iterator@V?$basic_string@DU?$char_traits@D@std@@V?$allocator@D@2@@std@@@std@@@std@@ABA?AV?$back_insert_iterator@V?$basic_string@DU?$char_traits@D@std@@V?$allocator@D@2@@std@@@2@V32@PBDI@Z 004188f0 f i Map:MapGenerator.obj
 0001:00017960       ?_Rep@?$num_put@DV?$back_insert_iterator@V?$basic_string@DU?$char_traits@D@std@@V?$allocator@D@2@@std@@@std@@@std@@ABA?AV?$back_insert_iterator@V?$basic_string@DU?$char_traits@D@std@@V?$allocator@D@2@@std@@@2@V32@DI@Z 00418960 f i Map:MapGenerator.obj
 0001:000179c0       ??0?$mersenne_twister@I$0CA@$0CHA@$0BIN@$0BP@$0JJAILANP@$0L@$06$0JNCMFGIA@$0P@$0OPMGAAAA@$0BC@@std@@QAE@KII@Z 004189c0 f i Map:MapGenerator.obj
 0001:00017a10       ?grouping@?$numpunct@D@std@@QBE?AV?$basic_string@DU?$char_traits@D@std@@V?$allocator@D@2@@2@XZ 00418a10 f i Map:MapGenerator.obj
 0001:00017a30       ?_Buyheadnode@?$_Tree_alloc@$0A@U?$_Tree_base_types@U?$pair@$$CBV?$basic_string@DU?$char_traits@D@std@@V?$allocator@D@2@@std@@_J@std@@V?$allocator@U?$pair@$$CBV?$basic_string@DU?$char_traits@D@std@@V?$allocator@D@2@@std@@_J@std@@@2@@std@@@std@@QAEPAU?$_Tree_node@U?$pair@$$CBV?$basic_string@DU?$char_traits@D@std@@V?$allocator@D@2@@std@@_J@std@@PAX@2@XZ 00418a30 f i Map:MapGenerator.obj
 0001:00017a60       ??$use_facet@V?$num_put@DV?$back_insert_iterator@V?$basic_string@DU?$char_traits@D@std@@V?$allocator@D@2@@std@@@std@@@std@@@std@@YAABV?$num_put@DV?$back_insert_iterator@V?$basic_string@DU?$char_traits@D@std@@V?$allocator@D@2@@std@@@std@@@0@ABVlocale@0@@Z 00418a60 f i Map:MapGenerator.obj
 0001:00017b50       ??$?HDU?$char_traits@D@std@@V?$allocator@D@1@@std@@YA?AV?$basic_string@DU?$char_traits@D@std@@V?$allocator@D@2@@0@PBD$$QAV10@@Z 00418b50 f i Map:MapGenerator.obj
 0001:00017bf0       ??$?HDU?$char_traits@D@std@@V?$allocator@D@1@@std@@YA?AV?$basic_string@DU?$char_traits@D@std@@V?$allocator@D@2@@0@$$QAV10@PBD@Z 00418bf0 f i Map:MapGenerator.obj
 0001:00017c90       ??$?HDU?$char_traits@D@std@@V?$allocator@D@1@@std@@YA?AV?$basic_string@DU?$char_traits@D@std@@V?$allocator@D@2@@0@$$QAV10@0@Z 00418c90 f i Map:MapGenerator.obj
 0001:00017d50       ??$use_facet@V?$numpunct@D@std@@@std@@YAABV?$numpunct@D@0@ABVlocale@0@@Z 00418d50 f i Map:MapGenerator.obj
 0001:00017e40       ?_Getcat@?$numpunct@D@std@@SAIPAPBVfacet@locale@2@PBV42@@Z 00418e40 f i Map:MapGenerator.obj
 0001:00017f20       ?_Getcat@?$num_put@DV?$back_insert_iterator@V?$basic_string@DU?$char_traits@D@std@@V?$allocator@D@2@@std@@@std@@@std@@SAIPAPBVfacet@locale@2@PBV42@@Z 00418f20 f i Map:MapGenerator.obj
 0001:00017fe0       ?insert@?$basic_string@DU?$char_traits@D@std@@V?$allocator@D@2@@std@@QAEAAV12@IABV12@II@Z 00418fe0 f i Map:MapGenerator.obj
 0001:00018150       ?insert@?$basic_string@DU?$char_traits@D@std@@V?$allocator@D@2@@std@@QAEAAV12@IPBDI@Z 00419150 f i Map:MapGenerator.obj
 0001:000182b0       ?_Init@?$numpunct@D@std@@IAEXABV_Locinfo@2@_N@Z 004192b0 f i Map:MapGenerator.obj
 0001:00018400       ??$_Buynode@U?$pair@V?$basic_string@DU?$char_traits@D@std@@V?$allocator@D@2@@std@@_J@std@@@?$_Tree_buy@U?$pair@$$CBV?$basic_string@DU?$char_traits@D@std@@V?$allocator@D@2@@std@@_J@std@@V?$allocator@U?$pair@$$CBV?$basic_string@DU?$char_traits@D@std@@V?$allocator@D@2@@std@@_J@std@@@2@@std@@QAEPAU?$_Tree_node@U?$pair@$$CBV?$basic_string@DU?$char_traits@D@std@@V?$allocator@D@2@@std@@_J@std@@PAX@1@$$QAU?$pair@V?$basic_string@DU?$char_traits@D@std@@V?$allocator@D@2@@std@@_J@1@@Z 00419400 f i Map:MapGenerator.obj
 0001:00018430       ??$_Insert_hint@AAU?$pair@$$CBV?$basic_string@DU?$char_traits@D@std@@V?$allocator@D@2@@std@@_J@std@@PAU?$_Tree_node@U?$pair@$$CBV?$basic_string@DU?$char_traits@D@std@@V?$allocator@D@2@@std@@_J@std@@PAX@2@@?$_Tree@V?$_Tmap_traits@V?$basic_string@DU?$char_traits@D@std@@V?$allocator@D@2@@std@@_JU?$less@V?$basic_string@DU?$char_traits@D@std@@V?$allocator@D@2@@std@@@2@V?$allocator@U?$pair@$$CBV?$basic_string@DU?$char_traits@D@std@@V?$allocator@D@2@@std@@_J@std@@@2@$0A@@std@@@std@@IAE?AV?$_Tree_iterator@V?$_Tree_val@U?$_Tree_simple_types@U?$pair@$$CBV?$basic_string@DU?$char_traits@D@std@@V?$allocator@D@2@@std@@_J@std@@@std@@@std@@@1@V?$_Tree_const_iterator@V?$_Tree_val@U?$_Tree_simple_types@U?$pair@$$CBV?$basic_string@DU?$char_traits@D@std@@V?$allocator@D@2@@std@@_J@std@@@std@@@std@@@1@AAU?$pair@$$CBV?$basic_string@DU?$char_traits@D@std@@V?$allocator@D@2@@std@@_J@1@PAU?$_Tree_node@U?$pair@$$CBV?$basic_string@DU?$char_traits@D@std@@V?$allocator@D@2@@std@@_J@std@@PAX@1@@Z 00419430 f i Map:MapGenerator.obj
 0001:00018660       ?_Buynode0@?$_Tree_buy@U?$pair@$$CBV?$basic_string@DU?$char_traits@D@std@@V?$allocator@D@2@@std@@_J@std@@V?$allocator@U?$pair@$$CBV?$basic_string@DU?$char_traits@D@std@@V?$allocator@D@2@@std@@_J@std@@@2@@std@@QAEPAU?$_Tree_node@U?$pair@$$CBV?$basic_string@DU?$char_traits@D@std@@V?$allocator@D@2@@std@@_J@std@@PAX@2@XZ 00419660 f i Map:MapGenerator.obj
 0001:000186a0       ??R?$_Rng_from_urng@IV?$mersenne_twister_engine@I$0CA@$0CHA@$0BIN@$0BP@$0JJAILANP@$0L@$0PPPPPPPP@$06$0JNCMFGIA@$0P@$0OPMGAAAA@$0BC@$0GMAHIJGF@@std@@@std@@QAEII@Z 004196a0 f i Map:MapGenerator.obj
 0001:000187c0       ?_Refill_lower@?$mersenne_twister@I$0CA@$0CHA@$0BIN@$0BP@$0JJAILANP@$0L@$06$0JNCMFGIA@$0P@$0OPMGAAAA@$0BC@@std@@IAEXXZ 004197c0 f i Map:MapGenerator.obj
 0001:00018880       ?_Refill_upper@?$mersenne_twister@I$0CA@$0CHA@$0BIN@$0BP@$0JJAILANP@$0L@$06$0JNCMFGIA@$0P@$0OPMGAAAA@$0BC@@std@@IAEXXZ 00419880 f i Map:MapGenerator.obj
 0001:000188d0       ??$_Insert_at@AAU?$pair@$$CBV?$basic_string@DU?$char_traits@D@std@@V?$allocator@D@2@@std@@_J@std@@PAU?$_Tree_node@U?$pair@$$CBV?$basic_string@DU?$char_traits@D@std@@V?$allocator@D@2@@std@@_J@std@@PAX@2@@?$_Tree@V?$_Tmap_traits@V?$basic_string@DU?$char_traits@D@std@@V?$allocator@D@2@@std@@_JU?$less@V?$basic_string@DU?$char_traits@D@std@@V?$allocator@D@2@@std@@@2@V?$allocator@U?$pair@$$CBV?$basic_string@DU?$char_traits@D@std@@V?$allocator@D@2@@std@@_J@std@@@2@$0A@@std@@@std@@IAE?AV?$_Tree_iterator@V?$_Tree_val@U?$_Tree_simple_types@U?$pair@$$CBV?$basic_string@DU?$char_traits@D@std@@V?$allocator@D@2@@std@@_J@std@@@std@@@std@@@1@_NPAU?$_Tree_node@U?$pair@$$CBV?$basic_string@DU?$char_traits@D@std@@V?$allocator@D@2@@std@@_J@std@@PAX@1@AAU?$pair@$$CBV?$basic_string@DU?$char_traits@D@std@@V?$allocator@D@2@@std@@_J@1@1@Z 004198d0 f i Map:MapGenerator.obj
 0001:00018b00       ??$_Insert_nohint@AAU?$pair@$$CBV?$basic_string@DU?$char_traits@D@std@@V?$allocator@D@2@@std@@_J@std@@PAU?$_Tree_node@U?$pair@$$CBV?$basic_string@DU?$char_traits@D@std@@V?$allocator@D@2@@std@@_J@std@@PAX@2@@?$_Tree@V?$_Tmap_traits@V?$basic_string@DU?$char_traits@D@std@@V?$allocator@D@2@@std@@_JU?$less@V?$basic_string@DU?$char_traits@D@std@@V?$allocator@D@2@@std@@@2@V?$allocator@U?$pair@$$CBV?$basic_string@DU?$char_traits@D@std@@V?$allocator@D@2@@std@@_J@std@@@2@$0A@@std@@@std@@IAE?AU?$pair@V?$_Tree_iterator@V?$_Tree_val@U?$_Tree_simple_types@U?$pair@$$CBV?$basic_string@DU?$char_traits@D@std@@V?$allocator@D@2@@std@@_J@std@@@std@@@std@@@std@@_N@1@_NAAU?$pair@$$CBV?$basic_string@DU?$char_traits@D@std@@V?$allocator@D@2@@std@@_J@1@PAU?$_Tree_node@U?$pair@$$CBV?$basic_string@DU?$char_traits@D@std@@V?$allocator@D@2@@std@@_J@std@@PAX@1@@Z 00419b00 f i Map:MapGenerator.obj
 0001:00018d30       ??$?0V?$basic_string@DU?$char_traits@D@std@@V?$allocator@D@2@@std@@_J@?$pair@$$CBV?$basic_string@DU?$char_traits@D@std@@V?$allocator@D@2@@std@@_J@std@@QAE@$$QAU?$pair@V?$basic_string@DU?$char_traits@D@std@@V?$allocator@D@2@@std@@_J@1@PAPAX@Z 00419d30 f i Map:MapGenerator.obj
 0001:00018da0       ??6Map@@YAAAV?$basic_ostream@DU?$char_traits@D@std@@@std@@AAV12@ABVlocation@0@@Z 00419da0 f i Map:MapParser.obj
 0001:00018eb0       ??1CMapParser@Map@@QAE@XZ  00419eb0 f   Map:MapParser.obj
 0001:00018f40       ?parseStream@CMapParser@Map@@QAE_NAAV?$basic_istream@DU?$char_traits@D@std@@@std@@ABV?$basic_string@DU?$char_traits@D@std@@V?$allocator@D@2@@4@@Z 00419f40 f   Map:MapParser.obj
 0001:00019090       ?parseFile@CMapParser@Map@@QAE_NABV?$basic_string@DU?$char_traits@D@std@@V?$allocator@D@2@@std@@@Z 0041a090 f   Map:MapParser.obj
 0001:00019220       ??$?6U?$char_traits@D@std@@@std@@YAAAV?$basic_ostream@DU?$char_traits@D@std@@@0@AAV10@PBD@Z 0041a220 f i Map:MapParser.obj
 0001:00019430       ??$?6DU?$char_traits@D@std@@V?$allocator@D@1@@std@@YAAAV?$basic_ostream@DU?$char_traits@D@std@@@0@AAV10@ABV?$basic_string@DU?$char_traits@D@std@@V?$allocator@D@2@@0@@Z 0041a430 f i Map:MapParser.obj
 0001:000195f0       ??$?6U?$char_traits@D@std@@@std@@YAAAV?$basic_ostream@DU?$char_traits@D@std@@@0@AAV10@D@Z 0041a5f0 f i Map:MapParser.obj
 0001:000197c0       ??$?9DU?$char_traits@D@std@@V?$allocator@D@1@@std@@YA_NABV?$basic_string@DU?$char_traits@D@std@@V?$allocator@D@2@@0@0@Z 0041a7c0 f i Map:MapParser.obj
 0001:00019810       ?yytnamerr_@CParser@Map@@EAE?AV?$basic_string@DU?$char_traits@D@std@@V?$allocator@D@2@@std@@PBD@Z 0041a810 f   Map:Parser.obj
 0001:00019a40       ??0CParser@Map@@QAE@AAVCMapParser@1@@Z 0041aa40 f   Map:Parser.obj
 0001:00019b90       ??_GCParser@Map@@UAEPAXI@Z 0041ab90 f i Map:Parser.obj
 0001:00019b90       ??_ECParser@Map@@UAEPAXI@Z 0041ab90 f i * CIL library *:* CIL module *
 0001:00019c00       ??1?$stack@Vlocation@Map@@V?$deque@Vlocation@Map@@V?$allocator@Vlocation@Map@@@std@@@std@@@Map@@QAE@XZ 0041ac00 f i Map:Parser.obj
 0001:00019c00       ??1?$stack@Tsemantic_type@CParser@Map@@V?$deque@Tsemantic_type@CParser@Map@@V?$allocator@Tsemantic_type@CParser@Map@@@std@@@std@@@Map@@QAE@XZ 0041ac00 f i Map:Parser.obj
 0001:00019c00       ??1?$stack@HV?$deque@HV?$allocator@H@std@@@std@@@Map@@QAE@XZ 0041ac00 f i Map:Parser.obj
 0001:00019c20       ??1CParser@Map@@UAE@XZ     0041ac20 f   Map:Parser.obj
 0001:00019c80       ?yy_symbol_value_print_@CParser@Map@@EAEXHPBTsemantic_type@12@PBVlocation@2@@Z 0041ac80 f i Map:Parser.obj
 0001:00019c90       ?yy_symbol_print_@CParser@Map@@EAEXHPBTsemantic_type@12@PBVlocation@2@@Z 0041ac90 f   Map:Parser.obj
 0001:00019d30       ?yydestruct_@CParser@Map@@AAEXPBDHPATsemantic_type@12@PAVlocation@2@@Z 0041ad30 f i Map:Parser.obj
 0001:00019de0       ?yypop_@CParser@Map@@AAEXI@Z 0041ade0 f i Map:Parser.obj
 0001:00019e50       ?parse@CParser@Map@@UAEHXZ 0041ae50 f   Map:Parser.obj
 0001:0001b470       ?yysyntax_error_@CParser@Map@@EAE?AV?$basic_string@DU?$char_traits@D@std@@V?$allocator@D@2@@std@@HH@Z 0041c470 f   Map:Parser.obj
 0001:0001b660       ?yystack_print_@CParser@Map@@EAEXXZ 0041c660 f   Map:Parser.obj
 0001:0001b780       ?yy_reduce_print_@CParser@Map@@EAEXH@Z 0041c780 f   Map:Parser.obj
 0001:0001b910       ?error@CParser@Map@@EAEXABVlocation@2@ABV?$basic_string@DU?$char_traits@D@std@@V?$allocator@D@2@@std@@@Z 0041c910 f   Map:Parser.obj
 0001:0001b960       ??A?$stack@HV?$deque@HV?$allocator@H@std@@@std@@@Map@@QAEAAHI@Z 0041c960 f i Map:Parser.obj
 0001:0001b9b0       ?begin@?$stack@HV?$deque@HV?$allocator@H@std@@@std@@@Map@@QBE?AV?$reverse_iterator@V?$_Deque_const_iterator@V?$_Deque_val@U?$_Deque_simple_types@H@std@@@std@@@std@@@std@@XZ 0041c9b0 f i Map:Parser.obj
 0001:0001b9d0       ?end@?$stack@HV?$deque@HV?$allocator@H@std@@@std@@@Map@@QBE?AV?$reverse_iterator@V?$_Deque_const_iterator@V?$_Deque_val@U?$_Deque_simple_types@H@std@@@std@@@std@@@std@@XZ 0041c9d0 f i Map:Parser.obj
 0001:0001b9f0       ??4?$deque@HV?$allocator@H@std@@@std@@QAEAAV01@ABV01@@Z 0041c9f0 f i Map:Parser.obj
 0001:0001bb60       ??A?$stack@Tsemantic_type@CParser@Map@@V?$deque@Tsemantic_type@CParser@Map@@V?$allocator@Tsemantic_type@CParser@Map@@@std@@@std@@@Map@@QAEAATsemantic_type@CParser@1@I@Z 0041cb60 f i Map:Parser.obj
 0001:0001bbb0       ??4?$deque@Tsemantic_type@CParser@Map@@V?$allocator@Tsemantic_type@CParser@Map@@@std@@@std@@QAEAAV01@ABV01@@Z 0041cbb0 f i Map:Parser.obj
 0001:0001bd20       ??A?$stack@Vlocation@Map@@V?$deque@Vlocation@Map@@V?$allocator@Vlocation@Map@@@std@@@std@@@Map@@QAEAAVlocation@1@I@Z 0041cd20 f i Map:Parser.obj
 0001:0001bd70       ??4?$deque@Vlocation@Map@@V?$allocator@Vlocation@Map@@@std@@@std@@QAEAAV01@ABV01@@Z 0041cd70 f i Map:Parser.obj
 0001:0001bee0       ??0?$_Deque_const_iterator@V?$_Deque_val@U?$_Deque_simple_types@Vlocation@Map@@@std@@@std@@@std@@QAE@ABV01@@Z 0041cee0 f i Map:Parser.obj
 0001:0001bee0       ??0?$_Deque_iterator@V?$_Deque_val@U?$_Deque_simple_types@Vlocation@Map@@@std@@@std@@@std@@QAE@ABV01@@Z 0041cee0 f i Map:Parser.obj
 0001:0001bee0       ??0?$_Deque_iterator@V?$_Deque_val@U?$_Deque_simple_types@H@std@@@std@@@std@@QAE@ABV01@@Z 0041cee0 f i Map:Parser.obj
 0001:0001bee0       ??0?$_Deque_iterator@V?$_Deque_val@U?$_Deque_simple_types@Tsemantic_type@CParser@Map@@@std@@@std@@@std@@QAE@ABV01@@Z 0041cee0 f i Map:Parser.obj
 0001:0001bee0       ??0?$_Deque_const_iterator@V?$_Deque_val@U?$_Deque_simple_types@Tsemantic_type@CParser@Map@@@std@@@std@@@std@@QAE@ABV01@@Z 0041cee0 f i Map:Parser.obj
 0001:0001bee0       ??0?$_Deque_const_iterator@V?$_Deque_val@U?$_Deque_simple_types@H@std@@@std@@@std@@QAE@ABV01@@Z 0041cee0 f i Map:Parser.obj
 0001:0001bf40       ??0?$deque@Tsemantic_type@CParser@Map@@V?$allocator@Tsemantic_type@CParser@Map@@@std@@@std@@QAE@I@Z 0041cf40 f i Map:Parser.obj
 0001:0001bf40       ??0?$deque@HV?$allocator@H@std@@@std@@QAE@I@Z 0041cf40 f i Map:Parser.obj
 0001:0001bfe0       ?begin@?$deque@HV?$allocator@H@std@@@std@@QAE?AV?$_Deque_iterator@V?$_Deque_val@U?$_Deque_simple_types@H@std@@@std@@@2@XZ 0041cfe0 f i Map:Parser.obj
 0001:0001bfe0       ?begin@?$deque@Vlocation@Map@@V?$allocator@Vlocation@Map@@@std@@@std@@QBE?AV?$_Deque_const_iterator@V?$_Deque_val@U?$_Deque_simple_types@Vlocation@Map@@@std@@@std@@@2@XZ 0041cfe0 f i Map:Parser.obj
 0001:0001bfe0       ?begin@?$deque@Vlocation@Map@@V?$allocator@Vlocation@Map@@@std@@@std@@QAE?AV?$_Deque_iterator@V?$_Deque_val@U?$_Deque_simple_types@Vlocation@Map@@@std@@@std@@@2@XZ 0041cfe0 f i Map:Parser.obj
 0001:0001bfe0       ?begin@?$deque@HV?$allocator@H@std@@@std@@QBE?AV?$_Deque_const_iterator@V?$_Deque_val@U?$_Deque_simple_types@H@std@@@std@@@2@XZ 0041cfe0 f i Map:Parser.obj
 0001:0001bfe0       ?begin@?$deque@Tsemantic_type@CParser@Map@@V?$allocator@Tsemantic_type@CParser@Map@@@std@@@std@@QBE?AV?$_Deque_const_iterator@V?$_Deque_val@U?$_Deque_simple_types@Tsemantic_type@CParser@Map@@@std@@@std@@@2@XZ 0041cfe0 f i Map:Parser.obj
 0001:0001bfe0       ?begin@?$deque@Tsemantic_type@CParser@Map@@V?$allocator@Tsemantic_type@CParser@Map@@@std@@@std@@QAE?AV?$_Deque_iterator@V?$_Deque_val@U?$_Deque_simple_types@Tsemantic_type@CParser@Map@@@std@@@std@@@2@XZ 0041cfe0 f i Map:Parser.obj
 0001:0001c000       ?rbegin@?$deque@HV?$allocator@H@std@@@std@@QBE?AV?$reverse_iterator@V?$_Deque_const_iterator@V?$_Deque_val@U?$_Deque_simple_types@H@std@@@std@@@std@@@2@XZ 0041d000 f i Map:Parser.obj
 0001:0001c070       ?rend@?$deque@HV?$allocator@H@std@@@std@@QBE?AV?$reverse_iterator@V?$_Deque_const_iterator@V?$_Deque_val@U?$_Deque_simple_types@H@std@@@std@@@std@@@2@XZ 0041d070 f i Map:Parser.obj
 0001:0001c0e0       ?push_front@?$deque@HV?$allocator@H@std@@@std@@QAEXABH@Z 0041d0e0 f i Map:Parser.obj
 0001:0001c0e0       ?push_front@?$deque@Tsemantic_type@CParser@Map@@V?$allocator@Tsemantic_type@CParser@Map@@@std@@@std@@QAEXABTsemantic_type@CParser@Map@@@Z 0041d0e0 f i Map:Parser.obj
 0001:0001c180       ?pop_front@?$deque@Vlocation@Map@@V?$allocator@Vlocation@Map@@@std@@@std@@QAEXXZ 0041d180 f i Map:Parser.obj
 0001:0001c180       ?pop_front@?$deque@Tsemantic_type@CParser@Map@@V?$allocator@Tsemantic_type@CParser@Map@@@std@@@std@@QAEXXZ 0041d180 f i Map:Parser.obj
 0001:0001c180       ?pop_front@?$deque@HV?$allocator@H@std@@@std@@QAEXXZ 0041d180 f i Map:Parser.obj
 0001:0001c1a0       ?erase@?$deque@HV?$allocator@H@std@@@std@@QAE?AV?$_Deque_iterator@V?$_Deque_val@U?$_Deque_simple_types@H@std@@@std@@@2@V?$_Deque_const_iterator@V?$_Deque_val@U?$_Deque_simple_types@H@std@@@std@@@2@0@Z 0041d1a0 f i Map:Parser.obj
 0001:0001c1a0       ?erase@?$deque@Tsemantic_type@CParser@Map@@V?$allocator@Tsemantic_type@CParser@Map@@@std@@@std@@QAE?AV?$_Deque_iterator@V?$_Deque_val@U?$_Deque_simple_types@Tsemantic_type@CParser@Map@@@std@@@std@@@2@V?$_Deque_const_iterator@V?$_Deque_val@U?$_Deque_simple_types@Tsemantic_type@CParser@Map@@@std@@@std@@@2@0@Z 0041d1a0 f i Map:Parser.obj
 0001:0001c450       ??1?$_Deque_alloc@$0A@U?$_Deque_base_types@Vlocation@Map@@V?$allocator@Vlocation@Map@@@std@@@std@@@std@@QAE@XZ 0041d450 f i Map:Parser.obj
 0001:0001c450       ??1?$_Deque_alloc@$0A@U?$_Deque_base_types@HV?$allocator@H@std@@@std@@@std@@QAE@XZ 0041d450 f i Map:Parser.obj
 0001:0001c450       ??1?$_Deque_alloc@$0A@U?$_Deque_base_types@Tsemantic_type@CParser@Map@@V?$allocator@Tsemantic_type@CParser@Map@@@std@@@std@@@std@@QAE@XZ 0041d450 f i Map:Parser.obj
 0001:0001c470       ??0?$deque@Vlocation@Map@@V?$allocator@Vlocation@Map@@@std@@@std@@QAE@I@Z 0041d470 f i Map:Parser.obj
 0001:0001c510       ?push_front@?$deque@Vlocation@Map@@V?$allocator@Vlocation@Map@@@std@@@std@@QAEXABVlocation@Map@@@Z 0041d510 f i Map:Parser.obj
 0001:0001c5a0       ?erase@?$deque@Vlocation@Map@@V?$allocator@Vlocation@Map@@@std@@@std@@QAE?AV?$_Deque_iterator@V?$_Deque_val@U?$_Deque_simple_types@Vlocation@Map@@@std@@@std@@@2@V?$_Deque_const_iterator@V?$_Deque_val@U?$_Deque_simple_types@Vlocation@Map@@@std@@@std@@@2@0@Z 0041d5a0 f i Map:Parser.obj
 0001:0001c850       ??H?$_Deque_iterator@V?$_Deque_val@U?$_Deque_simple_types@Vlocation@Map@@@std@@@std@@@std@@QBE?AV01@H@Z 0041d850 f i Map:Parser.obj
 0001:0001c850       ??H?$_Deque_const_iterator@V?$_Deque_val@U?$_Deque_simple_types@H@std@@@std@@@std@@QBE?AV01@H@Z 0041d850 f i Map:Parser.obj
 0001:0001c850       ??H?$_Deque_iterator@V?$_Deque_val@U?$_Deque_simple_types@H@std@@@std@@@std@@QBE?AV01@H@Z 0041d850 f i Map:Parser.obj
 0001:0001c850       ??H?$_Deque_const_iterator@V?$_Deque_val@U?$_Deque_simple_types@Tsemantic_type@CParser@Map@@@std@@@std@@@std@@QBE?AV01@H@Z 0041d850 f i Map:Parser.obj
 0001:0001c850       ??H?$_Deque_const_iterator@V?$_Deque_val@U?$_Deque_simple_types@Vlocation@Map@@@std@@@std@@@std@@QBE?AV01@H@Z 0041d850 f i Map:Parser.obj
 0001:0001c850       ??H?$_Deque_iterator@V?$_Deque_val@U?$_Deque_simple_types@Tsemantic_type@CParser@Map@@@std@@@std@@@std@@QBE?AV01@H@Z 0041d850 f i Map:Parser.obj
 0001:0001c8e0       ?_Make_iter@?$deque@Tsemantic_type@CParser@Map@@V?$allocator@Tsemantic_type@CParser@Map@@@std@@@std@@QBE?AV?$_Deque_iterator@V?$_Deque_val@U?$_Deque_simple_types@Tsemantic_type@CParser@Map@@@std@@@std@@@2@V?$_Deque_const_iterator@V?$_Deque_val@U?$_Deque_simple_types@Tsemantic_type@CParser@Map@@@std@@@std@@@2@@Z 0041d8e0 f i Map:Parser.obj
 0001:0001c8e0       ?_Make_iter@?$deque@Vlocation@Map@@V?$allocator@Vlocation@Map@@@std@@@std@@QBE?AV?$_Deque_iterator@V?$_Deque_val@U?$_Deque_simple_types@Vlocation@Map@@@std@@@std@@@2@V?$_Deque_const_iterator@V?$_Deque_val@U?$_Deque_simple_types@Vlocation@Map@@@std@@@std@@@2@@Z 0041d8e0 f i Map:Parser.obj
 0001:0001c8e0       ?_Make_iter@?$deque@HV?$allocator@H@std@@@std@@QBE?AV?$_Deque_iterator@V?$_Deque_val@U?$_Deque_simple_types@H@std@@@std@@@2@V?$_Deque_const_iterator@V?$_Deque_val@U?$_Deque_simple_types@H@std@@@std@@@2@@Z 0041d8e0 f i Map:Parser.obj
 0001:0001c930       ?resize@?$deque@Tsemantic_type@CParser@Map@@V?$allocator@Tsemantic_type@CParser@Map@@@std@@@std@@QAEXI@Z 0041d930 f i Map:Parser.obj
 0001:0001c930       ?resize@?$deque@HV?$allocator@H@std@@@std@@QAEXI@Z 0041d930 f i Map:Parser.obj
 0001:0001ca40       ?pop_back@?$deque@Tsemantic_type@CParser@Map@@V?$allocator@Tsemantic_type@CParser@Map@@@std@@@std@@QAEXXZ 0041da40 f i Map:Parser.obj
 0001:0001ca40       ?pop_back@?$deque@HV?$allocator@H@std@@@std@@QAEXXZ 0041da40 f i Map:Parser.obj
 0001:0001ca40       ?pop_back@?$deque@Vlocation@Map@@V?$allocator@Vlocation@Map@@@std@@@std@@QAEXXZ 0041da40 f i Map:Parser.obj
 0001:0001ca60       ?resize@?$deque@Vlocation@Map@@V?$allocator@Vlocation@Map@@@std@@@std@@QAEXI@Z 0041da60 f i Map:Parser.obj
 0001:0001cb70       ?_Growmap@?$deque@Vlocation@Map@@V?$allocator@Vlocation@Map@@@std@@@std@@IAEXI@Z 0041db70 f i Map:Parser.obj
 0001:0001ccf0       ??0?$reverse_iterator@V?$_Deque_const_iterator@V?$_Deque_val@U?$_Deque_simple_types@H@std@@@std@@@std@@@std@@QAE@V?$_Deque_const_iterator@V?$_Deque_val@U?$_Deque_simple_types@H@std@@@std@@@1@@Z 0041dcf0 f i Map:Parser.obj
 0001:0001cd80       ??$?HDU?$char_traits@D@std@@V?$allocator@D@1@@std@@YA?AV?$basic_string@DU?$char_traits@D@std@@V?$allocator@D@2@@0@$$QAV10@ABV10@@Z 0041dd80 f i Map:Parser.obj
 0001:0001ce00       ??$copy@V?$_Deque_const_iterator@V?$_Deque_val@U?$_Deque_simple_types@H@std@@@std@@@std@@V?$_Deque_iterator@V?$_Deque_val@U?$_Deque_simple_types@H@std@@@std@@@2@@std@@YA?AV?$_Deque_iterator@V?$_Deque_val@U?$_Deque_simple_types@H@std@@@std@@@0@V?$_Deque_const_iterator@V?$_Deque_val@U?$_Deque_simple_types@H@std@@@std@@@0@0V10@@Z 0041de00 f i Map:Parser.obj
 0001:0001ce00       ??$copy@V?$_Deque_const_iterator@V?$_Deque_val@U?$_Deque_simple_types@Tsemantic_type@CParser@Map@@@std@@@std@@@std@@V?$_Deque_iterator@V?$_Deque_val@U?$_Deque_simple_types@Tsemantic_type@CParser@Map@@@std@@@std@@@2@@std@@YA?AV?$_Deque_iterator@V?$_Deque_val@U?$_Deque_simple_types@Tsemantic_type@CParser@Map@@@std@@@std@@@0@V?$_Deque_const_iterator@V?$_Deque_val@U?$_Deque_simple_types@Tsemantic_type@CParser@Map@@@std@@@std@@@0@0V10@@Z 0041de00 f i Map:Parser.obj
 0001:0001cf30       ??$insert@V?$_Deque_const_iterator@V?$_Deque_val@U?$_Deque_simple_types@H@std@@@std@@@std@@@?$deque@HV?$allocator@H@std@@@std@@QAE?AV?$_Deque_iterator@V?$_Deque_val@U?$_Deque_simple_types@H@std@@@std@@@1@V?$_Deque_const_iterator@V?$_Deque_val@U?$_Deque_simple_types@H@std@@@std@@@1@00@Z 0041df30 f i Map:Parser.obj
 0001:0001d180       ??$insert@V?$_Deque_const_iterator@V?$_Deque_val@U?$_Deque_simple_types@Tsemantic_type@CParser@Map@@@std@@@std@@@std@@@?$deque@Tsemantic_type@CParser@Map@@V?$allocator@Tsemantic_type@CParser@Map@@@std@@@std@@QAE?AV?$_Deque_iterator@V?$_Deque_val@U?$_Deque_simple_types@Tsemantic_type@CParser@Map@@@std@@@std@@@1@V?$_Deque_const_iterator@V?$_Deque_val@U?$_Deque_simple_types@Tsemantic_type@CParser@Map@@@std@@@std@@@1@00@Z 0041e180 f i Map:Parser.obj
 0001:0001d3d0       ??$copy@V?$_Deque_const_iterator@V?$_Deque_val@U?$_Deque_simple_types@Vlocation@Map@@@std@@@std@@@std@@V?$_Deque_iterator@V?$_Deque_val@U?$_Deque_simple_types@Vlocation@Map@@@std@@@std@@@2@@std@@YA?AV?$_Deque_iterator@V?$_Deque_val@U?$_Deque_simple_types@Vlocation@Map@@@std@@@std@@@0@V?$_Deque_const_iterator@V?$_Deque_val@U?$_Deque_simple_types@Vlocation@Map@@@std@@@std@@@0@0V10@@Z 0041e3d0 f i Map:Parser.obj
 0001:0001d500       ??$insert@V?$_Deque_const_iterator@V?$_Deque_val@U?$_Deque_simple_types@Vlocation@Map@@@std@@@std@@@std@@@?$deque@Vlocation@Map@@V?$allocator@Vlocation@Map@@@std@@@std@@QAE?AV?$_Deque_iterator@V?$_Deque_val@U?$_Deque_simple_types@Vlocation@Map@@@std@@@std@@@1@V?$_Deque_const_iterator@V?$_Deque_val@U?$_Deque_simple_types@Vlocation@Map@@@std@@@std@@@1@00@Z 0041e500 f i Map:Parser.obj
 0001:0001d730       ??$_Move_backward@V?$_Deque_iterator@V?$_Deque_val@U?$_Deque_simple_types@Tsemantic_type@CParser@Map@@@std@@@std@@@std@@V12@@std@@YA?AV?$_Deque_iterator@V?$_Deque_val@U?$_Deque_simple_types@Tsemantic_type@CParser@Map@@@std@@@std@@@0@V10@00@Z 0041e730 f i Map:Parser.obj
 0001:0001d730       ??$_Move_backward@V?$_Deque_iterator@V?$_Deque_val@U?$_Deque_simple_types@H@std@@@std@@@std@@V12@@std@@YA?AV?$_Deque_iterator@V?$_Deque_val@U?$_Deque_simple_types@H@std@@@std@@@0@V10@00@Z 0041e730 f i Map:Parser.obj
 0001:0001d850       ??$_Move@V?$_Deque_iterator@V?$_Deque_val@U?$_Deque_simple_types@H@std@@@std@@@std@@V12@@std@@YA?AV?$_Deque_iterator@V?$_Deque_val@U?$_Deque_simple_types@H@std@@@std@@@0@V10@00@Z 0041e850 f i Map:Parser.obj
 0001:0001d850       ??$_Move@V?$_Deque_iterator@V?$_Deque_val@U?$_Deque_simple_types@Tsemantic_type@CParser@Map@@@std@@@std@@@std@@V12@@std@@YA?AV?$_Deque_iterator@V?$_Deque_val@U?$_Deque_simple_types@Tsemantic_type@CParser@Map@@@std@@@std@@@0@V10@00@Z 0041e850 f i Map:Parser.obj
 0001:0001d970       ??$_Move_backward@V?$_Deque_iterator@V?$_Deque_val@U?$_Deque_simple_types@Vlocation@Map@@@std@@@std@@@std@@V12@@std@@YA?AV?$_Deque_iterator@V?$_Deque_val@U?$_Deque_simple_types@Vlocation@Map@@@std@@@std@@@0@V10@00@Z 0041e970 f i Map:Parser.obj
 0001:0001da90       ??$_Move@V?$_Deque_iterator@V?$_Deque_val@U?$_Deque_simple_types@Vlocation@Map@@@std@@@std@@@std@@V12@@std@@YA?AV?$_Deque_iterator@V?$_Deque_val@U?$_Deque_simple_types@Vlocation@Map@@@std@@@std@@@0@V10@00@Z 0041ea90 f i Map:Parser.obj
 0001:0001dbb0       ?push_back@?$deque@Vlocation@Map@@V?$allocator@Vlocation@Map@@@std@@@std@@QAEXABVlocation@Map@@@Z 0041ebb0 f i Map:Parser.obj
 0001:0001dc40       ??$reverse@V?$_Deque_iterator@V?$_Deque_val@U?$_Deque_simple_types@H@std@@@std@@@std@@@std@@YAXV?$_Deque_iterator@V?$_Deque_val@U?$_Deque_simple_types@H@std@@@std@@@0@0@Z 0041ec40 f i Map:Parser.obj
 0001:0001dcd0       ??$rotate@V?$_Deque_iterator@V?$_Deque_val@U?$_Deque_simple_types@H@std@@@std@@@std@@@std@@YA?AV?$_Deque_iterator@V?$_Deque_val@U?$_Deque_simple_types@H@std@@@std@@@0@V10@00@Z 0041ecd0 f i Map:Parser.obj
 0001:0001de80       ??$reverse@V?$_Deque_iterator@V?$_Deque_val@U?$_Deque_simple_types@Tsemantic_type@CParser@Map@@@std@@@std@@@std@@@std@@YAXV?$_Deque_iterator@V?$_Deque_val@U?$_Deque_simple_types@Tsemantic_type@CParser@Map@@@std@@@std@@@0@0@Z 0041ee80 f i Map:Parser.obj
 0001:0001df10       ??$rotate@V?$_Deque_iterator@V?$_Deque_val@U?$_Deque_simple_types@Tsemantic_type@CParser@Map@@@std@@@std@@@std@@@std@@YA?AV?$_Deque_iterator@V?$_Deque_val@U?$_Deque_simple_types@Tsemantic_type@CParser@Map@@@std@@@std@@@0@V10@00@Z 0041ef10 f i Map:Parser.obj
 0001:0001e0c0       ??$reverse@V?$_Deque_iterator@V?$_Deque_val@U?$_Deque_simple_types@Vlocation@Map@@@std@@@std@@@std@@@std@@YAXV?$_Deque_iterator@V?$_Deque_val@U?$_Deque_simple_types@Vlocation@Map@@@std@@@std@@@0@0@Z 0041f0c0 f i Map:Parser.obj
 0001:0001e150       ??$rotate@V?$_Deque_iterator@V?$_Deque_val@U?$_Deque_simple_types@Vlocation@Map@@@std@@@std@@@std@@@std@@YA?AV?$_Deque_iterator@V?$_Deque_val@U?$_Deque_simple_types@Vlocation@Map@@@std@@@std@@@0@V10@00@Z 0041f150 f i Map:Parser.obj
 0001:0001e300       ??$_Move_backward@V?$_Deque_iterator@V?$_Deque_val@U?$_Deque_simple_types@H@std@@@std@@@std@@V12@@std@@YA?AV?$_Deque_iterator@V?$_Deque_val@U?$_Deque_simple_types@H@std@@@std@@@0@V10@00U_Nonscalar_ptr_iterator_tag@0@@Z 0041f300 f i Map:Parser.obj
 0001:0001e300       ??$_Move_backward@V?$_Deque_iterator@V?$_Deque_val@U?$_Deque_simple_types@Tsemantic_type@CParser@Map@@@std@@@std@@@std@@V12@@std@@YA?AV?$_Deque_iterator@V?$_Deque_val@U?$_Deque_simple_types@Tsemantic_type@CParser@Map@@@std@@@std@@@0@V10@00U_Nonscalar_ptr_iterator_tag@0@@Z 0041f300 f i Map:Parser.obj
 0001:0001e3c0       ??$_Move@V?$_Deque_iterator@V?$_Deque_val@U?$_Deque_simple_types@H@std@@@std@@@std@@V12@@std@@YA?AV?$_Deque_iterator@V?$_Deque_val@U?$_Deque_simple_types@H@std@@@std@@@0@V10@00U_Nonscalar_ptr_iterator_tag@0@@Z 0041f3c0 f i Map:Parser.obj
 0001:0001e3c0       ??$_Move@V?$_Deque_iterator@V?$_Deque_val@U?$_Deque_simple_types@Tsemantic_type@CParser@Map@@@std@@@std@@@std@@V12@@std@@YA?AV?$_Deque_iterator@V?$_Deque_val@U?$_Deque_simple_types@Tsemantic_type@CParser@Map@@@std@@@std@@@0@V10@00U_Nonscalar_ptr_iterator_tag@0@@Z 0041f3c0 f i Map:Parser.obj
 0001:0001e480       ??$_Move_backward@V?$_Deque_iterator@V?$_Deque_val@U?$_Deque_simple_types@Vlocation@Map@@@std@@@std@@@std@@V12@@std@@YA?AV?$_Deque_iterator@V?$_Deque_val@U?$_Deque_simple_types@Vlocation@Map@@@std@@@std@@@0@V10@00U_Nonscalar_ptr_iterator_tag@0@@Z 0041f480 f i Map:Parser.obj
 0001:0001e540       ??$_Move@V?$_Deque_iterator@V?$_Deque_val@U?$_Deque_simple_types@Vlocation@Map@@@std@@@std@@@std@@V12@@std@@YA?AV?$_Deque_iterator@V?$_Deque_val@U?$_Deque_simple_types@Vlocation@Map@@@std@@@std@@@0@V10@00U_Nonscalar_ptr_iterator_tag@0@@Z 0041f540 f i Map:Parser.obj
 0001:0001e600       ??$_Copy_impl@V?$_Deque_unchecked_const_iterator@V?$_Deque_val@U?$_Deque_simple_types@H@std@@@std@@@std@@V?$_Deque_unchecked_iterator@V?$_Deque_val@U?$_Deque_simple_types@H@std@@@std@@@2@@std@@YA?AV?$_Deque_unchecked_iterator@V?$_Deque_val@U?$_Deque_simple_types@H@std@@@std@@@0@V?$_Deque_unchecked_const_iterator@V?$_Deque_val@U?$_Deque_simple_types@H@std@@@std@@@0@0V10@U_Nonscalar_ptr_iterator_tag@0@@Z 0041f600 f i Map:Parser.obj
 0001:0001e600       ??$_Copy_impl@V?$_Deque_unchecked_const_iterator@V?$_Deque_val@U?$_Deque_simple_types@Tsemantic_type@CParser@Map@@@std@@@std@@@std@@V?$_Deque_unchecked_iterator@V?$_Deque_val@U?$_Deque_simple_types@Tsemantic_type@CParser@Map@@@std@@@std@@@2@@std@@YA?AV?$_Deque_unchecked_iterator@V?$_Deque_val@U?$_Deque_simple_types@Tsemantic_type@CParser@Map@@@std@@@std@@@0@V?$_Deque_unchecked_const_iterator@V?$_Deque_val@U?$_Deque_simple_types@Tsemantic_type@CParser@Map@@@std@@@std@@@0@0V10@U_Nonscalar_ptr_iterator_tag@0@@Z 0041f600 f i Map:Parser.obj
 0001:0001e670       ??$_Reverse@V?$_Deque_unchecked_iterator@V?$_Deque_val@U?$_Deque_simple_types@H@std@@@std@@@std@@@std@@YAXV?$_Deque_unchecked_iterator@V?$_Deque_val@U?$_Deque_simple_types@H@std@@@std@@@0@0Ubidirectional_iterator_tag@0@@Z 0041f670 f i Map:Parser.obj
 0001:0001e6e0       ??$_Reverse@V?$_Deque_unchecked_iterator@V?$_Deque_val@U?$_Deque_simple_types@Tsemantic_type@CParser@Map@@@std@@@std@@@std@@@std@@YAXV?$_Deque_unchecked_iterator@V?$_Deque_val@U?$_Deque_simple_types@Tsemantic_type@CParser@Map@@@std@@@std@@@0@0Ubidirectional_iterator_tag@0@@Z 0041f6e0 f i Map:Parser.obj
 0001:0001e750       ??$_Copy_impl@V?$_Deque_unchecked_const_iterator@V?$_Deque_val@U?$_Deque_simple_types@Vlocation@Map@@@std@@@std@@@std@@V?$_Deque_unchecked_iterator@V?$_Deque_val@U?$_Deque_simple_types@Vlocation@Map@@@std@@@std@@@2@@std@@YA?AV?$_Deque_unchecked_iterator@V?$_Deque_val@U?$_Deque_simple_types@Vlocation@Map@@@std@@@std@@@0@V?$_Deque_unchecked_const_iterator@V?$_Deque_val@U?$_Deque_simple_types@Vlocation@Map@@@std@@@std@@@0@0V10@U_Nonscalar_ptr_iterator_tag@0@@Z 0041f750 f i Map:Parser.obj
 0001:0001e7c0       ??$_Reverse@V?$_Deque_unchecked_iterator@V?$_Deque_val@U?$_Deque_simple_types@Vlocation@Map@@@std@@@std@@@std@@@std@@YAXV?$_Deque_unchecked_iterator@V?$_Deque_val@U?$_Deque_simple_types@Vlocation@Map@@@std@@@std@@@0@0Ubidirectional_iterator_tag@0@@Z 0041f7c0 f i Map:Parser.obj
 0001:0001e840       ?base@?$_Revranit@V?$_Deque_const_iterator@V?$_Deque_val@U?$_Deque_simple_types@H@std@@@std@@@std@@U?$iterator@Urandom_access_iterator_tag@std@@HHPBHABH@2@@std@@QBE?AV?$_Deque_const_iterator@V?$_Deque_val@U?$_Deque_simple_types@H@std@@@std@@@2@XZ 0041f840 f i Map:Parser.obj
 0001:0001e8a0       ??$_Rotate@V?$_Deque_unchecked_iterator@V?$_Deque_val@U?$_Deque_simple_types@H@std@@@std@@@std@@HH@std@@YAXV?$_Deque_unchecked_iterator@V?$_Deque_val@U?$_Deque_simple_types@H@std@@@std@@@0@00PAH1@Z 0041f8a0 f i Map:Parser.obj
 0001:0001e9e0       ??$_Rotate@V?$_Deque_unchecked_iterator@V?$_Deque_val@U?$_Deque_simple_types@Tsemantic_type@CParser@Map@@@std@@@std@@@std@@HTsemantic_type@CParser@Map@@@std@@YAXV?$_Deque_unchecked_iterator@V?$_Deque_val@U?$_Deque_simple_types@Tsemantic_type@CParser@Map@@@std@@@std@@@0@00PAHPATsemantic_type@CParser@Map@@@Z 0041f9e0 f i Map:Parser.obj
 0001:0001eb20       ??$_Rotate@V?$_Deque_unchecked_iterator@V?$_Deque_val@U?$_Deque_simple_types@Vlocation@Map@@@std@@@std@@@std@@HVlocation@Map@@@std@@YAXV?$_Deque_unchecked_iterator@V?$_Deque_val@U?$_Deque_simple_types@Vlocation@Map@@@std@@@std@@@0@00PAHPAVlocation@Map@@@Z 0041fb20 f i Map:Parser.obj
 0001:0001ec70       ??_GFlexLexer@@UAEPAXI@Z   0041fc70 f i Map:Scanner.obj
 0001:0001ec70       ??_EFlexLexer@@UAEPAXI@Z   0041fc70 f i * CIL library *:* CIL module *
 0001:0001eca0       ?lex@CScanner@Map@@UAE?AW4yytokentype@token@CParser@2@PATsemantic_type@52@PAVlocation@2@@Z 0041fca0 f   Map:Scanner.obj
 0001:0001f5f0       ??0CMapFlexLexer@@QAE@PAV?$basic_istream@DU?$char_traits@D@std@@@std@@PAV?$basic_ostream@DU?$char_traits@D@std@@@2@@Z 004205f0 f   Map:Scanner.obj
 0001:0001f690       ??_ECMapFlexLexer@@UAEPAXI@Z 00420690 f i * CIL library *:* CIL module *
 0001:0001f690       ??_GCMapFlexLexer@@UAEPAXI@Z 00420690 f i Map:Scanner.obj
 0001:0001f6c0       ??1CMapFlexLexer@@UAE@XZ   004206c0 f   Map:Scanner.obj
 0001:0001f730       ?switch_streams@CMapFlexLexer@@UAEXPAV?$basic_istream@DU?$char_traits@D@std@@@std@@PAV?$basic_ostream@DU?$char_traits@D@std@@@3@@Z 00420730 f   Map:Scanner.obj
 0001:0001f780       ?LexerInput@CMapFlexLexer@@MAEHPADH@Z 00420780 f   Map:Scanner.obj
 0001:0001f7d0       ?LexerOutput@CMapFlexLexer@@MAEXPBDH@Z 004207d0 f   Map:Scanner.obj
 0001:0001f7f0       ?yy_get_next_buffer@CMapFlexLexer@@IAEHXZ 004207f0 f   Map:Scanner.obj
 0001:0001fa10       ?yy_get_previous_state@CMapFlexLexer@@IAEHXZ 00420a10 f   Map:Scanner.obj
 0001:0001fad0       ?yy_try_NUL_trans@CMapFlexLexer@@IAEHH@Z 00420ad0 f   Map:Scanner.obj
 0001:0001fb70       ?yyrestart@CMapFlexLexer@@UAEXPAV?$basic_istream@DU?$char_traits@D@std@@@std@@@Z 00420b70 f   Map:Scanner.obj
 0001:0001fc40       ?yy_switch_to_buffer@CMapFlexLexer@@UAEXPAUyy_buffer_state@@@Z 00420c40 f   Map:Scanner.obj
 0001:0001fce0       ?yy_create_buffer@CMapFlexLexer@@UAEPAUyy_buffer_state@@PAV?$basic_istream@DU?$char_traits@D@std@@@std@@H@Z 00420ce0 f   Map:Scanner.obj
 0001:0001fd90       ?yy_delete_buffer@CMapFlexLexer@@UAEXPAUyy_buffer_state@@@Z 00420d90 f   Map:Scanner.obj
 0001:0001fde0       ?yy_flush_buffer@CMapFlexLexer@@IAEXPAUyy_buffer_state@@@Z 00420de0 f   Map:Scanner.obj
 0001:0001fe60       ?yyensure_buffer_stack@CMapFlexLexer@@IAEXXZ 00420e60 f   Map:Scanner.obj
 0001:0001ff00       ?LexerError@CMapFlexLexer@@MAEXPBD@Z 00420f00 f   Map:Scanner.obj
 0001:0001ff30       ??_ECScanner@Map@@UAEPAXI@Z 00420f30 f i * CIL library *:* CIL module *
 0001:0001ff30       ??_GCScanner@Map@@UAEPAXI@Z 00420f30 f i Map:Scanner.obj
 0001:0001ff60       ??1CScanner@Map@@UAE@XZ    00420f60 f   Map:Scanner.obj
 0001:0001ff70       ?yylex@CMapFlexLexer@@UAEHXZ 00420f70 f   Map:Scanner.obj
 0001:0001ffa0       ?yywrap@CMapFlexLexer@@UAEHXZ 00420fa0 f   Map:Scanner.obj
 0001:0001ffa6       ?windowFocusChange@WindowEventListener@Ogre@@UAEXPAVRenderWindow@2@@Z 00420fa6 f   OgreMain:OgreMain.dll
 0001:0001ffac       ?windowClosed@WindowEventListener@Ogre@@UAEXPAVRenderWindow@2@@Z 00420fac f   OgreMain:OgreMain.dll
 0001:0001ffb2       ?windowResized@WindowEventListener@Ogre@@UAEXPAVRenderWindow@2@@Z 00420fb2 f   OgreMain:OgreMain.dll
 0001:0001ffb8       ?windowMoved@WindowEventListener@Ogre@@UAEXPAVRenderWindow@2@@Z 00420fb8 f   OgreMain:OgreMain.dll
 0001:0001ffbe       ?_Add_vtordisp1@?$basic_ios@DU?$char_traits@D@std@@@std@@UAEXXZ 00420fbe f   msvcprt:MSVCP110.dll
 0001:0001ffc4       ?imbue@?$basic_streambuf@DU?$char_traits@D@std@@@std@@MAEXABVlocale@2@@Z 00420fc4 f   msvcprt:MSVCP110.dll
 0001:0001ffca       ?sync@?$basic_streambuf@DU?$char_traits@D@std@@@std@@MAEHXZ 00420fca f   msvcprt:MSVCP110.dll
 0001:0001ffd0       ?setbuf@?$basic_streambuf@DU?$char_traits@D@std@@@std@@MAEPAV12@PAD_J@Z 00420fd0 f   msvcprt:MSVCP110.dll
 0001:0001ffd6       ?xsputn@?$basic_streambuf@DU?$char_traits@D@std@@@std@@MAE_JPBD_J@Z 00420fd6 f   msvcprt:MSVCP110.dll
 0001:0001ffdc       ?xsgetn@?$basic_streambuf@DU?$char_traits@D@std@@@std@@MAE_JPAD_J@Z 00420fdc f   msvcprt:MSVCP110.dll
 0001:0001ffe2       ?uflow@?$basic_streambuf@DU?$char_traits@D@std@@@std@@MAEHXZ 00420fe2 f   msvcprt:MSVCP110.dll
 0001:0001ffe8       ?showmanyc@?$basic_streambuf@DU?$char_traits@D@std@@@std@@MAE_JXZ 00420fe8 f   msvcprt:MSVCP110.dll
 0001:0001ffee       ?_Unlock@?$basic_streambuf@DU?$char_traits@D@std@@@std@@UAEXXZ 00420fee f   msvcprt:MSVCP110.dll
 0001:0001fff4       ?_Lock@?$basic_streambuf@DU?$char_traits@D@std@@@std@@UAEXXZ 00420ff4 f   msvcprt:MSVCP110.dll
 0001:0001fffa       ??1_Fac_node@std@@QAE@XZ   00420ffa f i msvcprt:locale0_implib.obj
 0001:0002000f       ??1_Fac_tidy_reg_t@std@@QAE@XZ 0042100f f i msvcprt:locale0_implib.obj
 0001:00020033       ?_Facet_Register@std@@YAXPAV_Facet_base@1@@Z 00421033 f   msvcprt:locale0_implib.obj
 0001:0002005c       ?_Add_vtordisp2@?$basic_ios@DU?$char_traits@D@std@@@std@@UAEXXZ 0042105c f   msvcprt:MSVCP110.dll
 0001:00020062       ??_U@YAPAXI@Z              00421062 f   msvcprt:newaop_s.obj
 0001:0002006c       ?_Decref@facet@locale@std@@UAEPAV_Facet_base@3@XZ 0042106c f   msvcprt:MSVCP110.dll
 0001:00020072       ?_Incref@facet@locale@std@@UAEXXZ 00421072 f   msvcprt:MSVCP110.dll
 0001:00020080       ??$?0V?$clone_impl@Ubad_alloc_@exception_detail@boost@@@exception_detail@boost@@@shared_count@detail@boost@@QAE@PAV?$clone_impl@Ubad_alloc_@exception_detail@boost@@@exception_detail@2@@Z 00421080 f i libboost_thread-vc110-mt-1_55:thread.obj
 0001:00020120       ??$?0V?$clone_impl@Ubad_exception_@exception_detail@boost@@@exception_detail@boost@@@shared_count@detail@boost@@QAE@PAV?$clone_impl@Ubad_exception_@exception_detail@boost@@@exception_detail@2@@Z 00421120 f i libboost_thread-vc110-mt-1_55:thread.obj
 0001:000201c0       ??$get_static_exception_object@Ubad_alloc_@exception_detail@boost@@@exception_detail@boost@@YA?AVexception_ptr@1@XZ 004211c0 f i libboost_thread-vc110-mt-1_55:thread.obj
 0001:00020420       ??$get_static_exception_object@Ubad_exception_@exception_detail@boost@@@exception_detail@boost@@YA?AVexception_ptr@1@XZ 00421420 f i libboost_thread-vc110-mt-1_55:thread.obj
 0001:00020680       ??$int_to_string@H@detail@boost@@YAXHPAD@Z 00421680 f i libboost_thread-vc110-mt-1_55:thread.obj
 0001:000206f0       ??$int_to_string@K@detail@boost@@YAXKPAD@Z 004216f0 f i libboost_thread-vc110-mt-1_55:thread.obj
 0001:00020760       ??0?$clone_impl@Ubad_alloc_@exception_detail@boost@@@exception_detail@boost@@AAE@ABV012@Uclone_tag@012@@Z 00421760 f i libboost_thread-vc110-mt-1_55:thread.obj
 0001:00020860       ??0?$clone_impl@Ubad_alloc_@exception_detail@boost@@@exception_detail@boost@@QAE@ABUbad_alloc_@12@@Z 00421860 f i libboost_thread-vc110-mt-1_55:thread.obj
 0001:00020960       ??0?$clone_impl@Ubad_alloc_@exception_detail@boost@@@exception_detail@boost@@QAE@ABV012@@Z 00421960 f i libboost_thread-vc110-mt-1_55:thread.obj
 0001:00020a40       ??0?$clone_impl@Ubad_exception_@exception_detail@boost@@@exception_detail@boost@@AAE@ABV012@Uclone_tag@012@@Z 00421a40 f i libboost_thread-vc110-mt-1_55:thread.obj
 0001:00020b40       ??0?$clone_impl@Ubad_exception_@exception_detail@boost@@@exception_detail@boost@@QAE@ABUbad_exception_@12@@Z 00421b40 f i libboost_thread-vc110-mt-1_55:thread.obj
 0001:00020c40       ??0?$clone_impl@Ubad_exception_@exception_detail@boost@@@exception_detail@boost@@QAE@ABV012@@Z 00421c40 f i libboost_thread-vc110-mt-1_55:thread.obj
 0001:00020d20       ??0bad_alloc_@exception_detail@boost@@QAE@ABU012@@Z 00421d20 f i libboost_thread-vc110-mt-1_55:thread.obj
 0001:00020dc0       ??0bad_exception@std@@QAE@ABV01@@Z 00421dc0 f i libboost_thread-vc110-mt-1_55:thread.obj
 0001:00020de0       ??0bad_exception_@exception_detail@boost@@QAE@ABU012@@Z 00421de0 f i libboost_thread-vc110-mt-1_55:thread.obj
 0001:00020e80       ??1?$clone_impl@Ubad_alloc_@exception_detail@boost@@@exception_detail@boost@@UAE@XZ 00421e80 f i libboost_thread-vc110-mt-1_55:thread.obj
 0001:00020ee0       ??1?$clone_impl@Ubad_exception_@exception_detail@boost@@@exception_detail@boost@@UAE@XZ 00421ee0 f i libboost_thread-vc110-mt-1_55:thread.obj
 0001:00020f40       ??1?$intrusive_ptr@Uthread_data_base@detail@boost@@@boost@@QAE@XZ 00421f40 f i libboost_thread-vc110-mt-1_55:thread.obj
 0001:00020f70       ??1bad_alloc_@exception_detail@boost@@UAE@XZ 00421f70 f i libboost_thread-vc110-mt-1_55:thread.obj
 0001:00020fb0       ??1bad_exception_@exception_detail@boost@@UAE@XZ 00421fb0 f i libboost_thread-vc110-mt-1_55:thread.obj
 0001:00021000       ??1once_context@detail@boost@@QAE@XZ 00422000 f i libboost_thread-vc110-mt-1_55:thread.obj
 0001:00021020       ??_D?$clone_impl@Ubad_alloc_@exception_detail@boost@@@exception_detail@boost@@QAEXXZ 00422020 f i libboost_thread-vc110-mt-1_55:thread.obj
 0001:00021040       ??_D?$clone_impl@Ubad_exception_@exception_detail@boost@@@exception_detail@boost@@QAEXXZ 00422040 f i libboost_thread-vc110-mt-1_55:thread.obj
 0001:00021051       ??_E?$clone_impl@Ubad_alloc_@exception_detail@boost@@@exception_detail@boost@@$4PPPPPPPM@CI@AEPAXI@Z 00422051 f i libboost_thread-vc110-mt-1_55:thread.obj
 0001:0002105c       ??_E?$clone_impl@Ubad_alloc_@exception_detail@boost@@@exception_detail@boost@@WBE@AEPAXI@Z 0042205c f i libboost_thread-vc110-mt-1_55:thread.obj
 0001:00021064       ??_E?$clone_impl@Ubad_exception_@exception_detail@boost@@@exception_detail@boost@@$4PPPPPPPM@CI@AEPAXI@Z 00422064 f i libboost_thread-vc110-mt-1_55:thread.obj
 0001:0002106f       ??_E?$clone_impl@Ubad_exception_@exception_detail@boost@@@exception_detail@boost@@WBE@AEPAXI@Z 0042206f f i libboost_thread-vc110-mt-1_55:thread.obj
 0001:00021077       ??_Ebad_alloc_@exception_detail@boost@@WBE@AEPAXI@Z 00422077 f i libboost_thread-vc110-mt-1_55:thread.obj
 0001:0002107f       ??_Ebad_exception_@exception_detail@boost@@WBE@AEPAXI@Z 0042207f f i libboost_thread-vc110-mt-1_55:thread.obj
 0001:00021090       ??_E?$clone_impl@Ubad_alloc_@exception_detail@boost@@@exception_detail@boost@@UAEPAXI@Z 00422090 f i libboost_thread-vc110-mt-1_55:thread.obj
 0001:00021090       ??_G?$clone_impl@Ubad_alloc_@exception_detail@boost@@@exception_detail@boost@@UAEPAXI@Z 00422090 f i libboost_thread-vc110-mt-1_55:thread.obj
 0001:000210c0       ??_G?$clone_impl@Ubad_exception_@exception_detail@boost@@@exception_detail@boost@@UAEPAXI@Z 004220c0 f i libboost_thread-vc110-mt-1_55:thread.obj
 0001:000210c0       ??_E?$clone_impl@Ubad_exception_@exception_detail@boost@@@exception_detail@boost@@UAEPAXI@Z 004220c0 f i libboost_thread-vc110-mt-1_55:thread.obj
 0001:000210f0       ??_E?$sp_counted_impl_p@V?$clone_impl@Ubad_alloc_@exception_detail@boost@@@exception_detail@boost@@@detail@boost@@UAEPAXI@Z 004220f0 f i libboost_thread-vc110-mt-1_55:thread.obj
 0001:000210f0       ??_G?$sp_counted_impl_p@V?$clone_impl@Ubad_exception_@exception_detail@boost@@@exception_detail@boost@@@detail@boost@@UAEPAXI@Z 004220f0 f i libboost_thread-vc110-mt-1_55:thread.obj
 0001:000210f0       ??_E?$sp_counted_impl_p@V?$clone_impl@Ubad_exception_@exception_detail@boost@@@exception_detail@boost@@@detail@boost@@UAEPAXI@Z 004220f0 f i libboost_thread-vc110-mt-1_55:thread.obj
 0001:000210f0       ??_G?$sp_counted_impl_p@V?$clone_impl@Ubad_alloc_@exception_detail@boost@@@exception_detail@boost@@@detail@boost@@UAEPAXI@Z 004220f0 f i libboost_thread-vc110-mt-1_55:thread.obj
 0001:00021110       ??_Gbad_alloc_@exception_detail@boost@@UAEPAXI@Z 00422110 f i libboost_thread-vc110-mt-1_55:thread.obj
 0001:00021110       ??_Ebad_alloc_@exception_detail@boost@@UAEPAXI@Z 00422110 f i libboost_thread-vc110-mt-1_55:thread.obj
 0001:00021160       ??_Gbad_exception@std@@UAEPAXI@Z 00422160 f i libboost_thread-vc110-mt-1_55:thread.obj
 0001:00021160       ??_Ebad_exception@std@@UAEPAXI@Z 00422160 f i libboost_thread-vc110-mt-1_55:thread.obj
 0001:00021190       ??_Ebad_exception_@exception_detail@boost@@UAEPAXI@Z 00422190 f i libboost_thread-vc110-mt-1_55:thread.obj
 0001:00021190       ??_Gbad_exception_@exception_detail@boost@@UAEPAXI@Z 00422190 f i libboost_thread-vc110-mt-1_55:thread.obj
 0001:000211e0       ?_Lrotate@?$_Tree@V?$_Tmap_traits@PBXUtss_data_node@detail@boost@@U?$less@PBX@std@@V?$allocator@U?$pair@QBXUtss_data_node@detail@boost@@@std@@@5@$0A@@std@@@std@@IAEXPAU?$_Tree_node@U?$pair@QBXUtss_data_node@detail@boost@@@std@@PAX@2@@Z 004221e0 f i libboost_thread-vc110-mt-1_55:thread.obj
 0001:00021230       ?_Max@?$_Tree_val@U?$_Tree_simple_types@U?$pair@QBXUtss_data_node@detail@boost@@@std@@@std@@@std@@SAPAU?$_Tree_node@U?$pair@QBXUtss_data_node@detail@boost@@@std@@PAX@2@PAU32@@Z 00422230 f i libboost_thread-vc110-mt-1_55:thread.obj
 0001:00021250       ?_Min@?$_Tree_val@U?$_Tree_simple_types@U?$pair@QBXUtss_data_node@detail@boost@@@std@@@std@@@std@@SAPAU?$_Tree_node@U?$pair@QBXUtss_data_node@detail@boost@@@std@@PAX@2@PAU32@@Z 00422250 f i libboost_thread-vc110-mt-1_55:thread.obj
 0001:00021270       ?_Rrotate@?$_Tree@V?$_Tmap_traits@PBXUtss_data_node@detail@boost@@U?$less@PBX@std@@V?$allocator@U?$pair@QBXUtss_data_node@detail@boost@@@std@@@5@$0A@@std@@@std@@IAEXPAU?$_Tree_node@U?$pair@QBXUtss_data_node@detail@boost@@@std@@PAX@2@@Z 00422270 f i libboost_thread-vc110-mt-1_55:thread.obj
 0001:000212d0       ?call_once@boost@@YAXAAUonce_flag@1@P6AXXZ@Z 004222d0 f i libboost_thread-vc110-mt-1_55:thread.obj
 0001:000214c7       ?clone@?$clone_impl@Ubad_alloc_@exception_detail@boost@@@exception_detail@boost@@$0PPPPPPPM@A@BEPBVclone_base@23@XZ 004224c7 f i libboost_thread-vc110-mt-1_55:thread.obj
 0001:000214d0       ?clone@?$clone_impl@Ubad_alloc_@exception_detail@boost@@@exception_detail@boost@@EBEPBVclone_base@23@XZ 004224d0 f i libboost_thread-vc110-mt-1_55:thread.obj
 0001:00021559       ?clone@?$clone_impl@Ubad_exception_@exception_detail@boost@@@exception_detail@boost@@$0PPPPPPPM@A@BEPBVclone_base@23@XZ 00422559 f i libboost_thread-vc110-mt-1_55:thread.obj
 0001:00021570       ?clone@?$clone_impl@Ubad_exception_@exception_detail@boost@@@exception_detail@boost@@EBEPBVclone_base@23@XZ 00422570 f i libboost_thread-vc110-mt-1_55:thread.obj
 0001:00021600       ?commit_once_region@detail@boost@@YAXAAUonce_flag@2@AAUonce_context@12@@Z 00422600 f i libboost_thread-vc110-mt-1_55:thread.obj
 0001:00021670       ?create_current_thread_tls_key@?A0xc3b1390f@boost@@YAXXZ 00422670 f   libboost_thread-vc110-mt-1_55:thread.obj
 0001:00021690       ?create_once_event@detail@boost@@YAPAXPADPAX@Z 00422690 f i libboost_thread-vc110-mt-1_55:thread.obj
 0001:000216f0       ?dispose@?$sp_counted_impl_p@V?$clone_impl@Ubad_alloc_@exception_detail@boost@@@exception_detail@boost@@@detail@boost@@UAEXXZ 004226f0 f i libboost_thread-vc110-mt-1_55:thread.obj
 0001:000216f0       ?dispose@?$sp_counted_impl_p@V?$clone_impl@Ubad_exception_@exception_detail@boost@@@exception_detail@boost@@@detail@boost@@UAEXXZ 004226f0 f i libboost_thread-vc110-mt-1_55:thread.obj
 0001:00021700       ?erase@?$_Tree@V?$_Tmap_traits@PBXUtss_data_node@detail@boost@@U?$less@PBX@std@@V?$allocator@U?$pair@QBXUtss_data_node@detail@boost@@@std@@@5@$0A@@std@@@std@@QAE?AV?$_Tree_iterator@V?$_Tree_val@U?$_Tree_simple_types@U?$pair@QBXUtss_data_node@detail@boost@@@std@@@std@@@std@@@2@V?$_Tree_const_iterator@V?$_Tree_val@U?$_Tree_simple_types@U?$pair@QBXUtss_data_node@detail@boost@@@std@@@std@@@std@@@2@@Z 00422700 f i libboost_thread-vc110-mt-1_55:thread.obj
 0001:00021970       ?get_deleter@?$sp_counted_impl_p@V?$clone_impl@Ubad_alloc_@exception_detail@boost@@@exception_detail@boost@@@detail@boost@@UAEPAXABVtype_info@@@Z 00422970 f i libboost_thread-vc110-mt-1_55:thread.obj
 0001:00021970       ?get_deleter@?$sp_counted_impl_p@V?$clone_impl@Ubad_exception_@exception_detail@boost@@@exception_detail@boost@@@detail@boost@@UAEPAXABVtype_info@@@Z 00422970 f i libboost_thread-vc110-mt-1_55:thread.obj
 0001:00021980       ?get_untyped_deleter@?$sp_counted_impl_p@V?$clone_impl@Ubad_alloc_@exception_detail@boost@@@exception_detail@boost@@@detail@boost@@UAEPAXXZ 00422980 f i libboost_thread-vc110-mt-1_55:thread.obj
 0001:00021980       ?get_untyped_deleter@?$sp_counted_impl_p@V?$clone_impl@Ubad_exception_@exception_detail@boost@@@exception_detail@boost@@@detail@boost@@UAEPAXXZ 00422980 f i libboost_thread-vc110-mt-1_55:thread.obj
 0001:00021990       ?on_process_exit@boost@@YAXXZ 00422990 f   libboost_thread-vc110-mt-1_55:thread.obj
 0001:000219b0       ?on_thread_exit@boost@@YAXXZ 004229b0 f   libboost_thread-vc110-mt-1_55:thread.obj
 0001:000219c0       ?open_once_event@detail@boost@@YAPAXPADPAX@Z 004229c0 f i libboost_thread-vc110-mt-1_55:thread.obj
 0001:00021a12       ?rethrow@?$clone_impl@Ubad_alloc_@exception_detail@boost@@@exception_detail@boost@@$0PPPPPPPM@A@BEXXZ 00422a12 f i libboost_thread-vc110-mt-1_55:thread.obj
 0001:00021a20       ?rethrow@?$clone_impl@Ubad_alloc_@exception_detail@boost@@@exception_detail@boost@@EBEXXZ 00422a20 f i libboost_thread-vc110-mt-1_55:thread.obj
 0001:00021a42       ?rethrow@?$clone_impl@Ubad_exception_@exception_detail@boost@@@exception_detail@boost@@$0PPPPPPPM@A@BEXXZ 00422a42 f i libboost_thread-vc110-mt-1_55:thread.obj
 0001:00021a50       ?rethrow@?$clone_impl@Ubad_exception_@exception_detail@boost@@@exception_detail@boost@@EBEXXZ 00422a50 f i libboost_thread-vc110-mt-1_55:thread.obj
 0001:00021a80       ?rollback_once_region@detail@boost@@YAXAAUonce_flag@2@AAUonce_context@12@@Z 00422a80 f i libboost_thread-vc110-mt-1_55:thread.obj
 0001:00021ad0       ?run_thread_exit_callbacks@?A0xc3b1390f@boost@@YAXXZ 00422ad0 f   libboost_thread-vc110-mt-1_55:thread.obj
 0001:00021ce0       ?dll_callback@?A0x157c5c39@@YGHPAXK0@Z 00422ce0 f   libboost_thread-vc110-mt-1_55:tss_pe.obj
 0001:00021d20       ??1local_free_on_destruction@detail@system@boost@@QAE@XZ 00422d20 f i libboost_system-vc110-mt-1_55:error_code.obj
 0001:00021d30       ??_Gerror_category@system@boost@@UAEPAXI@Z 00422d30 f i libboost_system-vc110-mt-1_55:error_code.obj
 0001:00021d30       ??_Gsystem_error_category@?A0xeba5f5ee@system@boost@@UAEPAXI@Z 00422d30 f i libboost_system-vc110-mt-1_55:error_code.obj
 0001:00021d30       ??_Eerror_category@system@boost@@UAEPAXI@Z 00422d30 f i libboost_system-vc110-mt-1_55:error_code.obj
 0001:00021d30       ??_Egeneric_error_category@?A0xeba5f5ee@system@boost@@UAEPAXI@Z 00422d30 f i libboost_system-vc110-mt-1_55:error_code.obj
 0001:00021d30       ??_Ggeneric_error_category@?A0xeba5f5ee@system@boost@@UAEPAXI@Z 00422d30 f i libboost_system-vc110-mt-1_55:error_code.obj
 0001:00021d30       ??_Esystem_error_category@?A0xeba5f5ee@system@boost@@UAEPAXI@Z 00422d30 f i libboost_system-vc110-mt-1_55:error_code.obj
 0001:00021d50       ?default_error_condition@error_category@system@boost@@UBE?AVerror_condition@23@H@Z 00422d50 f i libboost_system-vc110-mt-1_55:error_code.obj
 0001:00021d70       ?default_error_condition@system_error_category@?A0xeba5f5ee@system@boost@@UBE?AVerror_condition@34@H@Z 00422d70 f   libboost_system-vc110-mt-1_55:error_code.obj
 0001:00022760       ?equivalent@error_category@system@boost@@UBE_NABVerror_code@23@H@Z 00423760 f i libboost_system-vc110-mt-1_55:error_code.obj
 0001:00022780       ?equivalent@error_category@system@boost@@UBE_NHABVerror_condition@23@@Z 00423780 f i libboost_system-vc110-mt-1_55:error_code.obj
 0001:000227c0       ?generic_category@system@boost@@YAABVerror_category@12@XZ 004237c0 f   libboost_system-vc110-mt-1_55:error_code.obj
 0001:00022830       ?make_error_condition@errc@system@boost@@YA?AVerror_condition@23@W4errc_t@123@@Z 00423830 f i libboost_system-vc110-mt-1_55:error_code.obj
 0001:000228b0       ?message@generic_error_category@?A0xeba5f5ee@system@boost@@UBE?AV?$basic_string@DU?$char_traits@D@std@@V?$allocator@D@2@@std@@H@Z 004238b0 f   libboost_system-vc110-mt-1_55:error_code.obj
 0001:00022aa0       ?message@system_error_category@?A0xeba5f5ee@system@boost@@UBE?AV?$basic_string@DU?$char_traits@D@std@@V?$allocator@D@2@@std@@H@Z 00423aa0 f   libboost_system-vc110-mt-1_55:error_code.obj
 0001:00022c90       ?system_category@system@boost@@YAABVerror_category@12@XZ 00423c90 f   libboost_system-vc110-mt-1_55:error_code.obj
 0001:00022cf5       @__security_check_cookie@4 00423cf5 f   MSVCRT:secchk.obj
 0001:00022d04       ___atonexitinit            00423d04 f   MSVCRT:atonexit.obj
 0001:00022d40       __onexit                   00423d40 f   MSVCRT:atonexit.obj
 0001:00022de5       _atexit                    00423de5 f   MSVCRT:atonexit.obj
 0001:00022dfa       __purecall                 00423dfa f   MSVCRT:MSVCR110.dll
 0001:00022e00       ??3@YAXPAX@Z               00423e00 f   MSVCRT:MSVCR110.dll
 0001:00022e06       ??_Etype_info@@UAEPAXI@Z   00423e06 f i MSVCRT:ti_inst.obj
 0001:00022e50       ??2@YAPAXI@Z               00423e50 f   MSVCRT:MSVCR110.dll
 0001:00022e56       ??1bad_cast@std@@UAE@XZ    00423e56 f   MSVCRT:MSVCR110.dll
 0001:00022e5c       ??0bad_cast@std@@QAE@ABV01@@Z 00423e5c f   MSVCRT:MSVCR110.dll
 0001:00022e62       ??0exception@std@@QAE@ABV01@@Z 00423e62 f   MSVCRT:MSVCR110.dll
 0001:00022e68       ?what@exception@std@@UBEPBDXZ 00423e68 f   MSVCRT:MSVCR110.dll
 0001:00022f72       _WinMainCRTStartup         00423f72 f   MSVCRT:crtexew.obj
 0001:0002312d       ??_M@YGXPAXIHP6EX0@Z@Z     0042412d f   MSVCRT:ehvecdtr.obj
 0001:0002319c       ?__ArrayUnwind@@YGXPAXIHP6EX0@Z@Z 0042419c f   MSVCRT:ehvecdtr.obj
 0001:000231fa       __CxxThrowException@8      004241fa f   MSVCRT:MSVCR110.dll
 0001:00023200       ___CxxFrameHandler3        00424200 f   MSVCRT:MSVCR110.dll
 0001:00023210       __alldiv                   00424210 f   MSVCRT:lldiv.obj
 0001:000232c0       __allmul                   004242c0 f   MSVCRT:llmul.obj
 0001:00023300       __allrem                   00424300 f   MSVCRT:llrem.obj
 0001:000233c0       __aulldiv                  004243c0 f   MSVCRT:ulldiv.obj
 0001:00023428       _memcpy                    00424428 f   MSVCRT:MSVCR110.dll
 0001:0002342e       ___raise_securityfailure   0042442e f   MSVCRT:gs_report.obj
 0001:0002346b       ___report_gsfailure        0042446b f   MSVCRT:gs_report.obj
 0001:00023564       __lock                     00424564 f   MSVCRT:MSVCR110.dll
 0001:0002356a       __unlock                   0042456a f   MSVCRT:MSVCR110.dll
 0001:00023570       ___dllonexit               00424570 f   MSVCRT:MSVCR110.dll
 0001:00023580       __SEH_prolog4              00424580 f   MSVCRT:sehprolg4.obj
 0001:000235c5       __SEH_epilog4              004245c5 f   MSVCRT:sehprolg4.obj
 0001:000235d9       __except_handler4          004245d9 f   MSVCRT:chandler4gs.obj
 0001:000235fc       ??1type_info@@UAE@XZ       004245fc f   MSVCRT:MSVCR110.dll
 0001:00023602       ?__CxxUnhandledExceptionFilter@@YGJPAU_EXCEPTION_POINTERS@@@Z 00424602 f   MSVCRT:unhandld.obj
 0001:00023643       ___CxxSetUnhandledExceptionFilter 00424643 f   MSVCRT:unhandld.obj
 0001:00023652       __XcptFilter               00424652 f   MSVCRT:MSVCR110.dll
 0001:00023658       __amsg_exit                00424658 f   MSVCRT:MSVCR110.dll
 0001:00023660       __FindPESection            00424660 f   MSVCRT:pesect.obj
 0001:000236b0       __IsNonwritableInCurrentImage 004246b0 f   MSVCRT:pesect.obj
 0001:00023770       __ValidateImageBase        00424770 f   MSVCRT:pesect.obj
 0001:000237a1       ___security_init_cookie    004247a1 f   MSVCRT:gs_support.obj
 0001:0002383b       __setargv                  0042483b f   MSVCRT:dllargv.obj
 0001:0002383b       __matherr                  0042483b f   MSVCRT:merr.obj
 0001:0002383e       __RTC_Initialize           0042483e f   MSVCRT:initsect.obj
 0001:0002385e       __RTC_Terminate            0042485e f   MSVCRT:initsect.obj
 0001:0002387e       __setdefaultprecision      0042487e f   MSVCRT:fp8.obj
 0001:000238a6       __initterm_e               004248a6 f   MSVCRT:MSVCR110.dll
 0001:000238ac       __initterm                 004248ac f   MSVCRT:MSVCR110.dll
 0001:000238b2       ?terminate@@YAXXZ          004248b2 f   MSVCRT:MSVCR110.dll
 0001:000238b8       __crt_debugger_hook        004248b8 f   MSVCRT:MSVCR110.dll
 0001:000238be       ___crtUnhandledException   004248be f   MSVCRT:MSVCR110.dll
 0001:000238c4       ___crtTerminateProcess     004248c4 f   MSVCRT:MSVCR110.dll
 0001:000238ca       __except_handler4_common   004248ca f   MSVCRT:MSVCR110.dll
 0001:000238d0       ___crtSetUnhandledExceptionFilter 004248d0 f   MSVCRT:MSVCR110.dll
 0001:000238d6       __invoke_watson            004248d6 f   MSVCRT:MSVCR110.dll
 0001:000238dc       __controlfp_s              004248dc f   MSVCRT:MSVCR110.dll
 0001:000238f0       ?_Copy@?$basic_string@_WU?$char_traits@_W@std@@V?$allocator@_W@2@@std@@QAEXII@Z 004248f0 f i libboost_log-vc110-mt-1_55:record_ostream.obj
 0001:00023a50       ?allocate@?$_Wrap_alloc@V?$allocator@_W@std@@@std@@QAEPA_WI@Z 00424a50 f i libboost_log-vc110-mt-1_55:record_ostream.obj
 0001:00023a80       ?assign@?$basic_string@_WU?$char_traits@_W@std@@V?$allocator@_W@2@@std@@QAEAAV12@ABV12@II@Z 00424a80 f i libboost_log-vc110-mt-1_55:record_ostream.obj
 0001:00023b90       ?erase@?$basic_string@_WU?$char_traits@_W@std@@V?$allocator@_W@2@@std@@QAEAAV12@II@Z 00424b90 f i libboost_log-vc110-mt-1_55:record_ostream.obj
 0001:00023c30       ?assign@?$basic_string@_WU?$char_traits@_W@std@@V?$allocator@_W@2@@std@@QAEAAV12@PB_WI@Z 00424c30 f i libboost_log-vc110-mt-1_55:text_file_backend.obj
 0001:00023d22       _IsProcessorFeaturePresent@4 00424d22 f   kernel32:KERNEL32.dll
 0001:00023d28       _memset                    00424d28 f   MSVCRT:MSVCR110.dll
 0001:00023d30       __chkstk                   00424d30 f   MSVCRT:chkstk.obj
 0001:00023d30       __alloca_probe             00424d30     MSVCRT:chkstk.obj
 0001:00023d5c       __libm_sse2_atan_precise   00424d5c f   MSVCRT:MSVCR110.dll
 0002:00000000       __imp_?ms_Singleton@?$Singleton@VSchemeManager@CEGUI@@@CEGUI@@1PAVSchemeManager@2@A 00429000     CEGUIBase-0:CEGUIBase-0.dll
 0002:00000004       __imp_?createFromFile@?$NamedXMLResourceManager@VScheme@CEGUI@@VScheme_xmlHandler@2@@CEGUI@@QAEAAVScheme@2@ABVString@2@0W4XMLResourceExistsAction@2@@Z 00429004     CEGUIBase-0:CEGUIBase-0.dll
 0002:00000008       __imp_?ms_Singleton@?$Singleton@VFontManager@CEGUI@@@CEGUI@@1PAVFontManager@2@A 00429008     CEGUIBase-0:CEGUIBase-0.dll
 0002:0000000c       __imp_?createFromFile@?$NamedXMLResourceManager@VFont@CEGUI@@VFont_xmlHandler@2@@CEGUI@@QAEAAVFont@2@ABVString@2@0W4XMLResourceExistsAction@2@@Z 0042900c     CEGUIBase-0:CEGUIBase-0.dll
 0002:00000010       __imp_?setDefaultImage@MouseCursor@CEGUI@@QAEXABVString@2@@Z 00429010     CEGUIBase-0:CEGUIBase-0.dll
 0002:00000014       __imp_?setDefaultFont@GUIContext@CEGUI@@QAEXPAVFont@2@@Z 00429014     CEGUIBase-0:CEGUIBase-0.dll
 0002:00000018       __imp_?getChildElement@NamedElement@CEGUI@@QBEPAV12@ABVString@2@@Z 00429018     CEGUIBase-0:CEGUIBase-0.dll
 0002:0000001c       __imp_?EventClicked@PushButton@CEGUI@@2VString@2@B 0042901c     CEGUIBase-0:CEGUIBase-0.dll
 0002:00000020       __imp_??1SubscriberSlot@CEGUI@@QAE@XZ 00429020     CEGUIBase-0:CEGUIBase-0.dll
 0002:00000024       __imp_?loadLayoutFromFile@WindowManager@CEGUI@@QAEPAVWindow@2@ABVString@2@0P6A_NPAV32@AAV42@2PAX@Z3@Z 00429024     CEGUIBase-0:CEGUIBase-0.dll
 0002:00000028       __imp_?setRootWindow@GUIContext@CEGUI@@QAEXPAVWindow@2@@Z 00429028     CEGUIBase-0:CEGUIBase-0.dll
 0002:0000002c       __imp_?getMouseCursor@GUIContext@CEGUI@@QAEAAVMouseCursor@2@XZ 0042902c     CEGUIBase-0:CEGUIBase-0.dll
 0002:00000030       __imp_?setVisible@Window@CEGUI@@QAEX_N@Z 00429030     CEGUIBase-0:CEGUIBase-0.dll
 0002:00000034       __imp_?activate@Window@CEGUI@@QAEXXZ 00429034     CEGUIBase-0:CEGUIBase-0.dll
 0002:00000038       __imp_?deactivate@Window@CEGUI@@QAEXXZ 00429038     CEGUIBase-0:CEGUIBase-0.dll
 0002:0000003c       __imp_?getDefaultGUIContext@System@CEGUI@@QBEAAVGUIContext@2@XZ 0042903c     CEGUIBase-0:CEGUIBase-0.dll
 0002:00000040       __imp_?ms_Singleton@?$Singleton@VWindowManager@CEGUI@@@CEGUI@@1PAVWindowManager@2@A 00429040     CEGUIBase-0:CEGUIBase-0.dll
 0002:00000044       __imp_??1BoundSlot@CEGUI@@QAE@XZ 00429044     CEGUIBase-0:CEGUIBase-0.dll
 0002:00000048       __imp_??0String@CEGUI@@QAE@PBD@Z 00429048     CEGUIBase-0:CEGUIBase-0.dll
 0002:0000004c       __imp_?setDefaultResourceGroup@Font@CEGUI@@SAXABVString@2@@Z 0042904c     CEGUIBase-0:CEGUIBase-0.dll
 0002:00000050       __imp_?setImagesetDefaultResourceGroup@ImageManager@CEGUI@@SAXABVString@2@@Z 00429050     CEGUIBase-0:CEGUIBase-0.dll
 0002:00000054       __imp_?setDefaultResourceGroup@Scheme@CEGUI@@SAXABVString@2@@Z 00429054     CEGUIBase-0:CEGUIBase-0.dll
 0002:00000058       __imp_?setDefaultResourceGroup@WindowManager@CEGUI@@SAXABVString@2@@Z 00429058     CEGUIBase-0:CEGUIBase-0.dll
 0002:0000005c       __imp_?setDefaultResourceGroup@WidgetLookManager@CEGUI@@SAXABVString@2@@Z 0042905c     CEGUIBase-0:CEGUIBase-0.dll
 0002:00000060       __imp_?setResourceGroupDirectory@DefaultResourceProvider@CEGUI@@QAEXABVString@2@0@Z 00429060     CEGUIBase-0:CEGUIBase-0.dll
 0002:00000064       __imp_??1String@CEGUI@@QAE@XZ 00429064     CEGUIBase-0:CEGUIBase-0.dll
 0002:00000068       __imp_?create@System@CEGUI@@SAAAV12@AAVRenderer@2@PAVResourceProvider@2@PAVXMLParser@2@PAVImageCodec@2@PAVScriptModule@2@ABVString@2@5H@Z 00429068     CEGUIBase-0:CEGUIBase-0.dll
 0002:0000006c       __imp_?destroy@System@CEGUI@@SAXXZ 0042906c     CEGUIBase-0:CEGUIBase-0.dll
 0002:00000070       __imp_?getSingletonPtr@System@CEGUI@@SAPAV12@XZ 00429070     CEGUIBase-0:CEGUIBase-0.dll
 0002:00000074       __imp_?getResourceProvider@System@CEGUI@@QBEPAVResourceProvider@2@XZ 00429074     CEGUIBase-0:CEGUIBase-0.dll
 0002:00000078       __imp_?setProperty@PropertySet@CEGUI@@QAEXABVString@2@0@Z 00429078     CEGUIBase-0:CEGUIBase-0.dll
 0002:0000007c       __imp_?isPropertyPresent@PropertySet@CEGUI@@QBE_NABVString@2@@Z 0042907c     CEGUIBase-0:CEGUIBase-0.dll
 0002:00000080       \177CEGUIBase-0_NULL_THUNK_DATA 00429080     CEGUIBase-0:CEGUIBase-0.dll
 0002:00000084       __imp_?create@OgreRenderer@CEGUI@@SAAAV12@AAVRenderTarget@Ogre@@H@Z 00429084     CEGUIOgreRenderer-0:CEGUIOgreRenderer-0.dll
 0002:00000088       \177CEGUIOgreRenderer-0_NULL_THUNK_DATA 00429088     CEGUIOgreRenderer-0:CEGUIOgreRenderer-0.dll
 0002:0000008c       __imp__GetCurrentProcessId@0 0042908c     kernel32:KERNEL32.dll
 0002:00000090       __imp__GetCurrentThreadId@0 00429090     kernel32:KERNEL32.dll
 0002:00000094       __imp__ResetEvent@4        00429094     kernel32:KERNEL32.dll
 0002:00000098       __imp__TlsAlloc@0          00429098     kernel32:KERNEL32.dll
 0002:0000009c       __imp__TlsGetValue@4       0042909c     kernel32:KERNEL32.dll
 0002:000000a0       __imp__TlsSetValue@8       004290a0     kernel32:KERNEL32.dll
 0002:000000a4       __imp__TlsFree@4           004290a4     kernel32:KERNEL32.dll
 0002:000000a8       __imp__LocalFree@4         004290a8     kernel32:KERNEL32.dll
 0002:000000ac       __imp__FormatMessageA@28   004290ac     kernel32:KERNEL32.dll
 0002:000000b0       __imp__EncodePointer@4     004290b0     kernel32:KERNEL32.dll
 0002:000000b4       __imp__DecodePointer@4     004290b4     kernel32:KERNEL32.dll
 0002:000000b8       __imp__IsDebuggerPresent@0 004290b8     kernel32:KERNEL32.dll
 0002:000000bc       __imp__IsProcessorFeaturePresent@4 004290bc     kernel32:KERNEL32.dll
 0002:000000c0       __imp__QueryPerformanceCounter@4 004290c0     kernel32:KERNEL32.dll
 0002:000000c4       __imp__GetModuleHandleA@4  004290c4     kernel32:KERNEL32.dll
 0002:000000c8       __imp__GetProcAddress@8    004290c8     kernel32:KERNEL32.dll
 0002:000000cc       __imp__GetSystemTimeAsFileTime@4 004290cc     kernel32:KERNEL32.dll
 0002:000000d0       __imp__GetProcessHeap@0    004290d0     kernel32:KERNEL32.dll
 0002:000000d4       __imp__CreateEventA@16     004290d4     kernel32:KERNEL32.dll
 0002:000000d8       __imp__CloseHandle@4       004290d8     kernel32:KERNEL32.dll
 0002:000000dc       __imp__HeapFree@12         004290dc     kernel32:KERNEL32.dll
 0002:000000e0       __imp__WaitForSingleObject@8 004290e0     kernel32:KERNEL32.dll
 0002:000000e4       __imp__SetEvent@4          004290e4     kernel32:KERNEL32.dll
 0002:000000e8       __imp__OpenEventA@12       004290e8     kernel32:KERNEL32.dll
 0002:000000ec       \177KERNEL32_NULL_THUNK_DATA 004290ec     kernel32:KERNEL32.dll
 0002:000000f0       __imp_?setbuf@?$basic_streambuf@DU?$char_traits@D@std@@@std@@MAEPAV12@PAD_J@Z 004290f0     msvcprt:MSVCP110.dll
 0002:000000f4       __imp_?xsputn@?$basic_streambuf@DU?$char_traits@D@std@@@std@@MAE_JPBD_J@Z 004290f4     msvcprt:MSVCP110.dll
 0002:000000f8       __imp_?xsgetn@?$basic_streambuf@DU?$char_traits@D@std@@@std@@MAE_JPAD_J@Z 004290f8     msvcprt:MSVCP110.dll
 0002:000000fc       __imp_?uflow@?$basic_streambuf@DU?$char_traits@D@std@@@std@@MAEHXZ 004290fc     msvcprt:MSVCP110.dll
 0002:00000100       __imp_?showmanyc@?$basic_streambuf@DU?$char_traits@D@std@@@std@@MAE_JXZ 00429100     msvcprt:MSVCP110.dll
 0002:00000104       __imp_?_Unlock@?$basic_streambuf@DU?$char_traits@D@std@@@std@@UAEXXZ 00429104     msvcprt:MSVCP110.dll
 0002:00000108       __imp_?_Lock@?$basic_streambuf@DU?$char_traits@D@std@@@std@@UAEXXZ 00429108     msvcprt:MSVCP110.dll
 0002:0000010c       __imp_??1?$basic_streambuf@DU?$char_traits@D@std@@@std@@UAE@XZ 0042910c     msvcprt:MSVCP110.dll
 0002:00000110       __imp_??1_Lockit@std@@QAE@XZ 00429110     msvcprt:MSVCP110.dll
 0002:00000114       __imp_??0_Lockit@std@@QAE@H@Z 00429114     msvcprt:MSVCP110.dll
 0002:00000118       __imp_?_Getgloballocale@locale@std@@CAPAV_Locimp@12@XZ 00429118     msvcprt:MSVCP110.dll
 0002:0000011c       __imp_?_Fiopen@std@@YAPAU_iobuf@@PBDHH@Z 0042911c     msvcprt:MSVCP110.dll
 0002:00000120       __imp_?id@?$codecvt@DDH@std@@2V0locale@2@A 00429120     msvcprt:MSVCP110.dll
 0002:00000124       __imp_?_Getcat@?$codecvt@DDH@std@@SAIPAPBVfacet@locale@2@PBV42@@Z 00429124     msvcprt:MSVCP110.dll
 0002:00000128       __imp_?widen@?$basic_ios@DU?$char_traits@D@std@@@std@@QBEDD@Z 00429128     msvcprt:MSVCP110.dll
 0002:0000012c       __imp_?_Init@?$basic_streambuf@DU?$char_traits@D@std@@@std@@IAEXXZ 0042912c     msvcprt:MSVCP110.dll
 0002:00000130       __imp_?getloc@?$basic_streambuf@DU?$char_traits@D@std@@@std@@QBE?AVlocale@2@XZ 00429130     msvcprt:MSVCP110.dll
 0002:00000134       __imp_?unshift@?$codecvt@DDH@std@@QBEHAAHPAD1AAPAD@Z 00429134     msvcprt:MSVCP110.dll
 0002:00000138       __imp_?_Ipfx@?$basic_istream@DU?$char_traits@D@std@@@std@@QAE_N_N@Z 00429138     msvcprt:MSVCP110.dll
 0002:0000013c       __imp_??0?$basic_istream@DU?$char_traits@D@std@@@std@@QAE@PAV?$basic_streambuf@DU?$char_traits@D@std@@@1@_N@Z 0042913c     msvcprt:MSVCP110.dll
 0002:00000140       __imp_?sbumpc@?$basic_streambuf@DU?$char_traits@D@std@@@std@@QAEHXZ 00429140     msvcprt:MSVCP110.dll
 0002:00000144       __imp_?out@?$codecvt@DDH@std@@QBEHAAHPBD1AAPBDPAD3AAPAD@Z 00429144     msvcprt:MSVCP110.dll
 0002:00000148       __imp_?in@?$codecvt@DDH@std@@QBEHAAHPBD1AAPBDPAD3AAPAD@Z 00429148     msvcprt:MSVCP110.dll
 0002:0000014c       __imp_?peek@?$basic_istream@DU?$char_traits@D@std@@@std@@QAEHXZ 0042914c     msvcprt:MSVCP110.dll
 0002:00000150       __imp_?_Add_vtordisp1@?$basic_istream@DU?$char_traits@D@std@@@std@@UAEXXZ 00429150     msvcprt:MSVCP110.dll
 0002:00000154       __imp_?setstate@?$basic_ios@DU?$char_traits@D@std@@@std@@QAEXH_N@Z 00429154     msvcprt:MSVCP110.dll
 0002:00000158       __imp_?_Add_vtordisp2@?$basic_ios@DU?$char_traits@D@std@@@std@@UAEXXZ 00429158     msvcprt:MSVCP110.dll
 0002:0000015c       __imp_?snextc@?$basic_streambuf@DU?$char_traits@D@std@@@std@@QAEHXZ 0042915c     msvcprt:MSVCP110.dll
 0002:00000160       __imp_?sgetc@?$basic_streambuf@DU?$char_traits@D@std@@@std@@QAEHXZ 00429160     msvcprt:MSVCP110.dll
 0002:00000164       __imp_?always_noconv@codecvt_base@std@@QBE_NXZ 00429164     msvcprt:MSVCP110.dll
 0002:00000168       __imp_??Bid@locale@std@@QAEIXZ 00429168     msvcprt:MSVCP110.dll
 0002:0000016c       __imp_?uncaught_exception@std@@YA_NXZ 0042916c     msvcprt:MSVCP110.dll
 0002:00000170       __imp_?_Init@locale@std@@CAPAV_Locimp@12@_N@Z 00429170     msvcprt:MSVCP110.dll
 0002:00000174       __imp_?sync@?$basic_streambuf@DU?$char_traits@D@std@@@std@@MAEHXZ 00429174     msvcprt:MSVCP110.dll
 0002:00000178       __imp_?flush@?$basic_ostream@DU?$char_traits@D@std@@@std@@QAEAAV12@XZ 00429178     msvcprt:MSVCP110.dll
 0002:0000017c       __imp_??_D?$basic_ostream@DU?$char_traits@D@std@@@std@@QAEXXZ 0042917c     msvcprt:MSVCP110.dll
 0002:00000180       __imp_?getloc@ios_base@std@@QBE?AVlocale@2@XZ 00429180     msvcprt:MSVCP110.dll
 0002:00000184       __imp_?_Xinvalid_argument@std@@YAXPBD@Z 00429184     msvcprt:MSVCP110.dll
 0002:00000188       __imp_?_Swap_all@_Container_base0@std@@QAEXAAU12@@Z 00429188     msvcprt:MSVCP110.dll
 0002:0000018c       __imp_?_Orphan_all@_Container_base0@std@@QAEXXZ 0042918c     msvcprt:MSVCP110.dll
 0002:00000190       __imp_?id@?$ctype@D@std@@2V0locale@2@A 00429190     msvcprt:MSVCP110.dll
 0002:00000194       __imp_?_Getcat@?$ctype@D@std@@SAIPAPBVfacet@locale@2@PBV42@@Z 00429194     msvcprt:MSVCP110.dll
 0002:00000198       __imp_?id@?$numpunct@D@std@@2V0locale@2@A 00429198     msvcprt:MSVCP110.dll
 0002:0000019c       __imp___Xtime_get_ticks    0042919c     msvcprt:MSVCP110.dll
 0002:000001a0       __imp_??_7facet@locale@std@@6B@ 004291a0     msvcprt:MSVCP110.dll
 0002:000001a4       __imp_??_7_Facet_base@std@@6B@ 004291a4     msvcprt:MSVCP110.dll
 0002:000001a8       __imp_?widen@?$ctype@D@std@@QBEPBDPBD0PAD@Z 004291a8     msvcprt:MSVCP110.dll
 0002:000001ac       __imp_?widen@?$ctype@D@std@@QBEDD@Z 004291ac     msvcprt:MSVCP110.dll
 0002:000001b0       __imp_??1facet@locale@std@@MAE@XZ 004291b0     msvcprt:MSVCP110.dll
 0002:000001b4       __imp_??0facet@locale@std@@IAE@I@Z 004291b4     msvcprt:MSVCP110.dll
 0002:000001b8       __imp_?_Decref@facet@locale@std@@UAEPAV_Facet_base@3@XZ 004291b8     msvcprt:MSVCP110.dll
 0002:000001bc       __imp_?_Incref@facet@locale@std@@UAEXXZ 004291bc     msvcprt:MSVCP110.dll
 0002:000001c0       __imp_?_Gettrue@_Locinfo@std@@QBEPBDXZ 004291c0     msvcprt:MSVCP110.dll
 0002:000001c4       __imp_?_Getfalse@_Locinfo@std@@QBEPBDXZ 004291c4     msvcprt:MSVCP110.dll
 0002:000001c8       __imp_?_Getcvt@_Locinfo@std@@QBE?AU_Cvtvec@@XZ 004291c8     msvcprt:MSVCP110.dll
 0002:000001cc       __imp_??1_Locinfo@std@@QAE@XZ 004291cc     msvcprt:MSVCP110.dll
 0002:000001d0       __imp_??0_Locinfo@std@@QAE@PBD@Z 004291d0     msvcprt:MSVCP110.dll
 0002:000001d4       __imp_?sputn@?$basic_streambuf@DU?$char_traits@D@std@@@std@@QAE_JPBD_J@Z 004291d4     msvcprt:MSVCP110.dll
 0002:000001d8       __imp_?sputc@?$basic_streambuf@DU?$char_traits@D@std@@@std@@QAEHD@Z 004291d8     msvcprt:MSVCP110.dll
 0002:000001dc       __imp_??6?$basic_ostream@DU?$char_traits@D@std@@@std@@QAEAAV01@P6AAAV01@AAV01@@Z@Z 004291dc     msvcprt:MSVCP110.dll
 0002:000001e0       __imp_?endl@std@@YAAAV?$basic_ostream@DU?$char_traits@D@std@@@1@AAV21@@Z 004291e0     msvcprt:MSVCP110.dll
 0002:000001e4       __imp_??6?$basic_ostream@DU?$char_traits@D@std@@@std@@QAEAAV01@H@Z 004291e4     msvcprt:MSVCP110.dll
 0002:000001e8       __imp_?cout@std@@3V?$basic_ostream@DU?$char_traits@D@std@@@1@A 004291e8     msvcprt:MSVCP110.dll
 0002:000001ec       __imp_?cin@std@@3V?$basic_istream@DU?$char_traits@D@std@@@1@A 004291ec     msvcprt:MSVCP110.dll
 0002:000001f0       __imp_?read@?$basic_istream@DU?$char_traits@D@std@@@std@@QAEAAV12@PAD_J@Z 004291f0     msvcprt:MSVCP110.dll
 0002:000001f4       __imp_?write@?$basic_ostream@DU?$char_traits@D@std@@@std@@QAEAAV12@PBD_J@Z 004291f4     msvcprt:MSVCP110.dll
 0002:000001f8       __imp_??6?$basic_ostream@DU?$char_traits@D@std@@@std@@QAEAAV01@F@Z 004291f8     msvcprt:MSVCP110.dll
 0002:000001fc       __imp_?imbue@?$basic_streambuf@DU?$char_traits@D@std@@@std@@MAEXABVlocale@2@@Z 004291fc     msvcprt:MSVCP110.dll
 0002:00000200       __imp_??1?$basic_ios@DU?$char_traits@D@std@@@std@@UAE@XZ 00429200     msvcprt:MSVCP110.dll
 0002:00000204       __imp_?_Add_vtordisp1@?$basic_ios@DU?$char_traits@D@std@@@std@@UAEXXZ 00429204     msvcprt:MSVCP110.dll
 0002:00000208       __imp_??0?$basic_ostream@DU?$char_traits@D@std@@@std@@QAE@PAV?$basic_streambuf@DU?$char_traits@D@std@@@1@_N@Z 00429208     msvcprt:MSVCP110.dll
 0002:0000020c       __imp_??1?$basic_ostream@DU?$char_traits@D@std@@@std@@UAE@XZ 0042920c     msvcprt:MSVCP110.dll
 0002:00000210       __imp_?_Add_vtordisp2@?$basic_ostream@DU?$char_traits@D@std@@@std@@UAEXXZ 00429210     msvcprt:MSVCP110.dll
 0002:00000214       __imp_??6?$basic_ostream@DU?$char_traits@D@std@@@std@@QAEAAV01@I@Z 00429214     msvcprt:MSVCP110.dll
 0002:00000218       __imp_?setg@?$basic_streambuf@DU?$char_traits@D@std@@@std@@IAEXPAD00@Z 00429218     msvcprt:MSVCP110.dll
 0002:0000021c       __imp_?_Pninc@?$basic_streambuf@DU?$char_traits@D@std@@@std@@IAEPADXZ 0042921c     msvcprt:MSVCP110.dll
 0002:00000220       __imp_??0?$basic_ios@DU?$char_traits@D@std@@@std@@IAE@XZ 00429220     msvcprt:MSVCP110.dll
 0002:00000224       __imp_??0?$basic_streambuf@DU?$char_traits@D@std@@@std@@IAE@XZ 00429224     msvcprt:MSVCP110.dll
 0002:00000228       __imp_?_Xlength_error@std@@YAXPBD@Z 00429228     msvcprt:MSVCP110.dll
 0002:0000022c       __imp_?_Xout_of_range@std@@YAXPBD@Z 0042922c     msvcprt:MSVCP110.dll
 0002:00000230       __imp_?_Xbad_alloc@std@@YAXXZ 00429230     msvcprt:MSVCP110.dll
 0002:00000234       __imp_?_BADOFF@std@@3_JB   00429234     msvcprt:MSVCP110.dll
 0002:00000238       __imp_?_Syserror_map@std@@YAPBDH@Z 00429238     msvcprt:MSVCP110.dll
 0002:0000023c       __imp_?_Winerror_map@std@@YAPBDH@Z 0042923c     msvcprt:MSVCP110.dll
 0002:00000240       __imp_?_Osfx@?$basic_ostream@DU?$char_traits@D@std@@@std@@QAEXXZ 00429240     msvcprt:MSVCP110.dll
 0002:00000244       __imp_??1?$basic_istream@DU?$char_traits@D@std@@@std@@UAE@XZ 00429244     msvcprt:MSVCP110.dll
 0002:00000248       __imp_?cerr@std@@3V?$basic_ostream@DU?$char_traits@D@std@@@1@A 00429248     msvcprt:MSVCP110.dll
 0002:0000024c       \177MSVCP110_NULL_THUNK_DATA 0042924c     msvcprt:MSVCP110.dll
 0002:00000250       __imp___controlfp_s        00429250     MSVCRT:MSVCR110.dll
 0002:00000254       __imp___invoke_watson      00429254     MSVCRT:MSVCR110.dll
 0002:00000258       __imp____crtSetUnhandledExceptionFilter 00429258     MSVCRT:MSVCR110.dll
 0002:0000025c       __imp___except_handler4_common 0042925c     MSVCRT:MSVCR110.dll
 0002:00000260       __imp____crtTerminateProcess 00429260     MSVCRT:MSVCR110.dll
 0002:00000264       __imp____crtUnhandledException 00429264     MSVCRT:MSVCR110.dll
 0002:00000268       __imp___crt_debugger_hook  00429268     MSVCRT:MSVCR110.dll
 0002:0000026c       __imp_?terminate@@YAXXZ    0042926c     MSVCRT:MSVCR110.dll
 0002:00000270       __imp___commode            00429270     MSVCRT:MSVCR110.dll
 0002:00000274       __imp___fmode              00429274     MSVCRT:MSVCR110.dll
 0002:00000278       __imp___acmdln             00429278     MSVCRT:MSVCR110.dll
 0002:0000027c       __imp___initterm           0042927c     MSVCRT:MSVCR110.dll
 0002:00000280       __imp___initterm_e         00429280     MSVCRT:MSVCR110.dll
 0002:00000284       __imp____setusermatherr    00429284     MSVCRT:MSVCR110.dll
 0002:00000288       __imp___configthreadlocale 00429288     MSVCRT:MSVCR110.dll
 0002:0000028c       __imp___ismbblead          0042928c     MSVCRT:MSVCR110.dll
 0002:00000290       __imp___cexit              00429290     MSVCRT:MSVCR110.dll
 0002:00000294       __imp___exit               00429294     MSVCRT:MSVCR110.dll
 0002:00000298       __imp____set_app_type      00429298     MSVCRT:MSVCR110.dll
 0002:0000029c       __imp____getmainargs       0042929c     MSVCRT:MSVCR110.dll
 0002:000002a0       __imp___amsg_exit          004292a0     MSVCRT:MSVCR110.dll
 0002:000002a4       __imp____crtGetShowWindowMode 004292a4     MSVCRT:MSVCR110.dll
 0002:000002a8       __imp___XcptFilter         004292a8     MSVCRT:MSVCR110.dll
 0002:000002ac       __imp_??1type_info@@UAE@XZ 004292ac     MSVCRT:MSVCR110.dll
 0002:000002b0       __imp___onexit             004292b0     MSVCRT:MSVCR110.dll
 0002:000002b4       __imp____dllonexit         004292b4     MSVCRT:MSVCR110.dll
 0002:000002b8       __imp___calloc_crt         004292b8     MSVCRT:MSVCR110.dll
 0002:000002bc       __imp___unlock             004292bc     MSVCRT:MSVCR110.dll
 0002:000002c0       __imp___lock               004292c0     MSVCRT:MSVCR110.dll
 0002:000002c4       __imp__strerror            004292c4     MSVCRT:MSVCR110.dll
 0002:000002c8       __imp__memcpy              004292c8     MSVCRT:MSVCR110.dll
 0002:000002cc       __imp____CxxFrameHandler3  004292cc     MSVCRT:MSVCR110.dll
 0002:000002d0       __imp___CxxThrowException@8 004292d0     MSVCRT:MSVCR110.dll
 0002:000002d4       __imp__realloc             004292d4     MSVCRT:MSVCR110.dll
 0002:000002d8       __imp__malloc              004292d8     MSVCRT:MSVCR110.dll
 0002:000002dc       __imp__free                004292dc     MSVCRT:MSVCR110.dll
 0002:000002e0       __imp__printf              004292e0     MSVCRT:MSVCR110.dll
 0002:000002e4       __imp__strcspn             004292e4     MSVCRT:MSVCR110.dll
 0002:000002e8       __imp__localeconv          004292e8     MSVCRT:MSVCR110.dll
 0002:000002ec       __imp__sprintf_s           004292ec     MSVCRT:MSVCR110.dll
 0002:000002f0       __imp__sprintf             004292f0     MSVCRT:MSVCR110.dll
 0002:000002f4       __imp__atof                004292f4     MSVCRT:MSVCR110.dll
 0002:000002f8       __imp__memchr              004292f8     MSVCRT:MSVCR110.dll
 0002:000002fc       __imp_??_V@YAXPAX@Z        004292fc     MSVCRT:MSVCR110.dll
 0002:00000300       __imp__strtol              00429300     MSVCRT:MSVCR110.dll
 0002:00000304       __imp___errno              00429304     MSVCRT:MSVCR110.dll
 0002:00000308       __imp_??0exception@std@@QAE@XZ 00429308     MSVCRT:MSVCR110.dll
 0002:0000030c       __imp_??0exception@std@@QAE@ABQBDH@Z 0042930c     MSVCRT:MSVCR110.dll
 0002:00000310       __imp_??0exception@std@@QAE@ABQBD@Z 00429310     MSVCRT:MSVCR110.dll
 0002:00000314       __imp_?what@exception@std@@UBEPBDXZ 00429314     MSVCRT:MSVCR110.dll
 0002:00000318       __imp__fclose              00429318     MSVCRT:MSVCR110.dll
 0002:0000031c       __imp__fwrite              0042931c     MSVCRT:MSVCR110.dll
 0002:00000320       __imp__memcpy_s            00429320     MSVCRT:MSVCR110.dll
 0002:00000324       __imp___lock_file          00429324     MSVCRT:MSVCR110.dll
 0002:00000328       __imp__setvbuf             00429328     MSVCRT:MSVCR110.dll
 0002:0000032c       __imp___libm_sse2_atan_precise 0042932c     MSVCRT:MSVCR110.dll
 0002:00000330       __imp__fgetc               00429330     MSVCRT:MSVCR110.dll
 0002:00000334       __imp__fflush              00429334     MSVCRT:MSVCR110.dll
 0002:00000338       __imp___fseeki64           00429338     MSVCRT:MSVCR110.dll
 0002:0000033c       __imp__fgetpos             0042933c     MSVCRT:MSVCR110.dll
 0002:00000340       __imp__ungetc              00429340     MSVCRT:MSVCR110.dll
 0002:00000344       __imp___unlock_file        00429344     MSVCRT:MSVCR110.dll
 0002:00000348       __imp_??0exception@std@@QAE@ABV01@@Z 00429348     MSVCRT:MSVCR110.dll
 0002:0000034c       __imp_??0bad_cast@std@@QAE@ABV01@@Z 0042934c     MSVCRT:MSVCR110.dll
 0002:00000350       __imp_??0bad_cast@std@@QAE@PBD@Z 00429350     MSVCRT:MSVCR110.dll
 0002:00000354       __imp_??1bad_cast@std@@UAE@XZ 00429354     MSVCRT:MSVCR110.dll
 0002:00000358       __imp__fputc               00429358     MSVCRT:MSVCR110.dll
 0002:0000035c       __imp__exit                0042935c     MSVCRT:MSVCR110.dll
 0002:00000360       __imp__raise               00429360     MSVCRT:MSVCR110.dll
 0002:00000364       __imp_??2@YAPAXI@Z         00429364     MSVCRT:MSVCR110.dll
 0002:00000368       __imp_??3@YAXPAX@Z         00429368     MSVCRT:MSVCR110.dll
 0002:0000036c       __imp___purecall           0042936c     MSVCRT:MSVCR110.dll
 0002:00000370       __imp__memmove             00429370     MSVCRT:MSVCR110.dll
 0002:00000374       __imp_??1exception@std@@UAE@XZ 00429374     MSVCRT:MSVCR110.dll
 0002:00000378       __imp__memset              00429378     MSVCRT:MSVCR110.dll
 0002:0000037c       __imp__fsetpos             0042937c     MSVCRT:MSVCR110.dll
 0002:00000380       \177MSVCR110_NULL_THUNK_DATA 00429380     MSVCRT:MSVCR110.dll
 0002:00000384       __imp_?destroyInputObject@InputManager@OIS@@QAEXPAVObject@2@@Z 00429384     OIS:OIS.dll
 0002:00000388       __imp_?getNumberOfDevices@InputManager@OIS@@QAEHW4Type@2@@Z 00429388     OIS:OIS.dll
 0002:0000038c       __imp_?destroyInputSystem@InputManager@OIS@@SAXPAV12@@Z 0042938c     OIS:OIS.dll
 0002:00000390       __imp_?createInputSystem@InputManager@OIS@@SAPAV12@AAV?$multimap@V?$basic_string@DU?$char_traits@D@std@@V?$allocator@D@2@@std@@V12@U?$less@V?$basic_string@DU?$char_traits@D@std@@V?$allocator@D@2@@std@@@2@V?$allocator@U?$pair@$$CBV?$basic_string@DU?$char_traits@D@std@@V?$allocator@D@2@@std@@V12@@std@@@2@@std@@@Z 00429390     OIS:OIS.dll
 0002:00000394       __imp_?createInputObject@InputManager@OIS@@QAEPAVObject@2@W4Type@2@_NABV?$basic_string@DU?$char_traits@D@std@@V?$allocator@D@2@@std@@@Z 00429394     OIS:OIS.dll
 0002:00000398       \177OIS_NULL_THUNK_DATA    00429398     OIS:OIS.dll
 0002:0000039c       __imp_?setSpecularColour@Light@Ogre@@QAEXMMM@Z 0042939c     OgreMain:OgreMain.dll
 0002:000003a0       __imp_?setPosition@Light@Ogre@@QAEXMMM@Z 004293a0     OgreMain:OgreMain.dll
 0002:000003a4       __imp_?setDirection@Light@Ogre@@QAEXMMM@Z 004293a4     OgreMain:OgreMain.dll
 0002:000003a8       __imp_?Black@ColourValue@Ogre@@2V12@B 004293a8     OgreMain:OgreMain.dll
 0002:000003ac       __imp_?getZOrder@Viewport@Ogre@@QBEHXZ 004293ac     OgreMain:OgreMain.dll
 0002:000003b0       __imp_?setBackgroundColour@Viewport@Ogre@@QAEXABVColourValue@2@@Z 004293b0     OgreMain:OgreMain.dll
 0002:000003b4       __imp_??4Matrix4@Ogre@@QAEXABVMatrix3@1@@Z 004293b4     OgreMain:OgreMain.dll
 0002:000003b8       __imp_?setDiffuseColour@Light@Ogre@@QAEXMMM@Z 004293b8     OgreMain:OgreMain.dll
 0002:000003bc       __imp_?extract3x3Matrix@Matrix4@Ogre@@QBEXAAVMatrix3@2@@Z 004293bc     OgreMain:OgreMain.dll
 0002:000003c0       __imp_?ToEulerAnglesYXZ@Matrix3@Ogre@@QBE_NAAVRadian@2@00@Z 004293c0     OgreMain:OgreMain.dll
 0002:000003c4       __imp_?FromEulerAnglesYXZ@Matrix3@Ogre@@QAEXABVRadian@2@00@Z 004293c4     OgreMain:OgreMain.dll
 0002:000003c8       __imp_?getTrans@Matrix4@Ogre@@QBE?AVVector3@2@XZ 004293c8     OgreMain:OgreMain.dll
 0002:000003cc       __imp_?extractQuaternion@Matrix4@Ogre@@QBE?AVQuaternion@2@XZ 004293cc     OgreMain:OgreMain.dll
 0002:000003d0       __imp_?AUTODETECT_RESOURCE_GROUP_NAME@ResourceGroupManager@Ogre@@2V?$basic_string@DU?$char_traits@D@std@@V?$allocator@D@2@@std@@A 004293d0     OgreMain:OgreMain.dll
 0002:000003d4       __imp_?IDENTITY@Quaternion@Ogre@@2V12@B 004293d4     OgreMain:OgreMain.dll
 0002:000003d8       __imp_?ZERO@Vector3@Ogre@@2V12@B 004293d8     OgreMain:OgreMain.dll
 0002:000003dc       __imp_?setType@Light@Ogre@@QAEXW4LightTypes@12@@Z 004293dc     OgreMain:OgreMain.dll
 0002:000003e0       __imp_?setAmbientLight@SceneManager@Ogre@@QAEXABVColourValue@2@@Z 004293e0     OgreMain:OgreMain.dll
 0002:000003e4       __imp_?destroySceneManager@Root@Ogre@@QAEXPAVSceneManager@2@@Z 004293e4     OgreMain:OgreMain.dll
 0002:000003e8       __imp_?createSceneManager@Root@Ogre@@QAEPAVSceneManager@2@GABV?$basic_string@DU?$char_traits@D@std@@V?$allocator@D@2@@std@@@Z 004293e8     OgreMain:OgreMain.dll
 0002:000003ec       __imp_?setTrans@Matrix4@Ogre@@QAEXABVVector3@2@@Z 004293ec     OgreMain:OgreMain.dll
 0002:000003f0       __imp_??0ColourValue@Ogre@@QAE@MMMM@Z 004293f0     OgreMain:OgreMain.dll
 0002:000003f4       __imp_?getMilliseconds@Timer@Ogre@@QAEKXZ 004293f4     OgreMain:OgreMain.dll
 0002:000003f8       __imp_??1Exception@Ogre@@UAE@XZ 004293f8     OgreMain:OgreMain.dll
 0002:000003fc       __imp_?windowMoved@WindowEventListener@Ogre@@UAEXPAVRenderWindow@2@@Z 004293fc     OgreMain:OgreMain.dll
 0002:00000400       __imp_?windowResized@WindowEventListener@Ogre@@UAEXPAVRenderWindow@2@@Z 00429400     OgreMain:OgreMain.dll
 0002:00000404       __imp_?windowClosed@WindowEventListener@Ogre@@UAEXPAVRenderWindow@2@@Z 00429404     OgreMain:OgreMain.dll
 0002:00000408       __imp_?windowFocusChange@WindowEventListener@Ogre@@UAEXPAVRenderWindow@2@@Z 00429408     OgreMain:OgreMain.dll
 0002:0000040c       __imp_??2?$AllocatedObject@V?$CategorisedAllocPolicy@$0A@@Ogre@@@Ogre@@SAPAXI@Z 0042940c     OgreMain:OgreMain.dll
 0002:00000410       __imp_??3?$AllocatedObject@V?$CategorisedAllocPolicy@$0A@@Ogre@@@Ogre@@SAXPAX@Z 00429410     OgreMain:OgreMain.dll
 0002:00000414       __imp_??_7WindowEventListener@Ogre@@6B@ 00429414     OgreMain:OgreMain.dll
 0002:00000418       __imp_?initialiseResourceGroup@ResourceGroupManager@Ogre@@QAEXABV?$basic_string@DU?$char_traits@D@std@@V?$allocator@D@2@@std@@@Z 00429418     OgreMain:OgreMain.dll
 0002:0000041c       __imp_?addResourceLocation@ResourceGroupManager@Ogre@@QAEXABV?$basic_string@DU?$char_traits@D@std@@V?$allocator@D@2@@std@@00_N1@Z 0042941c     OgreMain:OgreMain.dll
 0002:00000420       __imp_?getSingleton@ResourceGroupManager@Ogre@@SAAAV12@XZ 00429420     OgreMain:OgreMain.dll
 0002:00000424       __imp_?getSingletonPtr@ResourceGroupManager@Ogre@@SAPAV12@XZ 00429424     OgreMain:OgreMain.dll
 0002:00000428       __imp_??0Root@Ogre@@QAE@ABV?$basic_string@DU?$char_traits@D@std@@V?$allocator@D@2@@std@@00@Z 00429428     OgreMain:OgreMain.dll
 0002:0000042c       __imp_??1Root@Ogre@@QAE@XZ 0042942c     OgreMain:OgreMain.dll
 0002:00000430       __imp_?restoreConfig@Root@Ogre@@QAE_NXZ 00429430     OgreMain:OgreMain.dll
 0002:00000434       __imp_?showConfigDialog@Root@Ogre@@QAE_NXZ 00429434     OgreMain:OgreMain.dll
 0002:00000438       __imp_?initialise@Root@Ogre@@QAEPAVRenderWindow@2@_NABV?$basic_string@DU?$char_traits@D@std@@V?$allocator@D@2@@std@@1@Z 00429438     OgreMain:OgreMain.dll
 0002:0000043c       __imp_?renderOneFrame@Root@Ogre@@QAE_NM@Z 0042943c     OgreMain:OgreMain.dll
 0002:00000440       __imp_?detachRenderTarget@Root@Ogre@@QAEPAVRenderTarget@2@PAV32@@Z 00429440     OgreMain:OgreMain.dll
 0002:00000444       __imp_?getTimer@Root@Ogre@@QAEPAVTimer@2@XZ 00429444     OgreMain:OgreMain.dll
 0002:00000448       __imp_??0ConfigFile@Ogre@@QAE@XZ 00429448     OgreMain:OgreMain.dll
 0002:0000044c       __imp_??1ConfigFile@Ogre@@UAE@XZ 0042944c     OgreMain:OgreMain.dll
 0002:00000450       __imp_?load@ConfigFile@Ogre@@QAEXABV?$basic_string@DU?$char_traits@D@std@@V?$allocator@D@2@@std@@0_N@Z 00429450     OgreMain:OgreMain.dll
 0002:00000454       __imp_?getSectionIterator@ConfigFile@Ogre@@QAE?AV?$MapIterator@V?$map@V?$basic_string@DU?$char_traits@D@std@@V?$allocator@D@2@@std@@PAV?$multimap@V?$basic_string@DU?$char_traits@D@std@@V?$allocator@D@2@@std@@V12@U?$less@V?$basic_string@DU?$char_traits@D@std@@V?$allocator@D@2@@std@@@2@V?$STLAllocator@U?$pair@$$CBV?$basic_string@DU?$char_traits@D@std@@V?$allocator@D@2@@std@@V12@@std@@V?$CategorisedAllocPolicy@$0A@@Ogre@@@Ogre@@@2@U?$less@V?$basic_string@DU?$char_traits@D@std@@V?$allocator@D@2@@std@@@2@V?$STLAllocator@U?$pair@$$CBV?$basic_string@DU?$char_traits@D@std@@V?$allocator@D@2@@std@@PAV?$multimap@V?$basic_string@DU?$char_traits@D@std@@V?$allocator@D@2@@std@@V12@U?$less@V?$basic_string@DU?$char_traits@D@std@@V?$allocator@D@2@@std@@@2@V?$STLAllocator@U?$pair@$$CBV?$basic_string@DU?$char_traits@D@std@@V?$allocator@D@2@@std@@V12@@std@@V?$CategorisedAllocPolicy@$0A@@Ogre@@@Ogre@@@2@@std@@V?$CategorisedAllocPolicy@$0A@@Ogre@@@Ogre@@@std@@@2@XZ 00429454     OgreMain:OgreMain.dll
 0002:00000458       __imp_?messagePump@WindowEventUtilities@Ogre@@SAXXZ 00429458     OgreMain:OgreMain.dll
 0002:0000045c       __imp_?addWindowEventListener@WindowEventUtilities@Ogre@@SAXPAVRenderWindow@2@PAVWindowEventListener@2@@Z 0042945c     OgreMain:OgreMain.dll
 0002:00000460       __imp_?BLANK@StringUtil@Ogre@@2V?$basic_string@DU?$char_traits@D@std@@V?$allocator@D@2@@std@@B 00429460     OgreMain:OgreMain.dll
 0002:00000464       __imp_?setDeactivateOnFocusChange@RenderWindow@Ogre@@QAEX_N@Z 00429464     OgreMain:OgreMain.dll
 0002:00000468       \177OgreMain_NULL_THUNK_DATA 00429468     OgreMain:OgreMain.dll
 0002:0000046c       ___xc_a                    0042946c     MSVCRT:cinitexe.obj
 0002:00000484       ?p_process_init@?A0x157c5c39@@3P6AHXZA 00429484     libboost_thread-vc110-mt-1_55:tss_pe.obj
 0002:000007f8       ___xc_z                    004297f8     MSVCRT:cinitexe.obj
 0002:000007fc       ___xi_a                    004297fc     MSVCRT:cinitexe.obj
 0002:00000808       ?p_tls_prepare@?A0x157c5c39@@3P6AHXZA 00429808     libboost_thread-vc110-mt-1_55:tss_pe.obj
 0002:00000810       ___xi_z                    00429810     MSVCRT:cinitexe.obj
 0002:00000814       ___xl_a                    00429814     MSVCRT:tlssup.obj
 0002:00000818       ?__xl_ca@?A0x157c5c39@@3P6GXPAUHINSTANCE__@@KPAX@ZA 00429818     libboost_thread-vc110-mt-1_55:tss_pe.obj
 0002:0000081c       ___xl_z                    0042981c     MSVCRT:tlssup.obj
 0002:00000820       ?p_process_term@?A0x157c5c39@@3P6AHXZA 00429820     libboost_thread-vc110-mt-1_55:tss_pe.obj
 0002:00000870       ??_7bad_exception@std@@6B@ 00429870     libboost_thread-vc110-mt-1_55:thread.obj
 0002:0000087c       ??_7bad_alloc@std@@6B@     0042987c     libboost_thread-vc110-mt-1_55:thread.obj
 0002:00000888       ??_7error_category@std@@6B@ 00429888     libboost_thread-vc110-mt-1_55:thread.obj
 0002:000008a4       ??_7_Generic_error_category@std@@6B@ 004298a4     libboost_thread-vc110-mt-1_55:thread.obj
 0002:000008c0       ??_7_Iostream_error_category@std@@6B@ 004298c0     libboost_thread-vc110-mt-1_55:thread.obj
 0002:000008dc       ??_7_System_error_category@std@@6B@ 004298dc     libboost_thread-vc110-mt-1_55:thread.obj
 0002:000008f8       ??_7exception@boost@@6B@   004298f8     libboost_thread-vc110-mt-1_55:thread.obj
 0002:00000900       ??_7clone_base@exception_detail@boost@@6B@ 00429900     libboost_thread-vc110-mt-1_55:thread.obj
 0002:00000910       ??_7sp_counted_base@detail@boost@@6B@ 00429910     libboost_thread-vc110-mt-1_55:thread.obj
 0002:00000924       ?fixed_mutex_name@?1??name_once_mutex@detail@boost@@YAXPADPAX@Z@4QBDB 00429924     libboost_thread-vc110-mt-1_55:thread.obj
 0002:00000960       ??_7bad_alloc_@exception_detail@boost@@6Bexception@2@@ 00429960     libboost_thread-vc110-mt-1_55:thread.obj
 0002:00000968       ??_7bad_alloc_@exception_detail@boost@@6Bbad_alloc@std@@@ 00429968     libboost_thread-vc110-mt-1_55:thread.obj
 0002:00000974       ??_7bad_exception_@exception_detail@boost@@6Bexception@2@@ 00429974     libboost_thread-vc110-mt-1_55:thread.obj
 0002:0000097c       ??_7bad_exception_@exception_detail@boost@@6Bbad_exception@std@@@ 0042997c     libboost_thread-vc110-mt-1_55:thread.obj
 0002:00000988       ??_7?$clone_impl@Ubad_alloc_@exception_detail@boost@@@exception_detail@boost@@6Bexception@2@@ 00429988     libboost_thread-vc110-mt-1_55:thread.obj
 0002:00000990       ??_7?$clone_impl@Ubad_alloc_@exception_detail@boost@@@exception_detail@boost@@6Bbad_alloc@std@@@ 00429990     libboost_thread-vc110-mt-1_55:thread.obj
 0002:0000099c       ??_7?$clone_impl@Ubad_alloc_@exception_detail@boost@@@exception_detail@boost@@6B@ 0042999c     libboost_thread-vc110-mt-1_55:thread.obj
 0002:000009a8       ??_C@_0CL@EGOLMDBI@?4?2boost?1exception?1detail?1excepti@ 004299a8     libboost_thread-vc110-mt-1_55:thread.obj
 0002:000009d8       ??_C@_0IK@LHEHAGMH@class?5boost?3?3exception_ptr?5__cde@ 004299d8     libboost_thread-vc110-mt-1_55:thread.obj
 0002:00000a68       ??_7?$clone_impl@Ubad_exception_@exception_detail@boost@@@exception_detail@boost@@6Bexception@2@@ 00429a68     libboost_thread-vc110-mt-1_55:thread.obj
 0002:00000a70       ??_7?$clone_impl@Ubad_exception_@exception_detail@boost@@@exception_detail@boost@@6Bbad_exception@std@@@ 00429a70     libboost_thread-vc110-mt-1_55:thread.obj
 0002:00000a7c       ??_7?$clone_impl@Ubad_exception_@exception_detail@boost@@@exception_detail@boost@@6B@ 00429a7c     libboost_thread-vc110-mt-1_55:thread.obj
 0002:00000a88       ??_8?$clone_impl@Ubad_exception_@exception_detail@boost@@@exception_detail@boost@@7B@ 00429a88     libboost_thread-vc110-mt-1_55:thread.obj
 0002:00000a88       ??_8?$clone_impl@Ubad_alloc_@exception_detail@boost@@@exception_detail@boost@@7B@ 00429a88     libboost_thread-vc110-mt-1_55:thread.obj
 0002:00000a90       ??_C@_0IO@BHMGIOEK@class?5boost?3?3exception_ptr?5__cde@ 00429a90     libboost_thread-vc110-mt-1_55:thread.obj
 0002:00000b20       ??_C@_0O@DPKOEFFH@bad?5exception?$AA@ 00429b20     libboost_thread-vc110-mt-1_55:thread.obj
 0002:00000b34       ??_7?$sp_counted_impl_p@V?$clone_impl@Ubad_alloc_@exception_detail@boost@@@exception_detail@boost@@@detail@boost@@6B@ 00429b34     libboost_thread-vc110-mt-1_55:thread.obj
 0002:00000b4c       ??_7?$sp_counted_impl_p@V?$clone_impl@Ubad_exception_@exception_detail@boost@@@exception_detail@boost@@@detail@boost@@6B@ 00429b4c     libboost_thread-vc110-mt-1_55:thread.obj
 0002:00000b60       __pDefaultRawDllMainOrig   00429b60     libboost_thread-vc110-mt-1_55:tss_pe.obj
 0002:00000b60       __pRawDllMainOrig          00429b60     libboost_thread-vc110-mt-1_55:tss_pe.obj
 0002:00000b64       __pRawDllMain              00429b64     libboost_thread-vc110-mt-1_55:tss_pe.obj
 0002:00000b6c       ??_7error_category@system@boost@@6B@ 00429b6c     libboost_system-vc110-mt-1_55:error_code.obj
 0002:00000b88       ??_7generic_error_category@?A0xeba5f5ee@system@boost@@6B@ 00429b88     libboost_system-vc110-mt-1_55:error_code.obj
 0002:00000ba4       ??_7system_error_category@?A0xeba5f5ee@system@boost@@6B@ 00429ba4     libboost_system-vc110-mt-1_55:error_code.obj
 0002:00000bbc       ??_C@_0O@NIPGCINC@Unknown?5error?$AA@ 00429bbc     libboost_system-vc110-mt-1_55:error_code.obj
 0002:00000bd0       ??_7type_info@@6B@         00429bd0     MSVCRT:ti_inst.obj
 0002:00000bdc       ??_C@_0N@MDJJJHMB@kernel32?4dll?$AA@ 00429bdc     libboost_log-vc110-mt-1_55:light_rw_mutex.obj
 0002:00000bf4       ??_7?$basic_stringbuf@DU?$char_traits@D@std@@V?$allocator@D@2@@std@@6B@ 00429bf4     libboost_log-vc110-mt-1_55:exceptions.obj
 0002:00000c34       ??_7?$basic_ostringstream@DU?$char_traits@D@std@@V?$allocator@D@2@@std@@6B@ 00429c34     libboost_log-vc110-mt-1_55:exceptions.obj
 0002:00000edc       ??_7?$basic_filebuf@DU?$char_traits@D@std@@@std@@6B@ 00429edc     libboost_log-vc110-mt-1_55:text_file_backend.obj
 0002:00000f1c       ??_C@_15DJBMFJKF@?$AA?1?$AA?2?$AA?$AA@ 00429f1c     libboost_filesystem-vc110-mt-1_55:path.obj
 0002:00000f24       ??_C@_13CGOKJPIL@?$AA?1?$AA?$AA@ 00429f24     libboost_filesystem-vc110-mt-1_55:path.obj
 0002:00000f28       ??_C@_13FPGAJAPJ@?$AA?2?$AA?$AA@ 00429f28     libboost_filesystem-vc110-mt-1_55:path.obj
 0002:00000f2c       ??_C@_13JOFGPIOO@?$AA?4?$AA?$AA@ 00429f2c     libboost_filesystem-vc110-mt-1_55:path.obj
 0002:00000f30       ??_C@_15DDHGOCBH@?$AA?4?$AA?4?$AA?$AA@ 00429f30     libboost_filesystem-vc110-mt-1_55:path.obj
 0002:00000f38       ??_C@_0BA@LGDMGDBA@CreateHardLinkW?$AA@ 00429f38     libboost_filesystem-vc110-mt-1_55:operations.obj
 0002:00000f48       ??_C@_0BE@FKKLLFLM@CreateSymbolicLinkW?$AA@ 00429f48     libboost_filesystem-vc110-mt-1_55:operations.obj
 0002:00000f5c       ??_C@_00CNPNBAHC@?$AA@     00429f5c     3DApplication.obj
 0002:00000f60       ??_C@_07DCLBNMLN@generic?$AA@ 00429f60     3DApplication.obj
 0002:00000f68       ??_C@_0O@BFJCFAAK@unknown?5error?$AA@ 00429f68     3DApplication.obj
 0002:00000f78       ??_C@_08LLGCOLLL@iostream?$AA@ 00429f78     3DApplication.obj
 0002:00000f84       ??_C@_0BG@PADBLCHM@iostream?5stream?5error?$AA@ 00429f84     3DApplication.obj
 0002:00000f9c       ??_C@_06FHFOAHML@system?$AA@ 00429f9c     3DApplication.obj
 0002:00000fa4       ??_C@_05JLNEMJLN@dummy?$AA@ 00429fa4     3DApplication.obj
 0002:00000fac       ??_C@_08IHALHJGN@Ogre?4log?$AA@ 00429fac     3DApplication.obj
 0002:00000fb8       ??_C@_08FCEINABH@ogre?4cfg?$AA@ 00429fb8     3DApplication.obj
 0002:00000fc4       ??_C@_0M@HKNDGOBH@plugins?4cfg?$AA@ 00429fc4     3DApplication.obj
 0002:00000fd0       ??_C@_03OAKHEHJB@?7?3?$DN?$AA@ 00429fd0     3DApplication.obj
 0002:00000fd4       ??_C@_0O@FDIMDEOH@resources?4cfg?$AA@ 00429fd4     3DApplication.obj
 0002:00000fe4       ??_C@_03EOFJOHLI@TTG?$AA@  00429fe4     3DApplication.obj
 0002:00000fe8       ??_C@_07ECEMPDJM@General?$AA@ 00429fe8     3DApplication.obj
 0002:00000ff0       ??_C@_06NBDPIEDA@WINDOW?$AA@ 00429ff0     3DApplication.obj
 0002:00000ff8       ??_C@_09OBCJJDIB@CEGUI?4log?$AA@ 00429ff8     3DApplication.obj
 0002:00001004       ??_C@_0BB@GJHDODMF@media?1gui?1fonts?1?$AA@ 0042a004     3DApplication.obj
 0002:00001018       ??_C@_05HOBDIAO@fonts?$AA@ 0042a018     3DApplication.obj
 0002:00001020       ??_C@_0BF@OOKNBOAM@media?1gui?1imagesets?1?$AA@ 0042a020     3DApplication.obj
 0002:00001038       ??_C@_09HDKCOFPA@imagesets?$AA@ 0042a038     3DApplication.obj
 0002:00001044       ??_C@_0BD@BDKFKCGJ@media?1gui?1layouts?1?$AA@ 0042a044     3DApplication.obj
 0002:00001058       ??_C@_07MBMNELB@layouts?$AA@ 0042a058     3DApplication.obj
 0002:00001060       ??_C@_0BF@KKKBLPML@media?1gui?1looknfeel?1?$AA@ 0042a060     3DApplication.obj
 0002:00001078       ??_C@_0L@PNNANLAL@looknfeels?$AA@ 0042a078     3DApplication.obj
 0002:00001084       ??_C@_0BD@PKPOHABB@media?1gui?1schemes?1?$AA@ 0042a084     3DApplication.obj
 0002:00001098       ??_C@_07DEGLJJLH@schemes?$AA@ 0042a098     3DApplication.obj
 0002:000010a0       ??_C@_0BH@GFBHDOPB@media?1gui?1xml_schemas?1?$AA@ 0042a0a0     3DApplication.obj
 0002:000010b8       ??_C@_0M@PCKDGOAB@xml_schemas?$AA@ 0042a0b8     3DApplication.obj
 0002:000010c4       ??_C@_0BL@NAGIAFFF@SchemaDefaultResourceGroup?$AA@ 0042a0c4     3DApplication.obj
 0002:000010e0       ??_C@_0BA@JFNIOLAK@string?5too?5long?$AA@ 0042a0e0     3DApplication.obj
 0002:000010f0       ??_C@_0BI@CFPLBAOH@invalid?5string?5position?$AA@ 0042a0f0     3DApplication.obj
 0002:00001108       ??_C@_0BM@PAPJHAGI@invalid?5map?1set?$DMT?$DO?5iterator?$AA@ 0042a108     3DApplication.obj
 0002:00001124       ??_C@_0BE@JONHPENG@map?1set?$DMT?$DO?5too?5long?$AA@ 0042a124     3DApplication.obj
 0002:0000113c       ??_7CWindowEventListener@Application@@6B@ 0042a13c     3DApplication.obj
 0002:00001154       ??_8?$basic_ostringstream@DU?$char_traits@D@std@@V?$allocator@D@2@@std@@7B@ 0042a154     3DApplication.obj
 0002:00001160       ??_7CMouseListener@InputListener@GUI@@6B@ 0042a160     BaseApplication.obj
 0002:00001170       ??_7CBaseApplication@Application@@6BCMouseListener@InputListener@GUI@@@ 0042a170     BaseApplication.obj
 0002:0000117c       ??_C@_0BC@KBDMBKEH@deque?$DMT?$DO?5too?5long?$AA@ 0042a17c     BaseApplication.obj
 0002:00001194       ??_7CBaseApplication@Application@@6BCkeyBoardListener@InputListener@GUI@@@ 0042a194     BaseApplication.obj
 0002:000011b4       ??_C@_0N@DFBANKBJ@Event?4layout?$AA@ 0042a1b4     EventState.obj
 0002:000011c4       ??_C@_04FEOMFELI@Back?$AA@ 0042a1c4     EventState.obj
 0002:000011cc       ??_C@_05PDJBBECF@pause?$AA@ 0042a1cc     EventState.obj
 0002:000011d8       ??_7CEventState@Application@@6BCMouseListener@InputListener@GUI@@@ 0042a1d8     EventState.obj
 0002:000011e8       ??_7CApplicationState@Application@@6BCMouseListener@InputListener@GUI@@@ 0042a1e8     EventState.obj
 0002:000011f8       ??_7SlotFunctorBase@CEGUI@@6B@ 0042a1f8     EventState.obj
 0002:00001204       ??_7CEventState@Application@@6BCkeyBoardListener@InputListener@GUI@@@ 0042a204     EventState.obj
 0002:00001230       ??_7CApplicationState@Application@@6BCkeyBoardListener@InputListener@GUI@@@ 0042a230     EventState.obj
 0002:0000125c       ??_7?$MemberFunctionSlot@VCEventState@Application@@@CEGUI@@6B@ 0042a25c     EventState.obj
 0002:00001264       ??_C@_0BF@JPPPNDK@galaxyBlueprints?4txt?$AA@ 0042a264     GalaxyState.obj
 0002:0000127c       ??_C@_04IKOBKKOH@0001?$AA@ 0042a27c     GalaxyState.obj
 0002:00001284       ??_C@_05GFHEIIDD@event?$AA@ 0042a284     GalaxyState.obj
 0002:00001290       ??_7CMenuState@Application@@6BCMouseListener@InputListener@GUI@@@ 0042a290     MenuState.obj
 0002:000012a0       ??_7CMenuState@Application@@6BCkeyBoardListener@InputListener@GUI@@@ 0042a2a0     MenuState.obj
 0002:000012cc       ??_7?$MemberFunctionSlot@VCMenuState@Application@@@CEGUI@@6B@ 0042a2cc     MenuState.obj
 0002:000012d4       ??_C@_0M@JDNDPOAF@Menu?4layout?$AA@ 0042a2d4     MenuState.obj
 0002:000012e0       ??_C@_05FHMJPCKA@Start?$AA@ 0042a2e0     MenuState.obj
 0002:000012e8       ??_C@_04LBABLPF@Exit?$AA@  0042a2e8     MenuState.obj
 0002:000012f0       ??_C@_06JEGNHPGI@galaxy?$AA@ 0042a2f0     MenuState.obj
 0002:000012f8       ??_C@_0N@CDKFFDAC@Pause?4layout?$AA@ 0042a2f8     PauseState.obj
 0002:00001308       ??_C@_06DEPGELNG@Resume?$AA@ 0042a308     PauseState.obj
 0002:00001310       ??_C@_04IFEHPILC@Menu?$AA@ 0042a310     PauseState.obj
 0002:0000131c       ??_7CPauseState@Application@@6BCkeyBoardListener@InputListener@GUI@@@ 0042a31c     PauseState.obj
 0002:00001348       ??_7CPauseState@Application@@6BCMouseListener@InputListener@GUI@@@ 0042a348     PauseState.obj
 0002:00001358       ??_7?$MemberFunctionSlot@VCPauseState@Application@@@CEGUI@@6B@ 0042a358     PauseState.obj
 0002:00001360       ??_C@_0BF@FAFMCDEC@planetBlueprints?4txt?$AA@ 0042a360     PlanetState.obj
 0002:00001378       ??_C@_0P@KPBBAAIN@0001_0001_0001?$AA@ 0042a378     PlanetState.obj
 0002:00001388       ??_C@_0BF@IAICEOLH@systemBlueprints?4txt?$AA@ 0042a388     SystemState.obj
 0002:000013a0       ??_C@_09JPIKDANP@0001_0001?$AA@ 0042a3a0     SystemState.obj
 0002:000013ac       ??_C@_06ILCJFEHP@planet?$AA@ 0042a3ac     SystemState.obj
 0002:000013b3       ?instance@?$keyword@Uformat@tag@keywords@v2s_mt_nt5@log@boost@@@parameter@boost@@2U123@B 0042a3b3     TTG.obj
 0002:000013b3       ?instance@?$keyword@Umin_free_space@tag@keywords@v2s_mt_nt5@log@boost@@@parameter@boost@@2U123@B 0042a3b3     TTG.obj
 0002:000013b3       ?instance@?$keyword@Utarget@tag@keywords@v2s_mt_nt5@log@boost@@@parameter@boost@@2U123@B 0042a3b3     TTG.obj
 0002:000013b3       ?instance@?$keyword@Udelimiter@tag@keywords@v2s_mt_nt5@log@boost@@@parameter@boost@@2U123@B 0042a3b3     TTG.obj
 0002:000013b3       ?instance@?$keyword@Uopen_mode@tag@keywords@v2s_mt_nt5@log@boost@@@parameter@boost@@2U123@B 0042a3b3     TTG.obj
 0002:000013b3       ?instance@?$keyword@Urotation_size@tag@keywords@v2s_mt_nt5@log@boost@@@parameter@boost@@2U123@B 0042a3b3     TTG.obj
 0002:000013b3       ?instance@?$keyword@Uscan_method@tag@keywords@v2s_mt_nt5@log@boost@@@parameter@boost@@2U123@B 0042a3b3     TTG.obj
 0002:000013b3       ?instance@?$keyword@Ufilter@tag@keywords@v2s_mt_nt5@log@boost@@@parameter@boost@@2U123@B 0042a3b3     TTG.obj
 0002:000013b3       ?instance@?$keyword@Umax_size@tag@keywords@v2s_mt_nt5@log@boost@@@parameter@boost@@2U123@B 0042a3b3     TTG.obj
 0002:000013b3       ?instance@?$keyword@Ufile_name@tag@keywords@v2s_mt_nt5@log@boost@@@parameter@boost@@2U123@B 0042a3b3     TTG.obj
 0002:000013b3       ?instance@?$keyword@Utime_based_rotation@tag@keywords@v2s_mt_nt5@log@boost@@@parameter@boost@@2U123@B 0042a3b3     TTG.obj
 0002:000013b3       ?instance@?$keyword@Udepth@tag@keywords@v2s_mt_nt5@log@boost@@@parameter@boost@@2U123@B 0042a3b3     TTG.obj
 0002:000013b3       ?instance@?$keyword@Useverity@tag@keywords@v2s_mt_nt5@log@boost@@@parameter@boost@@2U123@B 0042a3b3     TTG.obj
 0002:000013b3       ?instance@?$keyword@Uauto_flush@tag@keywords@v2s_mt_nt5@log@boost@@@parameter@boost@@2U123@B 0042a3b3     TTG.obj
 0002:000013b3       ?instance@?$keyword@Uiteration@tag@keywords@v2s_mt_nt5@log@boost@@@parameter@boost@@2U123@B 0042a3b3     TTG.obj
 0002:000013b8       ??_7CTTGApplication@Application@@6BCkeyBoardListener@InputListener@GUI@@@ 0042a3b8     TTGApplication.obj
 0002:000013dc       ??_7CPlanetState@Application@@6BCMouseListener@InputListener@GUI@@@ 0042a3dc     TTGApplication.obj
 0002:000013ec       ??_7CExitState@Application@@6BCkeyBoardListener@InputListener@GUI@@@ 0042a3ec     TTGApplication.obj
 0002:00001418       ??_7CSystemState@Application@@6BCMouseListener@InputListener@GUI@@@ 0042a418     TTGApplication.obj
 0002:00001428       ??_7CGalaxyState@Application@@6BCMouseListener@InputListener@GUI@@@ 0042a428     TTGApplication.obj
 0002:00001438       ??_7CSystemState@Application@@6BCkeyBoardListener@InputListener@GUI@@@ 0042a438     TTGApplication.obj
 0002:00001464       ??_7CTTGApplication@Application@@6BCMouseListener@InputListener@GUI@@@ 0042a464     TTGApplication.obj
 0002:00001474       ??_7CExitState@Application@@6BCMouseListener@InputListener@GUI@@@ 0042a474     TTGApplication.obj
 0002:00001484       ??_7CGalaxyState@Application@@6BCkeyBoardListener@InputListener@GUI@@@ 0042a484     TTGApplication.obj
 0002:000014b0       ??_7CPlanetState@Application@@6BCkeyBoardListener@InputListener@GUI@@@ 0042a4b0     TTGApplication.obj
 0002:000014d8       ??_C@_04EEIGNHLG@menu?$AA@ 0042a4d8     TTGApplication.obj
 0002:000014e0       ??_C@_04MKNBDEPB@exit?$AA@ 0042a4e0     TTGApplication.obj
 0002:000014e8       ??_C@_0BG@KPIPGFA@?4?1conf?1configure?4conf?$AA@ 0042a4e8     Configure.obj
 0002:00001500       ??_C@_08EPJLHIJG@bad?5cast?$AA@ 0042a500     Configure.obj
 0002:00001510       ??_7?$basic_ifstream@DU?$char_traits@D@std@@@std@@6B@ 0042a510     Configure.obj
 0002:0000151c       ??_8?$basic_ifstream@DU?$char_traits@D@std@@@std@@7B@ 0042a51c     Configure.obj
 0002:0000152e       ?yyundef_token_@CParser@Map@@0EB 0042a52e     Map:Parser.obj
 0002:0000152f       ?yypact_ninf_@CParser@Map@@0CB 0042a52f     Map:Parser.obj
 0002:0000153c       ?yystos_@CParser@Map@@0QBEB 0042a53c     Map:Parser.obj
 0002:0000155f       ?yytable_ninf_@CParser@Map@@0CB 0042a55f     Map:Parser.obj
 0002:00001560       ?yycheck_@CParser@Map@@0QBEB 0042a560     Map:Parser.obj
 0002:0000157c       ?yypgoto_@CParser@Map@@0QBCB 0042a57c     Map:Parser.obj
 0002:00001588       ?yyr1_@CParser@Map@@0QBEB  0042a588     Map:Parser.obj
 0002:0000159c       ?yyntokens_@CParser@Map@@0HB 0042a59c     Map:Parser.obj
 0002:000015a0       ?yytname_@CParser@Map@@0QBQBDB 0042a5a0     Map:Parser.obj
 0002:00001604       ?yytoken_number_@CParser@Map@@0QBGB 0042a604     Map:Parser.obj
 0002:00001620       ?yydefgoto_@CParser@Map@@0QBCB 0042a620     Map:Parser.obj
 0002:0000162c       ?yyprhs_@CParser@Map@@0QBEB 0042a62c     Map:Parser.obj
 0002:00001640       ?yyrline_@CParser@Map@@0QBEB 0042a640     Map:Parser.obj
 0002:00001654       ?yyempty_@CParser@Map@@0HB 0042a654     Map:Parser.obj
 0002:00001658       ?yyrhs_@CParser@Map@@0QBCB 0042a658     Map:Parser.obj
 0002:00001690       ?yyfinal_@CParser@Map@@0HB 0042a690     Map:Parser.obj
 0002:00001694       ?yyterror_@CParser@Map@@0HB 0042a694     Map:Parser.obj
 0002:00001698       ?yyr2_@CParser@Map@@0QBEB  0042a698     Map:Parser.obj
 0002:000016ac       ?yyuser_token_number_max_@CParser@Map@@0IB 0042a6ac     Map:Parser.obj
 0002:000016b0       ?yylast_@CParser@Map@@0HB  0042a6b0     Map:Parser.obj
 0002:000016b4       ?yydefact_@CParser@Map@@0QBEB 0042a6b4     Map:Parser.obj
 0002:000016d8       ?yytable_@CParser@Map@@0QBEB 0042a6d8     Map:Parser.obj
 0002:000016f4       ?yyeof_@CParser@Map@@0HB   0042a6f4     Map:Parser.obj
 0002:000016f8       ?yypact_@CParser@Map@@0QBCB 0042a6f8     Map:Parser.obj
 0002:00001d78       ??_C@_0P@GHFPNOJB@bad?5allocation?$AA@ 0042ad78     log.obj
 0002:00001d88       ??_C@_02LMMGGCAJ@?3?5?$AA@ 0042ad88     log.obj
 0002:00001d8c       ??_C@_07NJCHNMIF@ttg?4log?$AA@ 0042ad8c     log.obj
 0002:00001d94       ??_C@_01CLKCMJKC@?5?$AA@   0042ad94     log.obj
 0002:00001d98       ?lookup_attribute_data_2_pure@?$lookup_tables@$0A@@internal@rapidxml@@2QBEB 0042ad98     XmlParser.obj
 0002:00001e98       ?lookup_attribute_data_1_pure@?$lookup_tables@$0A@@internal@rapidxml@@2QBEB 0042ae98     XmlParser.obj
 0002:00001f98       ?lookup_text_pure_no_ws@?$lookup_tables@$0A@@internal@rapidxml@@2QBEB 0042af98     XmlParser.obj
 0002:00002098       ?lookup_attribute_data_2@?$lookup_tables@$0A@@internal@rapidxml@@2QBEB 0042b098     XmlParser.obj
 0002:00002198       ?lookup_attribute_data_1@?$lookup_tables@$0A@@internal@rapidxml@@2QBEB 0042b198     XmlParser.obj
 0002:00002298       ?lookup_whitespace@?$lookup_tables@$0A@@internal@rapidxml@@2QBEB 0042b298     XmlParser.obj
 0002:00002398       ?lookup_text@?$lookup_tables@$0A@@internal@rapidxml@@2QBEB 0042b398     XmlParser.obj
 0002:00002498       ?lookup_attribute_name@?$lookup_tables@$0A@@internal@rapidxml@@2QBEB 0042b498     XmlParser.obj
 0002:00002598       ?lookup_digits@?$lookup_tables@$0A@@internal@rapidxml@@2QBEB 0042b598     XmlParser.obj
 0002:00002698       ?lookup_node_name@?$lookup_tables@$0A@@internal@rapidxml@@2QBEB 0042b698     XmlParser.obj
 0002:0000279c       ??_7parse_error@rapidxml@@6B@ 0042b79c     XmlParser.obj
 0002:000027a4       ??_C@_0BG@HGEDEDEC@invalid?5stoi?5argument?$AA@ 0042b7a4     XmlParser.obj
 0002:000027bc       ??_C@_0BL@MFFNMGGC@stoi?5argument?5out?5of?5range?$AA@ 0042b7bc     XmlParser.obj
 0002:000027d8       ??_C@_08PNMNOKOB@entities?$AA@ 0042b7d8     XmlParser.obj
 0002:000027e4       ??_C@_06GOJKNBFM@entity?$AA@ 0042b7e4     XmlParser.obj
 0002:000027ec       ??_C@_04GPMDFGEJ@type?$AA@ 0042b7ec     XmlParser.obj
 0002:000027f4       ??_C@_09NILLCKIE@component?$AA@ 0042b7f4     XmlParser.obj
 0002:00002800       ??_C@_04MEMAJGDJ@name?$AA@ 0042b800     XmlParser.obj
 0002:00002808       ??_C@_06EBGNBFIA@number?$AA@ 0042b808     XmlParser.obj
 0002:00002810       ??_C@_08IIJFADMF@priority?$AA@ 0042b810     XmlParser.obj
 0002:0000281c       ??_C@_0BD@OLBABOEK@vector?$DMT?$DO?5too?5long?$AA@ 0042b81c     XmlParser.obj
 0002:00002830       ??_C@_0L@LMAIGCNG@expected?5?$DM?$AA@ 0042b830     XmlParser.obj
 0002:0000283c       ??_C@_0BH@OMKFHCNA@unexpected?5end?5of?5data?$AA@ 0042b83c     XmlParser.obj
 0002:00002854       ??_C@_0BG@JPKHCHFI@expected?5element?5name?$AA@ 0042b854     XmlParser.obj
 0002:0000286c       ??_C@_0L@IODOAAFE@expected?5?$DO?$AA@ 0042b86c     XmlParser.obj
 0002:00002878       ??_C@_0BI@JPJHILGI@expected?5attribute?5name?$AA@ 0042b878     XmlParser.obj
 0002:00002890       ??_C@_0L@KFBDFDJH@expected?5?$DN?$AA@ 0042b890     XmlParser.obj
 0002:0000289c       ??_C@_0BA@PGCHEADE@expected?5?8?5or?5?$CC?$AA@ 0042b89c     XmlParser.obj
 0002:000028ac       ??_C@_0L@PDEJPEBB@expected?5?$DL?$AA@ 0042b8ac     XmlParser.obj
 0002:000028b8       ??_C@_0CB@CEBHJJND@invalid?5numeric?5character?5entity@ 0042b8b8     XmlParser.obj
 0002:000028dc       ??_C@_0BB@MOGOBHAF@list?$DMT?$DO?5too?5long?$AA@ 0042b8dc     GUI:InputManager.obj
 0002:000028f4       ??_7CInputManager@GUI@@6BKeyListener@OIS@@@ 0042b8f4     GUI:InputManager.obj
 0002:00002904       ??_7MouseListener@OIS@@6B@ 0042b904     GUI:InputManager.obj
 0002:00002918       ??_7CInputManager@GUI@@6BMouseListener@OIS@@@ 0042b918     GUI:InputManager.obj
 0002:0000292c       ??_7KeyListener@OIS@@6B@   0042b92c     GUI:InputManager.obj
 0002:00002938       ??_C@_0BA@MLAHNKLN@OgreTray?4scheme?$AA@ 0042b938     GUI:GUI.obj
 0002:00002948       ??_C@_0BD@PECDOFLN@TaharezLook?4scheme?$AA@ 0042b948     GUI:GUI.obj
 0002:0000295c       ??_C@_0BD@MKCMCGHD@DejaVuSans?912?4font?$AA@ 0042b95c     GUI:GUI.obj
 0002:00002970       ??_C@_0BK@PAHDKAHP@OgreTrayImages?1MouseArrow?$AA@ 0042b970     GUI:GUI.obj
 0002:0000298c       ??_C@_0N@LDAFLKGM@Jura?918?4font?$AA@ 0042b98c     GUI:GUI.obj
 0002:000029a0       ??_7CGUI@GUI@@6BCMouseListener@InputListener@1@@ 0042b9a0     GUI:GUI.obj
 0002:000029b0       ??_7CGUI@GUI@@6BCkeyBoardListener@InputListener@1@@ 0042b9b0     GUI:GUI.obj
 0002:000029bc       ??_7CPlayerController@Controller@GUI@@6BCMouseListener@InputListener@2@@ 0042b9bc     GUI:PlayerController.obj
 0002:000029cc       ??_7CPlayerController@Controller@GUI@@6BCkeyBoardListener@InputListener@2@@ 0042b9cc     GUI:PlayerController.obj
 0002:000029d4       ??_C@_0BA@GAPPOFBC@blueprints_path?$AA@ 0042b9d4     Logic:EntityFactory.obj
 0002:000029e4       ??_C@_0BE@BJPLGLPG@Function?5not?5found?4?$AA@ 0042b9e4     Logic:EntityFactory.obj
 0002:000029fc       ??_7?$basic_istringstream@DU?$char_traits@D@std@@V?$allocator@D@2@@std@@6B@ 0042b9fc     Logic:EntityFactory.obj
 0002:00002a08       ??_8?$basic_istringstream@DU?$char_traits@D@std@@V?$allocator@D@2@@std@@7B@ 0042ba08     Logic:EntityFactory.obj
 0002:00002a14       ??_Sexception@std@@6B@     0042ba14     Logic:EntityFactory.obj
 0002:00002a1c       ??_C@_08HGHKMPBP@isPlayer?$AA@ 0042ba1c     Logic:Entity.obj
 0002:00002a28       ??_C@_05HJCMGBKF@speed?$AA@ 0042ba28     Logic:ControllerComponent.obj
 0002:00002a30       ??_C@_0BF@ILCBAEHP@CControllerComponent?$AA@ 0042ba30     Logic:ControllerComponent.obj
 0002:00002a4c       ??_7CControllerComponent@Logic@@6B@ 0042ba4c     Logic:ControllerComponent.obj
 0002:00002a6c       ??_7IComponent@Logic@@6B@  0042ba6c     Logic:ControllerComponent.obj
 0002:00002a8c       ??_7CMessageManager@Logic@@6B@ 0042ba8c     Logic:ControllerComponent.obj
 0002:00002a9c       ??_7CGraphics@Logic@@6B@   0042ba9c     Logic:Graphics.obj
 0002:00002abc       ??_C@_05NCCFOPHA@model?$AA@ 0042babc     Logic:Graphics.obj
 0002:00002ac4       ??_C@_09LKHCECNA@CGraphics?$AA@ 0042bac4     Logic:Graphics.obj
 0002:00002ad0       ??_C@_0L@NBHNIAC@CTransform?$AA@ 0042bad0     Logic:Graphics.obj
 0002:00002adc       ??_C@_05KBPGDGBJ@_node?$AA@ 0042badc     Logic:Graphics.obj
 0002:00002ae4       ??_C@_08OAGMDKAF@position?$AA@ 0042bae4     Logic:Transform.obj
 0002:00002af0       ??_C@_0M@KPMDGEHG@orientation?$AA@ 0042baf0     Logic:Transform.obj
 0002:00002b00       ??_7CTransform@Logic@@6B@  0042bb00     Logic:Transform.obj
 0002:00002b20       ??_7CCameraComponent@Logic@@6B@ 0042bb20     Logic:CameraComponent.obj
 0002:00002b40       ??_C@_0BB@DOPMJCEA@CCameraComponent?$AA@ 0042bb40     Logic:CameraComponent.obj
 0002:00002b54       ??_C@_0N@OHFFOOL@_camera_node?$AA@ 0042bb54     Logic:Scene.obj
 0002:00002b64       ??_C@_07CJOEBJGO@_camera?$AA@ 0042bb64     Logic:Scene.obj
 0002:00002b6c       ??_C@_0BC@CFBAKHOB@directional_light?$AA@ 0042bb6c     Logic:Scene.obj
 0002:00002b80       ??_C@_06GGHJAEBN@static?$AA@ 0042bb80     Logic:Scene.obj
 0002:00002b8c       ??_7CComponentFactory@Logic@@6B@ 0042bb8c     Logic:ComponentFactory.obj
 0002:00002b94       ??_7?$CFactory@PAVIComponent@Logic@@@Logic@@6B@ 0042bb94     Logic:ComponentFactory.obj
 0002:00002b9c       ??_7CMap@Map@@6B@          0042bb9c     Map:Map.obj
 0002:00002ba0       ??_C@_04LOAJBDKD@true?$AA@ 0042bba0     Map:MapEntity.obj
 0002:00002ba8       ??_C@_05LAPONLG@false?$AA@ 0042bba8     Map:MapEntity.obj
 0002:00002bb0       ??_C@_0CJ@FHEBLMHJ@Boolean?5attribute?5is?5not?5true?5no@ 0042bbb0     Map:MapEntity.obj
 0002:00002bdc       ??_C@_02KEGNLNML@?0?5?$AA@ 0042bbdc     Map:MapGenerator.obj
 0002:00002be0       ??_C@_06JIODDOFH@System?$AA@ 0042bbe0     Map:MapGenerator.obj
 0002:00002be8       ??_C@_08LIMGEHD@System?$CFd?$AA@ 0042bbe8     Map:MapGenerator.obj
 0002:00002bf4       ??_C@_01HCONENDN@?$HL?$AA@ 0042bbf4     Map:MapGenerator.obj
 0002:00002bf8       ??_C@_01CELHOKLL@?$HN?$AA@ 0042bbf8     Map:MapGenerator.obj
 0002:00002bfc       ??_C@_0BA@GPEBADEP@TestSphere?4mesh?$AA@ 0042bbfc     Map:MapGenerator.obj
 0002:00002c0c       ??_C@_01GBGANLPD@0?$AA@    0042bc0c     Map:MapGenerator.obj
 0002:00002c10       ??_C@_06JCBBMBIP@Camera?$AA@ 0042bc10     Map:MapGenerator.obj
 0002:00002c18       ??_C@_0BC@PPMAGPLG@GalaxySceneCamera?$AA@ 0042bc18     Map:MapGenerator.obj
 0002:00002c2c       ??_C@_02EAOCLKAK@ld?$AA@   0042bc2c     Map:MapGenerator.obj
 0002:00002c30       ??_C@_09EDAKOPAM@?$HL0?0?50?0?50?$HN?$AA@ 0042bc30     Map:MapGenerator.obj
 0002:00002c3c       ??_C@_02HIKPPMOK@Ld?$AA@   0042bc3c     Map:MapGenerator.obj
 0002:00002c40       ??_C@_02BDDLJJBK@lu?$AA@   0042bc40     Map:MapGenerator.obj
 0002:00002c44       ??_C@_02BBAHNLBA@?$CFp?$AA@ 0042bc44     Map:MapGenerator.obj
 0002:00002c48       ??_C@_02CLHGNPPK@Lu?$AA@   0042bc48     Map:MapGenerator.obj
 0002:00002c4c       ??_C@_02OOPEBDOJ@pP?$AA@   0042bc4c     Map:MapGenerator.obj
 0002:00002c50       ??_C@_02MDKMJEGG@eE?$AA@   0042bc50     Map:MapGenerator.obj
 0002:00002c58       ??_7?$numpunct@D@std@@6B@  0042bc58     Map:MapGenerator.obj
 0002:00002c7c       ??_7?$num_put@DV?$back_insert_iterator@V?$basic_string@DU?$char_traits@D@std@@V?$allocator@D@2@@std@@@std@@@std@@6B@ 0042bc7c     Map:MapGenerator.obj
 0002:00002ca8       ??_C@_09HLOIDNCA@maps_path?$AA@ 0042bca8     Map:MapParser.obj
 0002:00002dcc       ??_7CParser@Map@@6B@       0042bdcc     Map:Parser.obj
 0002:00002df0       ??_C@_05JMKJMOPH@token?$AA@ 0042bdf0     Map:Parser.obj
 0002:00002df8       ??_C@_02GFKOMOKH@?5?$CI?$AA@ 0042bdf8     Map:Parser.obj
 0002:00002dfc       ??_C@_0P@JNFPOELO@Starting?5parse?$AA@ 0042bdfc     Map:Parser.obj
 0002:00002e0c       ??_C@_05PLEPNIJM@nterm?$AA@ 0042be0c     Map:Parser.obj
 0002:00002e14       ??_C@_0BC@GAKGNBHB@Reading?5a?5token?3?5?$AA@ 0042be14     Map:Parser.obj
 0002:00002e28       ??_C@_0BA@DDCHFLND@Entering?5state?5?$AA@ 0042be28     Map:Parser.obj
 0002:00002e38       ??_C@_0O@CEHCICBP@Next?5token?5is?$AA@ 0042be38     Map:Parser.obj
 0002:00002e48       ??_C@_0BF@KEHFAAFL@Now?5at?5end?5of?5input?4?$AA@ 0042be48     Map:Parser.obj
 0002:00002e60       ??_C@_04GMOJEHPC@done?$AA@ 0042be60     Map:Parser.obj
 0002:00002e68       ??_C@_08LDCNCNFB@Shifting?$AA@ 0042be68     Map:Parser.obj
 0002:00002e74       ??_C@_0BC@GFIKEDAB@Error?3?5discarding?$AA@ 0042be74     Map:Parser.obj
 0002:00002e88       ??_C@_07EOOKDDNL@?9?$DO?5$$?5?$DN?$AA@ 0042be88     Map:Parser.obj
 0002:00002e90       ??_C@_0BO@MFNPENEL@Cleanup?3?5discarding?5lookahead?$AA@ 0042be90     Map:Parser.obj
 0002:00002eb0       ??_C@_0P@MNEOMIB@Error?3?5popping?$AA@ 0042beb0     Map:Parser.obj
 0002:00002ec0       ??_C@_0BK@OAJAIGBL@syntax?5error?0?5unexpected?5?$AA@ 0042bec0     Map:Parser.obj
 0002:00002edc       ??_C@_0BB@IALPPKLA@Cleanup?3?5popping?$AA@ 0042bedc     Map:Parser.obj
 0002:00002ef0       ??_C@_04FJKIFICP@?5or?5?$AA@ 0042bef0     Map:Parser.obj
 0002:00002ef8       ??_C@_0N@NAOBHHDD@?0?5expecting?5?$AA@ 0042bef8     Map:Parser.obj
 0002:00002f08       ??_C@_0O@PHJDCKIC@?$CCend?5of?5file?$CC?$AA@ 0042bf08     Map:Parser.obj
 0002:00002f18       ??_C@_0N@MNJHOOI@syntax?5error?$AA@ 0042bf18     Map:Parser.obj
 0002:00002f28       ??_C@_0L@HFCILFIM@$undefined?$AA@ 0042bf28     Map:Parser.obj
 0002:00002f34       ??_C@_05KKCIMGE@error?$AA@ 0042bf34     Map:Parser.obj
 0002:00002f3c       ??_C@_09COMJPDLF@SEMICOLON?$AA@ 0042bf3c     Map:Parser.obj
 0002:00002f48       ??_C@_05MFJMDLJG@EQUAL?$AA@ 0042bf48     Map:Parser.obj
 0002:00002f50       ??_C@_08HIHCFCPA@LEFT_PAR?$AA@ 0042bf50     Map:Parser.obj
 0002:00002f5c       ??_C@_05OFAMAJDB@COMMA?$AA@ 0042bf5c     Map:Parser.obj
 0002:00002f64       ??_C@_04HCDDPBNL@TRUE?$AA@ 0042bf64     Map:Parser.obj
 0002:00002f6c       ??_C@_09JIJNEBDC@RIGHT_PAR?$AA@ 0042bf6c     Map:Parser.obj
 0002:00002f78       ??_C@_06EFEGMLFC@NUMBER?$AA@ 0042bf78     Map:Parser.obj
 0002:00002f80       ??_C@_05MAJJAKPI@FALSE?$AA@ 0042bf80     Map:Parser.obj
 0002:00002f88       ??_C@_02OLOABKKD@ID?$AA@   0042bf88     Map:Parser.obj
 0002:00002f8c       ??_C@_06IGECGLFO@STRING?$AA@ 0042bf8c     Map:Parser.obj
 0002:00002f94       ??_C@_07IJIIKIJB@$accept?$AA@ 0042bf94     Map:Parser.obj
 0002:00002f9c       ??_C@_08DFDIOMNL@MAPBEGIN?$AA@ 0042bf9c     Map:Parser.obj
 0002:00002fa8       ??_C@_08HPDMGIEC@Entities?$AA@ 0042bfa8     Map:Parser.obj
 0002:00002fb4       ??_C@_03NBOPHIOC@Map?$AA@  0042bfb4     Map:Parser.obj
 0002:00002fb8       ??_C@_03EHCMJCPI@$?$EA1?$AA@ 0042bfb8     Map:Parser.obj
 0002:00002fbc       ??_C@_06KBCHOIMA@Entity?$AA@ 0042bfbc     Map:Parser.obj
 0002:00002fc4       ??_C@_09EIDFECNJ@Attribute?$AA@ 0042bfc4     Map:Parser.obj
 0002:00002fd0       ??_C@_0L@PLFFHFAH@Attributes?$AA@ 0042bfd0     Map:Parser.obj
 0002:00002fdc       ??_C@_08GCJNLIKG@Position?$AA@ 0042bfdc     Map:Parser.obj
 0002:00002fe8       ??_C@_07HAEFGBDM@Feature?$AA@ 0042bfe8     Map:Parser.obj
 0002:00002ff0       ??_C@_09BOPIPNMH@Stack?5now?$AA@ 0042bff0     Map:Parser.obj
 0002:00002ffc       ??_C@_09IBFEOKHN@Separator?$AA@ 0042bffc     Map:Parser.obj
 0002:00003008       ??_C@_07HEIMECHP@?5?$CIline?5?$AA@ 0042c008     Map:Parser.obj
 0002:00003010       ??_C@_02BCILIFPL@?$CJ?3?$AA@ 0042c010     Map:Parser.obj
 0002:00003014       ??_C@_02FCBLCILD@?5?$DN?$AA@ 0042c014     Map:Parser.obj
 0002:00003018       ??_C@_0BI@PDIEFCCC@Reducing?5stack?5by?5rule?5?$AA@ 0042c018     Map:Parser.obj
 0002:00003030       ??_C@_04JBILCPJO@?5?5?5$?$AA@ 0042c030     Map:Parser.obj
 0002:00003038       ??_C@_03BJPDNCLD@?$CC?$CJ?6?$AA@ 0042c038     Map:Scanner.obj
 0002:0000303c       ??_C@_0BG@NDEBJGFP@?9?9scanner?5backing?5up?6?$AA@ 0042c03c     Map:Scanner.obj
 0002:00003054       ??_C@_0BK@KPLFHCIO@?9?9accepting?5rule?5at?5line?5?$AA@ 0042c054     Map:Scanner.obj
 0002:00003070       ??_C@_02JBFCHHJF@?$CI?$CC?$AA@ 0042c070     Map:Scanner.obj
 0002:00003074       ??_C@_0BM@CBKAGKGH@?9?9?$CIend?5of?5buffer?5or?5a?5NUL?$CJ?6?$AA@ 0042c074     Map:Scanner.obj
 0002:00003090       ??_C@_0BM@ICHGDHJD@?9?9accepting?5default?5rule?5?$CI?$CC?$AA@ 0042c090     Map:Scanner.obj
 0002:000030ac       ??_C@_0BI@MMOCCAHK@?9?9EOF?5?$CIstart?5condition?5?$AA@ 0042c0ac     Map:Scanner.obj
 0002:000030c4       ??_C@_02MNMNLDAI@?$CJ?6?$AA@ 0042c0c4     Map:Scanner.obj
 0002:000030c8       ??_C@_0DI@MLIALAAB@fatal?5flex?5scanner?5internal?5erro@ 0042c0c8     Map:Scanner.obj
 0002:00003100       ??_C@_0DD@JHONDBLF@fatal?5flex?5scanner?5internal?5erro@ 0042c100     Map:Scanner.obj
 0002:00003134       ??_C@_0BN@KCKEEIJO@input?5in?5flex?5scanner?5failed?$AA@ 0042c134     Map:Scanner.obj
 0002:00003154       ??_C@_0CM@KBIPOOPN@fatal?5error?5?9?5scanner?5input?5buff@ 0042c154     Map:Scanner.obj
 0002:00003180       ??_C@_0CO@GMABFCIG@out?5of?5dynamic?5memory?5in?5yy_get_@ 0042c180     Map:Scanner.obj
 0002:000031b0       ??_C@_0DB@PJCMFNHO@out?5of?5dynamic?5memory?5in?5yyensur@ 0042c1b0     Map:Scanner.obj
 0002:000031e4       ??_C@_0CM@KGHDCJOD@out?5of?5dynamic?5memory?5in?5yy_crea@ 0042c1e4     Map:Scanner.obj
 0002:00003210       ??_C@_0BM@IEKIPIHO@in?5CMapFlexLexer?3?3yylex?$CI?$CJ?5?$CB?$AA@ 0042c210     Map:Scanner.obj
 0002:00003230       ??_7FlexLexer@@6B@         0042c230     Map:Scanner.obj
 0002:00003250       ??_7CScanner@Map@@6B@      0042c250     Map:Scanner.obj
 0002:00003284       ??_7CMapFlexLexer@@6B@     0042c284     Map:Scanner.obj
 0002:000032b0       __real@38aa95a5b7f87a0f    0042c2b0     3DApplication.obj
 0002:000032b8       __real@3f800000            0042c2b8     3DApplication.obj
 0002:000032c0       __real@3fe0000000000000    0042c2c0     3DApplication.obj
 0002:000032c8       __real@3ff0000000000000    0042c2c8     3DApplication.obj
 0002:000032d0       __real@4010000000000000    0042c2d0     3DApplication.obj
 0002:000032d8       __real@4202a05f20000000    0042c2d8     3DApplication.obj
 0002:000032e0       __real@42c80000            0042c2e0     3DApplication.obj
 0002:000032e4       __real@43340000            0042c2e4     3DApplication.obj
 0002:000032e8       __real@437a0000            0042c2e8     3DApplication.obj
 0002:000032ec       __real@447a0000            0042c2ec     3DApplication.obj
 0002:000032f0       __real@4733426172c74d82    0042c2f0     3DApplication.obj
 0002:000032f8       __real@4f800000            0042c2f8     3DApplication.obj
 0002:00003300       __xmm@41f00000000000000000000000000000 0042c300     3DApplication.obj
 0002:00003310       __xmm@80000000000000008000000000000000 0042c310     3DApplication.obj
 0002:00003320       __xmm@80000000800000008000000080000000 0042c320     3DApplication.obj
 0002:00003330       __load_config_used         0042c330     MSVCRT:loadcfg.obj
 0002:00003378       __tls_used                 0042c378     MSVCRT:tlssup.obj
 0002:000033f0       ??_R4bad_exception@std@@6B@ 0042c3f0     libboost_thread-vc110-mt-1_55:thread.obj
 0002:00003404       ??_R3bad_exception@std@@8  0042c404     libboost_thread-vc110-mt-1_55:thread.obj
 0002:00003414       ??_R2bad_exception@std@@8  0042c414     libboost_thread-vc110-mt-1_55:thread.obj
 0002:00003420       ??_R1A@?0A@EA@bad_exception@std@@8 0042c420     libboost_thread-vc110-mt-1_55:thread.obj
 0002:0000343c       ??_R4bad_alloc_@exception_detail@boost@@6Bexception@2@@ 0042c43c     libboost_thread-vc110-mt-1_55:thread.obj
 0002:00003450       ??_R3bad_alloc_@exception_detail@boost@@8 0042c450     libboost_thread-vc110-mt-1_55:thread.obj
 0002:00003460       ??_R2bad_alloc_@exception_detail@boost@@8 0042c460     libboost_thread-vc110-mt-1_55:thread.obj
 0002:00003474       ??_R1A@?0A@EA@bad_alloc_@exception_detail@boost@@8 0042c474     libboost_thread-vc110-mt-1_55:thread.obj
 0002:00003490       ??_R1BE@?0A@EA@bad_alloc@std@@8 0042c490     libboost_thread-vc110-mt-1_55:thread.obj
 0002:000034ac       ??_R1BE@?0A@EA@exception@std@@8 0042c4ac     libboost_thread-vc110-mt-1_55:thread.obj
 0002:000034c8       ??_R4bad_alloc_@exception_detail@boost@@6Bbad_alloc@std@@@ 0042c4c8     libboost_thread-vc110-mt-1_55:thread.obj
 0002:000034dc       ??_R4bad_exception_@exception_detail@boost@@6Bexception@2@@ 0042c4dc     libboost_thread-vc110-mt-1_55:thread.obj
 0002:000034f0       ??_R3bad_exception_@exception_detail@boost@@8 0042c4f0     libboost_thread-vc110-mt-1_55:thread.obj
 0002:00003500       ??_R2bad_exception_@exception_detail@boost@@8 0042c500     libboost_thread-vc110-mt-1_55:thread.obj
 0002:00003514       ??_R1A@?0A@EA@bad_exception_@exception_detail@boost@@8 0042c514     libboost_thread-vc110-mt-1_55:thread.obj
 0002:00003530       ??_R1BE@?0A@EA@bad_exception@std@@8 0042c530     libboost_thread-vc110-mt-1_55:thread.obj
 0002:0000354c       ??_R4bad_exception_@exception_detail@boost@@6Bbad_exception@std@@@ 0042c54c     libboost_thread-vc110-mt-1_55:thread.obj
 0002:00003560       ??_R4?$clone_impl@Ubad_alloc_@exception_detail@boost@@@exception_detail@boost@@6Bexception@2@@ 0042c560     libboost_thread-vc110-mt-1_55:thread.obj
 0002:00003574       ??_R3?$clone_impl@Ubad_alloc_@exception_detail@boost@@@exception_detail@boost@@8 0042c574     libboost_thread-vc110-mt-1_55:thread.obj
 0002:00003584       ??_R2?$clone_impl@Ubad_alloc_@exception_detail@boost@@@exception_detail@boost@@8 0042c584     libboost_thread-vc110-mt-1_55:thread.obj
 0002:000035a0       ??_R1A@?0A@EA@?$clone_impl@Ubad_alloc_@exception_detail@boost@@@exception_detail@boost@@8 0042c5a0     libboost_thread-vc110-mt-1_55:thread.obj
 0002:000035bc       ??_R4?$clone_impl@Ubad_alloc_@exception_detail@boost@@@exception_detail@boost@@6Bbad_alloc@std@@@ 0042c5bc     libboost_thread-vc110-mt-1_55:thread.obj
 0002:000035d0       ??_R4?$clone_impl@Ubad_alloc_@exception_detail@boost@@@exception_detail@boost@@6B@ 0042c5d0     libboost_thread-vc110-mt-1_55:thread.obj
 0002:000035e4       ??_R4?$clone_impl@Ubad_exception_@exception_detail@boost@@@exception_detail@boost@@6Bexception@2@@ 0042c5e4     libboost_thread-vc110-mt-1_55:thread.obj
 0002:000035f8       ??_R3?$clone_impl@Ubad_exception_@exception_detail@boost@@@exception_detail@boost@@8 0042c5f8     libboost_thread-vc110-mt-1_55:thread.obj
 0002:00003608       ??_R2?$clone_impl@Ubad_exception_@exception_detail@boost@@@exception_detail@boost@@8 0042c608     libboost_thread-vc110-mt-1_55:thread.obj
 0002:00003624       ??_R1A@?0A@EA@?$clone_impl@Ubad_exception_@exception_detail@boost@@@exception_detail@boost@@8 0042c624     libboost_thread-vc110-mt-1_55:thread.obj
 0002:00003640       ??_R4?$clone_impl@Ubad_exception_@exception_detail@boost@@@exception_detail@boost@@6Bbad_exception@std@@@ 0042c640     libboost_thread-vc110-mt-1_55:thread.obj
 0002:00003654       ??_R4?$clone_impl@Ubad_exception_@exception_detail@boost@@@exception_detail@boost@@6B@ 0042c654     libboost_thread-vc110-mt-1_55:thread.obj
 0002:00003668       ??_R4?$sp_counted_impl_p@V?$clone_impl@Ubad_alloc_@exception_detail@boost@@@exception_detail@boost@@@detail@boost@@6B@ 0042c668     libboost_thread-vc110-mt-1_55:thread.obj
 0002:0000367c       ??_R3?$sp_counted_impl_p@V?$clone_impl@Ubad_alloc_@exception_detail@boost@@@exception_detail@boost@@@detail@boost@@8 0042c67c     libboost_thread-vc110-mt-1_55:thread.obj
 0002:0000368c       ??_R2?$sp_counted_impl_p@V?$clone_impl@Ubad_alloc_@exception_detail@boost@@@exception_detail@boost@@@detail@boost@@8 0042c68c     libboost_thread-vc110-mt-1_55:thread.obj
 0002:00003698       ??_R1A@?0A@EA@?$sp_counted_impl_p@V?$clone_impl@Ubad_alloc_@exception_detail@boost@@@exception_detail@boost@@@detail@boost@@8 0042c698     libboost_thread-vc110-mt-1_55:thread.obj
 0002:000036b4       ??_R4?$sp_counted_impl_p@V?$clone_impl@Ubad_exception_@exception_detail@boost@@@exception_detail@boost@@@detail@boost@@6B@ 0042c6b4     libboost_thread-vc110-mt-1_55:thread.obj
 0002:000036c8       ??_R3?$sp_counted_impl_p@V?$clone_impl@Ubad_exception_@exception_detail@boost@@@exception_detail@boost@@@detail@boost@@8 0042c6c8     libboost_thread-vc110-mt-1_55:thread.obj
 0002:000036d8       ??_R2?$sp_counted_impl_p@V?$clone_impl@Ubad_exception_@exception_detail@boost@@@exception_detail@boost@@@detail@boost@@8 0042c6d8     libboost_thread-vc110-mt-1_55:thread.obj
 0002:000036e4       ??_R1A@?0A@EA@?$sp_counted_impl_p@V?$clone_impl@Ubad_exception_@exception_detail@boost@@@exception_detail@boost@@@detail@boost@@8 0042c6e4     libboost_thread-vc110-mt-1_55:thread.obj
 0002:00003700       ??_R4error_category@system@boost@@6B@ 0042c700     libboost_system-vc110-mt-1_55:error_code.obj
 0002:00003714       ??_R3error_category@system@boost@@8 0042c714     libboost_system-vc110-mt-1_55:error_code.obj
 0002:00003724       ??_R2error_category@system@boost@@8 0042c724     libboost_system-vc110-mt-1_55:error_code.obj
 0002:00003730       ??_R1A@?0A@EA@error_category@system@boost@@8 0042c730     libboost_system-vc110-mt-1_55:error_code.obj
 0002:0000374c       ??_R13?0A@EA@noncopyable@noncopyable_@boost@@8 0042c74c     libboost_system-vc110-mt-1_55:error_code.obj
 0002:00003768       ??_R3noncopyable@noncopyable_@boost@@8 0042c768     libboost_system-vc110-mt-1_55:error_code.obj
 0002:00003778       ??_R2noncopyable@noncopyable_@boost@@8 0042c778     libboost_system-vc110-mt-1_55:error_code.obj
 0002:00003780       ??_R1A@?0A@EA@noncopyable@noncopyable_@boost@@8 0042c780     libboost_system-vc110-mt-1_55:error_code.obj
 0002:0000379c       ??_R4generic_error_category@?A0xeba5f5ee@system@boost@@6B@ 0042c79c     libboost_system-vc110-mt-1_55:error_code.obj
 0002:000037b0       ??_R3generic_error_category@?A0xeba5f5ee@system@boost@@8 0042c7b0     libboost_system-vc110-mt-1_55:error_code.obj
 0002:000037c0       ??_R2generic_error_category@?A0xeba5f5ee@system@boost@@8 0042c7c0     libboost_system-vc110-mt-1_55:error_code.obj
 0002:000037d0       ??_R1A@?0A@EA@generic_error_category@?A0xeba5f5ee@system@boost@@8 0042c7d0     libboost_system-vc110-mt-1_55:error_code.obj
 0002:000037ec       ??_R4system_error_category@?A0xeba5f5ee@system@boost@@6B@ 0042c7ec     libboost_system-vc110-mt-1_55:error_code.obj
 0002:00003800       ??_R3system_error_category@?A0xeba5f5ee@system@boost@@8 0042c800     libboost_system-vc110-mt-1_55:error_code.obj
 0002:00003810       ??_R2system_error_category@?A0xeba5f5ee@system@boost@@8 0042c810     libboost_system-vc110-mt-1_55:error_code.obj
 0002:00003820       ??_R1A@?0A@EA@system_error_category@?A0xeba5f5ee@system@boost@@8 0042c820     libboost_system-vc110-mt-1_55:error_code.obj
 0002:0000383c       ??_R4type_info@@6B@        0042c83c     MSVCRT:ti_inst.obj
 0002:00003850       ??_R3type_info@@8          0042c850     MSVCRT:ti_inst.obj
 0002:00003860       ??_R2type_info@@8          0042c860     MSVCRT:ti_inst.obj
 0002:00003868       ??_R1A@?0A@EA@type_info@@8 0042c868     MSVCRT:ti_inst.obj
 0002:00003884       ??_R1A@?0A@EA@CWindowEventListener@Application@@8 0042c884     3DApplication.obj
 0002:000038a0       ??_R2WindowEventListener@Ogre@@8 0042c8a0     3DApplication.obj
 0002:000038a8       ??_R1A@?0A@EA@error_category@std@@8 0042c8a8     3DApplication.obj
 0002:000038c4       ??_R3_System_error_category@std@@8 0042c8c4     3DApplication.obj
 0002:000038d4       ??_R1A@A@3EA@ios_base@std@@8 0042c8d4     3DApplication.obj
 0002:000038f0       ??_R4CWindowEventListener@Application@@6B@ 0042c8f0     3DApplication.obj
 0002:00003904       ??_R3CMouseListener@InputListener@GUI@@8 0042c904     3DApplication.obj
 0002:00003914       ??_R2_System_error_category@std@@8 0042c914     3DApplication.obj
 0002:00003924       ??_R4_Generic_error_category@std@@6B@ 0042c924     3DApplication.obj
 0002:00003938       ??_R1A@?0A@EA@C3DApplication@Application@@8 0042c938     3DApplication.obj
 0002:00003954       ??_R1A@?0A@EA@?$_Iosb@H@std@@8 0042c954     3DApplication.obj
 0002:00003970       ??_R1A@?0A@EA@_Generic_error_category@std@@8 0042c970     3DApplication.obj
 0002:0000398c       ??_R3?$_Iosb@H@std@@8      0042c98c     3DApplication.obj
 0002:0000399c       ??_R1A@?0A@EA@CMouseListener@InputListener@GUI@@8 0042c99c     3DApplication.obj
 0002:000039b8       ??_R1A@?0A@EA@_Iostream_error_category@std@@8 0042c9b8     3DApplication.obj
 0002:000039d4       ??_R4error_category@std@@6B@ 0042c9d4     3DApplication.obj
 0002:000039e8       ??_R2?$basic_streambuf@DU?$char_traits@D@std@@@std@@8 0042c9e8     3DApplication.obj
 0002:000039f0       ??_R4_Iostream_error_category@std@@6B@ 0042c9f0     3DApplication.obj
 0002:00003a04       ??_R3CkeyBoardListener@InputListener@GUI@@8 0042ca04     3DApplication.obj
 0002:00003a14       ??_R3?$basic_ostringstream@DU?$char_traits@D@std@@V?$allocator@D@2@@std@@8 0042ca14     3DApplication.obj
 0002:00003a24       ??_R1A@?0A@EA@CkeyBoardListener@InputListener@GUI@@8 0042ca24     3DApplication.obj
 0002:00003a40       ??_R1A@?0A@EA@?$basic_ostream@DU?$char_traits@D@std@@@std@@8 0042ca40     3DApplication.obj
 0002:00003a5c       ??_R2error_category@std@@8 0042ca5c     3DApplication.obj
 0002:00003a64       ??_R2ios_base@std@@8       0042ca64     3DApplication.obj
 0002:00003a70       ??_R1A@?0A@EA@?$basic_ios@DU?$char_traits@D@std@@@std@@8 0042ca70     3DApplication.obj
 0002:00003a8c       ??_R2?$basic_stringbuf@DU?$char_traits@D@std@@V?$allocator@D@2@@std@@8 0042ca8c     3DApplication.obj
 0002:00003a98       ??_R2C3DApplication@Application@@8 0042ca98     3DApplication.obj
 0002:00003aac       ??_R1A@?0A@EA@_System_error_category@std@@8 0042caac     3DApplication.obj
 0002:00003ac8       ??_R3_Iostream_error_category@std@@8 0042cac8     3DApplication.obj
 0002:00003ad8       ??_R2?$_Iosb@H@std@@8      0042cad8     3DApplication.obj
 0002:00003ae0       ??_R1A@?0A@EA@?$basic_ostringstream@DU?$char_traits@D@std@@V?$allocator@D@2@@std@@8 0042cae0     3DApplication.obj
 0002:00003afc       ??_R3WindowEventListener@Ogre@@8 0042cafc     3DApplication.obj
 0002:00003b0c       ??_R1A@?0A@EA@CBaseApplication@Application@@8 0042cb0c     3DApplication.obj
 0002:00003b28       ??_R3?$basic_ios@DU?$char_traits@D@std@@@std@@8 0042cb28     3DApplication.obj
 0002:00003b38       ??_R1A@?0A@EA@WindowEventListener@Ogre@@8 0042cb38     3DApplication.obj
 0002:00003b54       ??_R4_System_error_category@std@@6B@ 0042cb54     3DApplication.obj
 0002:00003b68       ??_R2CMouseListener@InputListener@GUI@@8 0042cb68     3DApplication.obj
 0002:00003b70       ??_R17A@3EA@?$_Iosb@H@std@@8 0042cb70     3DApplication.obj
 0002:00003b8c       ??_R2_Generic_error_category@std@@8 0042cb8c     3DApplication.obj
 0002:00003b98       ??_R2?$basic_ostringstream@DU?$char_traits@D@std@@V?$allocator@D@2@@std@@8 0042cb98     3DApplication.obj
 0002:00003bb0       ??_R2CBaseApplication@Application@@8 0042cbb0     3DApplication.obj
 0002:00003bc0       ??_R3?$basic_stringbuf@DU?$char_traits@D@std@@V?$allocator@D@2@@std@@8 0042cbc0     3DApplication.obj
 0002:00003bd0       ??_R1A@?0A@EA@ios_base@std@@8 0042cbd0     3DApplication.obj
 0002:00003bec       ??_R2?$basic_ios@DU?$char_traits@D@std@@@std@@8 0042cbec     3DApplication.obj
 0002:00003bfc       ??_R3_Generic_error_category@std@@8 0042cbfc     3DApplication.obj
 0002:00003c0c       ??_R1A@?0A@EA@?$basic_stringbuf@DU?$char_traits@D@std@@V?$allocator@D@2@@std@@8 0042cc0c     3DApplication.obj
 0002:00003c28       ??_R2_Iostream_error_category@std@@8 0042cc28     3DApplication.obj
 0002:00003c38       ??_R3C3DApplication@Application@@8 0042cc38     3DApplication.obj
 0002:00003c48       ??_R2CWindowEventListener@Application@@8 0042cc48     3DApplication.obj
 0002:00003c54       ??_R17?0A@EA@?$_Iosb@H@std@@8 0042cc54     3DApplication.obj
 0002:00003c70       ??_R2CkeyBoardListener@InputListener@GUI@@8 0042cc70     3DApplication.obj
 0002:00003c78       ??_R4?$basic_stringbuf@DU?$char_traits@D@std@@V?$allocator@D@2@@std@@6B@ 0042cc78     3DApplication.obj
 0002:00003c8c       ??_R3?$basic_streambuf@DU?$char_traits@D@std@@@std@@8 0042cc8c     3DApplication.obj
 0002:00003c9c       ??_R13?0A@EA@CMouseListener@InputListener@GUI@@8 0042cc9c     3DApplication.obj
 0002:00003cb8       ??_R3CWindowEventListener@Application@@8 0042ccb8     3DApplication.obj
 0002:00003cc8       ??_R3ios_base@std@@8       0042ccc8     3DApplication.obj
 0002:00003cd8       ??_R1A@?0A@EA@?$basic_streambuf@DU?$char_traits@D@std@@@std@@8 0042ccd8     3DApplication.obj
 0002:00003cf4       ??_R3error_category@std@@8 0042ccf4     3DApplication.obj
 0002:00003d04       ??_R3CBaseApplication@Application@@8 0042cd04     3DApplication.obj
 0002:00003d14       ??_R4?$basic_ostringstream@DU?$char_traits@D@std@@V?$allocator@D@2@@std@@6B@ 0042cd14     3DApplication.obj
 0002:00003d28       ??_R1A@A@3FA@?$basic_ios@DU?$char_traits@D@std@@@std@@8 0042cd28     3DApplication.obj
 0002:00003d44       ??_R3?$basic_ostream@DU?$char_traits@D@std@@@std@@8 0042cd44     3DApplication.obj
 0002:00003d54       ??_R2?$basic_ostream@DU?$char_traits@D@std@@@std@@8 0042cd54     3DApplication.obj
 0002:00003d68       ??_R4CBaseApplication@Application@@6BCkeyBoardListener@InputListener@GUI@@@ 0042cd68     BaseApplication.obj
 0002:00003d7c       ??_R4CMouseListener@InputListener@GUI@@6B@ 0042cd7c     BaseApplication.obj
 0002:00003d90       ??_R4CBaseApplication@Application@@6BCMouseListener@InputListener@GUI@@@ 0042cd90     BaseApplication.obj
 0002:00003da4       ??_R2?$MemberFunctionSlot@VCEventState@Application@@@CEGUI@@8 0042cda4     EventState.obj
 0002:00003db0       ??_R3CEventState@Application@@8 0042cdb0     EventState.obj
 0002:00003dc0       ??_R2SlotFunctorBase@CEGUI@@8 0042cdc0     EventState.obj
 0002:00003dc8       ??_R2CApplicationState@Application@@8 0042cdc8     EventState.obj
 0002:00003dd8       ??_R1A@?0A@EA@CEventState@Application@@8 0042cdd8     EventState.obj
 0002:00003df4       ??_R4?$MemberFunctionSlot@VCEventState@Application@@@CEGUI@@6B@ 0042cdf4     EventState.obj
 0002:00003e08       ??_R4CApplicationState@Application@@6BCMouseListener@InputListener@GUI@@@ 0042ce08     EventState.obj
 0002:00003e1c       ??_R4CEventState@Application@@6BCkeyBoardListener@InputListener@GUI@@@ 0042ce1c     EventState.obj
 0002:00003e30       ??_R1A@?0A@EA@SlotFunctorBase@CEGUI@@8 0042ce30     EventState.obj
 0002:00003e4c       ??_R4SlotFunctorBase@CEGUI@@6B@ 0042ce4c     EventState.obj
 0002:00003e60       ??_R1A@?0A@EA@?$MemberFunctionSlot@VCEventState@Application@@@CEGUI@@8 0042ce60     EventState.obj
 0002:00003e7c       ??_R1A@?0A@EA@CApplicationState@Application@@8 0042ce7c     EventState.obj
 0002:00003e98       ??_R3CApplicationState@Application@@8 0042ce98     EventState.obj
 0002:00003ea8       ??_R4CEventState@Application@@6BCMouseListener@InputListener@GUI@@@ 0042cea8     EventState.obj
 0002:00003ebc       ??_R3SlotFunctorBase@CEGUI@@8 0042cebc     EventState.obj
 0002:00003ecc       ??_R2CEventState@Application@@8 0042cecc     EventState.obj
 0002:00003ee0       ??_R3?$MemberFunctionSlot@VCEventState@Application@@@CEGUI@@8 0042cee0     EventState.obj
 0002:00003ef0       ??_R4CApplicationState@Application@@6BCkeyBoardListener@InputListener@GUI@@@ 0042cef0     EventState.obj
 0002:00003f04       ??_R2CMenuState@Application@@8 0042cf04     MenuState.obj
 0002:00003f18       ??_R1A@?0A@EA@?$MemberFunctionSlot@VCMenuState@Application@@@CEGUI@@8 0042cf18     MenuState.obj
 0002:00003f34       ??_R4?$MemberFunctionSlot@VCMenuState@Application@@@CEGUI@@6B@ 0042cf34     MenuState.obj
 0002:00003f48       ??_R3?$MemberFunctionSlot@VCMenuState@Application@@@CEGUI@@8 0042cf48     MenuState.obj
 0002:00003f58       ??_R4CMenuState@Application@@6BCMouseListener@InputListener@GUI@@@ 0042cf58     MenuState.obj
 0002:00003f6c       ??_R1A@?0A@EA@CMenuState@Application@@8 0042cf6c     MenuState.obj
 0002:00003f88       ??_R2?$MemberFunctionSlot@VCMenuState@Application@@@CEGUI@@8 0042cf88     MenuState.obj
 0002:00003f94       ??_R4CMenuState@Application@@6BCkeyBoardListener@InputListener@GUI@@@ 0042cf94     MenuState.obj
 0002:00003fa8       ??_R3CMenuState@Application@@8 0042cfa8     MenuState.obj
 0002:00003fb8       ??_R1A@?0A@EA@?$MemberFunctionSlot@VCPauseState@Application@@@CEGUI@@8 0042cfb8     PauseState.obj
 0002:00003fd4       ??_R2?$MemberFunctionSlot@VCPauseState@Application@@@CEGUI@@8 0042cfd4     PauseState.obj
 0002:00003fe0       ??_R4CPauseState@Application@@6BCMouseListener@InputListener@GUI@@@ 0042cfe0     PauseState.obj
 0002:00003ff4       ??_R2CPauseState@Application@@8 0042cff4     PauseState.obj
 0002:00004008       ??_R4CPauseState@Application@@6BCkeyBoardListener@InputListener@GUI@@@ 0042d008     PauseState.obj
 0002:0000401c       ??_R3?$MemberFunctionSlot@VCPauseState@Application@@@CEGUI@@8 0042d01c     PauseState.obj
 0002:0000402c       ??_R4?$MemberFunctionSlot@VCPauseState@Application@@@CEGUI@@6B@ 0042d02c     PauseState.obj
 0002:00004040       ??_R3CPauseState@Application@@8 0042d040     PauseState.obj
 0002:00004050       ??_R1A@?0A@EA@CPauseState@Application@@8 0042d050     PauseState.obj
 0002:0000406c       ??_R4CPlanetState@Application@@6BCkeyBoardListener@InputListener@GUI@@@ 0042d06c     TTGApplication.obj
 0002:00004080       ??_R3CPlanetState@Application@@8 0042d080     TTGApplication.obj
 0002:00004090       ??_R4CTTGApplication@Application@@6BCkeyBoardListener@InputListener@GUI@@@ 0042d090     TTGApplication.obj
 0002:000040a4       ??_R4CExitState@Application@@6BCMouseListener@InputListener@GUI@@@ 0042d0a4     TTGApplication.obj
 0002:000040b8       ??_R3CExitState@Application@@8 0042d0b8     TTGApplication.obj
 0002:000040c8       ??_R1A@?0A@EA@CExitState@Application@@8 0042d0c8     TTGApplication.obj
 0002:000040e4       ??_R1A@?0A@EA@CSystemState@Application@@8 0042d0e4     TTGApplication.obj
 0002:00004100       ??_R2CSystemState@Application@@8 0042d100     TTGApplication.obj
 0002:00004114       ??_R1A@?0A@EA@CPlanetState@Application@@8 0042d114     TTGApplication.obj
 0002:00004130       ??_R4CSystemState@Application@@6BCkeyBoardListener@InputListener@GUI@@@ 0042d130     TTGApplication.obj
 0002:00004144       ??_R2CPlanetState@Application@@8 0042d144     TTGApplication.obj
 0002:00004158       ??_R4CTTGApplication@Application@@6BCMouseListener@InputListener@GUI@@@ 0042d158     TTGApplication.obj
 0002:0000416c       ??_R2CExitState@Application@@8 0042d16c     TTGApplication.obj
 0002:00004180       ??_R2CGalaxyState@Application@@8 0042d180     TTGApplication.obj
 0002:00004194       ??_R4CGalaxyState@Application@@6BCkeyBoardListener@InputListener@GUI@@@ 0042d194     TTGApplication.obj
 0002:000041a8       ??_R3CGalaxyState@Application@@8 0042d1a8     TTGApplication.obj
 0002:000041b8       ??_R1A@?0A@EA@CGalaxyState@Application@@8 0042d1b8     TTGApplication.obj
 0002:000041d4       ??_R3CSystemState@Application@@8 0042d1d4     TTGApplication.obj
 0002:000041e4       ??_R4CPlanetState@Application@@6BCMouseListener@InputListener@GUI@@@ 0042d1e4     TTGApplication.obj
 0002:000041f8       ??_R4CGalaxyState@Application@@6BCMouseListener@InputListener@GUI@@@ 0042d1f8     TTGApplication.obj
 0002:0000420c       ??_R2CTTGApplication@Application@@8 0042d20c     TTGApplication.obj
 0002:00004224       ??_R4CExitState@Application@@6BCkeyBoardListener@InputListener@GUI@@@ 0042d224     TTGApplication.obj
 0002:00004238       ??_R4CSystemState@Application@@6BCMouseListener@InputListener@GUI@@@ 0042d238     TTGApplication.obj
 0002:0000424c       ??_R1A@?0A@EA@CTTGApplication@Application@@8 0042d24c     TTGApplication.obj
 0002:00004268       ??_R3CTTGApplication@Application@@8 0042d268     TTGApplication.obj
 0002:00004278       ??_R2?$basic_ifstream@DU?$char_traits@D@std@@@std@@8 0042d278     Configure.obj
 0002:00004290       ??_R4?$basic_ifstream@DU?$char_traits@D@std@@@std@@6B@ 0042d290     Configure.obj
 0002:000042a4       ??_R1A@?0A@EA@?$basic_istream@DU?$char_traits@D@std@@@std@@8 0042d2a4     Configure.obj
 0002:000042c0       ??_R3?$basic_filebuf@DU?$char_traits@D@std@@@std@@8 0042d2c0     Configure.obj
 0002:000042d0       ??_R1A@?0A@EA@?$basic_filebuf@DU?$char_traits@D@std@@@std@@8 0042d2d0     Configure.obj
 0002:000042ec       ??_R3?$basic_ifstream@DU?$char_traits@D@std@@@std@@8 0042d2ec     Configure.obj
 0002:000042fc       ??_R4?$basic_filebuf@DU?$char_traits@D@std@@@std@@6B@ 0042d2fc     Configure.obj
 0002:00004310       ??_R1A@?0A@EA@?$basic_ifstream@DU?$char_traits@D@std@@@std@@8 0042d310     Configure.obj
 0002:0000432c       ??_R3?$basic_istream@DU?$char_traits@D@std@@@std@@8 0042d32c     Configure.obj
 0002:0000433c       ??_R2?$basic_filebuf@DU?$char_traits@D@std@@@std@@8 0042d33c     Configure.obj
 0002:00004348       ??_R2?$basic_istream@DU?$char_traits@D@std@@@std@@8 0042d348     Configure.obj
 0002:0000435c       ??_R3sp_counted_base@detail@boost@@8 0042d35c     log.obj
 0002:0000436c       ??_R3exception@boost@@8    0042d36c     log.obj
 0002:0000437c       ??_R2sp_counted_base@detail@boost@@8 0042d37c     log.obj
 0002:00004384       ??_R1A@?0A@EA@exception@std@@8 0042d384     log.obj
 0002:000043a0       ??_R1A@?0A@EA@sp_counted_base@detail@boost@@8 0042d3a0     log.obj
 0002:000043bc       ??_R2bad_alloc@std@@8      0042d3bc     log.obj
 0002:000043c8       ??_R1A@?0A@EA@bad_alloc@std@@8 0042d3c8     log.obj
 0002:000043e4       ??_R1A@CA@3FA@clone_base@exception_detail@boost@@8 0042d3e4     log.obj
 0002:00004400       ??_R4clone_base@exception_detail@boost@@6B@ 0042d400     log.obj
 0002:00004414       ??_R3bad_alloc@std@@8      0042d414     log.obj
 0002:00004424       ??_R2clone_base@exception_detail@boost@@8 0042d424     log.obj
 0002:0000442c       ??_R2exception@std@@8      0042d42c     log.obj
 0002:00004434       ??_R4exception@boost@@6B@  0042d434     log.obj
 0002:00004448       ??_R3exception@std@@8      0042d448     log.obj
 0002:00004458       ??_R3clone_base@exception_detail@boost@@8 0042d458     log.obj
 0002:00004468       ??_R4sp_counted_base@detail@boost@@6B@ 0042d468     log.obj
 0002:0000447c       ??_R2exception@boost@@8    0042d47c     log.obj
 0002:00004484       ??_R4bad_alloc@std@@6B@    0042d484     log.obj
 0002:00004498       ??_R1A@?0A@EA@clone_base@exception_detail@boost@@8 0042d498     log.obj
 0002:000044b4       ??_R1A@?0A@EA@exception@boost@@8 0042d4b4     log.obj
 0002:000044d0       ??_R3parse_error@rapidxml@@8 0042d4d0     XmlParser.obj
 0002:000044e0       ??_R2parse_error@rapidxml@@8 0042d4e0     XmlParser.obj
 0002:000044ec       ??_R4parse_error@rapidxml@@6B@ 0042d4ec     XmlParser.obj
 0002:00004500       ??_R1A@?0A@EA@parse_error@rapidxml@@8 0042d500     XmlParser.obj
 0002:0000451c       ??_R2CInputManager@GUI@@8  0042d51c     GUI:InputManager.obj
 0002:0000452c       ??_R4MouseListener@OIS@@6B@ 0042d52c     GUI:InputManager.obj
 0002:00004540       ??_R4CInputManager@GUI@@6BMouseListener@OIS@@@ 0042d540     GUI:InputManager.obj
 0002:00004554       ??_R3MouseListener@OIS@@8  0042d554     GUI:InputManager.obj
 0002:00004564       ??_R4KeyListener@OIS@@6B@  0042d564     GUI:InputManager.obj
 0002:00004578       ??_R1A@?0A@EA@CInputManager@GUI@@8 0042d578     GUI:InputManager.obj
 0002:00004594       ??_R2KeyListener@OIS@@8    0042d594     GUI:InputManager.obj
 0002:0000459c       ??_R13?0A@EA@MouseListener@OIS@@8 0042d59c     GUI:InputManager.obj
 0002:000045b8       ??_R4CInputManager@GUI@@6BKeyListener@OIS@@@ 0042d5b8     GUI:InputManager.obj
 0002:000045cc       ??_R2MouseListener@OIS@@8  0042d5cc     GUI:InputManager.obj
 0002:000045d4       ??_R1A@?0A@EA@KeyListener@OIS@@8 0042d5d4     GUI:InputManager.obj
 0002:000045f0       ??_R1A@?0A@EA@MouseListener@OIS@@8 0042d5f0     GUI:InputManager.obj
 0002:0000460c       ??_R3KeyListener@OIS@@8    0042d60c     GUI:InputManager.obj
 0002:0000461c       ??_R3CInputManager@GUI@@8  0042d61c     GUI:InputManager.obj
 0002:0000462c       ??_R2CGUI@GUI@@8           0042d62c     GUI:GUI.obj
 0002:0000463c       ??_R3CGUI@GUI@@8           0042d63c     GUI:GUI.obj
 0002:0000464c       ??_R1A@?0A@EA@CGUI@GUI@@8  0042d64c     GUI:GUI.obj
 0002:00004668       ??_R4CGUI@GUI@@6BCMouseListener@InputListener@1@@ 0042d668     GUI:GUI.obj
 0002:0000467c       ??_R4CGUI@GUI@@6BCkeyBoardListener@InputListener@1@@ 0042d67c     GUI:GUI.obj
 0002:00004690       ??_R3CPlayerController@Controller@GUI@@8 0042d690     GUI:PlayerController.obj
 0002:000046a0       ??_R4CPlayerController@Controller@GUI@@6BCMouseListener@InputListener@2@@ 0042d6a0     GUI:PlayerController.obj
 0002:000046b4       ??_R2CPlayerController@Controller@GUI@@8 0042d6b4     GUI:PlayerController.obj
 0002:000046c4       ??_R4CPlayerController@Controller@GUI@@6BCkeyBoardListener@InputListener@2@@ 0042d6c4     GUI:PlayerController.obj
 0002:000046d8       ??_R1A@?0A@EA@CPlayerController@Controller@GUI@@8 0042d6d8     GUI:PlayerController.obj
 0002:000046f4       ??_R4exception@std@@6B@    0042d6f4     Logic:EntityFactory.obj
 0002:00004708       ??_R1A@?0A@EA@?$basic_istringstream@DU?$char_traits@D@std@@V?$allocator@D@2@@std@@8 0042d708     Logic:EntityFactory.obj
 0002:00004724       ??_R4?$basic_istringstream@DU?$char_traits@D@std@@V?$allocator@D@2@@std@@6B@ 0042d724     Logic:EntityFactory.obj
 0002:00004738       ??_R3?$basic_istringstream@DU?$char_traits@D@std@@V?$allocator@D@2@@std@@8 0042d738     Logic:EntityFactory.obj
 0002:00004748       ??_R2?$basic_istringstream@DU?$char_traits@D@std@@V?$allocator@D@2@@std@@8 0042d748     Logic:EntityFactory.obj
 0002:00004760       ??_R2IComponent@Logic@@8   0042d760     Logic:ControllerComponent.obj
 0002:0000476c       ??_R2CControllerComponent@Logic@@8 0042d76c     Logic:ControllerComponent.obj
 0002:0000477c       ??_R1A@?0A@EA@CControllerComponent@Logic@@8 0042d77c     Logic:ControllerComponent.obj
 0002:00004798       ??_R4IComponent@Logic@@6B@ 0042d798     Logic:ControllerComponent.obj
 0002:000047ac       ??_R3IComponent@Logic@@8   0042d7ac     Logic:ControllerComponent.obj
 0002:000047bc       ??_R1A@?0A@EA@CMessageManager@Logic@@8 0042d7bc     Logic:ControllerComponent.obj
 0002:000047d8       ??_R1A@?0A@EA@IComponent@Logic@@8 0042d7d8     Logic:ControllerComponent.obj
 0002:000047f4       ??_R3CMessageManager@Logic@@8 0042d7f4     Logic:ControllerComponent.obj
 0002:00004804       ??_R4CMessageManager@Logic@@6B@ 0042d804     Logic:ControllerComponent.obj
 0002:00004818       ??_R4CControllerComponent@Logic@@6B@ 0042d818     Logic:ControllerComponent.obj
 0002:0000482c       ??_R2CMessageManager@Logic@@8 0042d82c     Logic:ControllerComponent.obj
 0002:00004834       ??_R3CControllerComponent@Logic@@8 0042d834     Logic:ControllerComponent.obj
 0002:00004844       ??_R1A@?0A@EA@CGraphics@Logic@@8 0042d844     Logic:Graphics.obj
 0002:00004860       ??_R4CGraphics@Logic@@6B@  0042d860     Logic:Graphics.obj
 0002:00004874       ??_R3CGraphics@Logic@@8    0042d874     Logic:Graphics.obj
 0002:00004884       ??_R2CGraphics@Logic@@8    0042d884     Logic:Graphics.obj
 0002:00004894       ??_R2CTransform@Logic@@8   0042d894     Logic:Transform.obj
 0002:000048a4       ??_R3CTransform@Logic@@8   0042d8a4     Logic:Transform.obj
 0002:000048b4       ??_R4CTransform@Logic@@6B@ 0042d8b4     Logic:Transform.obj
 0002:000048c8       ??_R1A@?0A@EA@CTransform@Logic@@8 0042d8c8     Logic:Transform.obj
 0002:000048e4       ??_R4CCameraComponent@Logic@@6B@ 0042d8e4     Logic:CameraComponent.obj
 0002:000048f8       ??_R1A@?0A@EA@CCameraComponent@Logic@@8 0042d8f8     Logic:CameraComponent.obj
 0002:00004914       ??_R3CCameraComponent@Logic@@8 0042d914     Logic:CameraComponent.obj
 0002:00004924       ??_R2CCameraComponent@Logic@@8 0042d924     Logic:CameraComponent.obj
 0002:00004934       ??_R4CComponentFactory@Logic@@6B@ 0042d934     Logic:ComponentFactory.obj
 0002:00004948       ??_R4?$CFactory@PAVIComponent@Logic@@@Logic@@6B@ 0042d948     Logic:ComponentFactory.obj
 0002:0000495c       ??_R1A@?0A@EA@CComponentFactory@Logic@@8 0042d95c     Logic:ComponentFactory.obj
 0002:00004978       ??_R1A@?0A@EA@?$CFactory@PAVIComponent@Logic@@@Logic@@8 0042d978     Logic:ComponentFactory.obj
 0002:00004994       ??_R2?$CFactory@PAVIComponent@Logic@@@Logic@@8 0042d994     Logic:ComponentFactory.obj
 0002:0000499c       ??_R3?$CFactory@PAVIComponent@Logic@@@Logic@@8 0042d99c     Logic:ComponentFactory.obj
 0002:000049ac       ??_R2CComponentFactory@Logic@@8 0042d9ac     Logic:ComponentFactory.obj
 0002:000049b8       ??_R3CComponentFactory@Logic@@8 0042d9b8     Logic:ComponentFactory.obj
 0002:000049c8       ??_R3CMap@Map@@8           0042d9c8     Map:Map.obj
 0002:000049d8       ??_R4CMap@Map@@6B@         0042d9d8     Map:Map.obj
 0002:000049ec       ??_R1A@?0A@EA@CMap@Map@@8  0042d9ec     Map:Map.obj
 0002:00004a08       ??_R2CMap@Map@@8           0042da08     Map:Map.obj
 0002:00004a10       ??_R2facet@locale@std@@8   0042da10     Map:MapGenerator.obj
 0002:00004a1c       ??_R2?$numpunct@D@std@@8   0042da1c     Map:MapGenerator.obj
 0002:00004a2c       ??_R4?$numpunct@D@std@@6B@ 0042da2c     Map:MapGenerator.obj
 0002:00004a40       ??_R2_Facet_base@std@@8    0042da40     Map:MapGenerator.obj
 0002:00004a48       ??_R3?$num_put@DV?$back_insert_iterator@V?$basic_string@DU?$char_traits@D@std@@V?$allocator@D@2@@std@@@std@@@std@@8 0042da48     Map:MapGenerator.obj
 0002:00004a58       ??_R4?$num_put@DV?$back_insert_iterator@V?$basic_string@DU?$char_traits@D@std@@V?$allocator@D@2@@std@@@std@@@std@@6B@ 0042da58     Map:MapGenerator.obj
 0002:00004a6c       ??_R3facet@locale@std@@8   0042da6c     Map:MapGenerator.obj
 0002:00004a7c       ??_R3_Facet_base@std@@8    0042da7c     Map:MapGenerator.obj
 0002:00004a8c       ??_R1A@?0A@EA@?$num_put@DV?$back_insert_iterator@V?$basic_string@DU?$char_traits@D@std@@V?$allocator@D@2@@std@@@std@@@std@@8 0042da8c     Map:MapGenerator.obj
 0002:00004aa8       ??_R2?$num_put@DV?$back_insert_iterator@V?$basic_string@DU?$char_traits@D@std@@V?$allocator@D@2@@std@@@std@@@std@@8 0042daa8     Map:MapGenerator.obj
 0002:00004ab8       ??_R1A@?0A@EA@facet@locale@std@@8 0042dab8     Map:MapGenerator.obj
 0002:00004ad4       ??_R1A@?0A@EA@_Facet_base@std@@8 0042dad4     Map:MapGenerator.obj
 0002:00004af0       ??_R1A@?0A@EA@?$numpunct@D@std@@8 0042daf0     Map:MapGenerator.obj
 0002:00004b0c       ??_R3?$numpunct@D@std@@8   0042db0c     Map:MapGenerator.obj
 0002:00004b1c       ??_R3CParser@Map@@8        0042db1c     Map:Parser.obj
 0002:00004b2c       ??_R2CParser@Map@@8        0042db2c     Map:Parser.obj
 0002:00004b34       ??_R4CParser@Map@@6B@      0042db34     Map:Parser.obj
 0002:00004b48       ??_R1A@?0A@EA@CParser@Map@@8 0042db48     Map:Parser.obj
 0002:00004b64       ??_R2CScanner@Map@@8       0042db64     Map:Scanner.obj
 0002:00004b74       ??_R3CMapFlexLexer@@8      0042db74     Map:Scanner.obj
 0002:00004b84       ??_R2FlexLexer@@8          0042db84     Map:Scanner.obj
 0002:00004b8c       ??_R4CMapFlexLexer@@6B@    0042db8c     Map:Scanner.obj
 0002:00004ba0       ??_R3FlexLexer@@8          0042dba0     Map:Scanner.obj
 0002:00004bb0       ??_R1A@?0A@EA@FlexLexer@@8 0042dbb0     Map:Scanner.obj
 0002:00004bcc       ??_R2CMapFlexLexer@@8      0042dbcc     Map:Scanner.obj
 0002:00004bd8       ??_R1A@?0A@EA@CScanner@Map@@8 0042dbd8     Map:Scanner.obj
 0002:00004bf4       ??_R3CScanner@Map@@8       0042dbf4     Map:Scanner.obj
 0002:00004c04       ??_R4FlexLexer@@6B@        0042dc04     Map:Scanner.obj
 0002:00004c18       ??_R1A@?0A@EA@CMapFlexLexer@@8 0042dc18     Map:Scanner.obj
 0002:00004c34       ??_R4CScanner@Map@@6B@     0042dc34     Map:Scanner.obj
 0002:00004c48       ___rtc_iaa                 0042dc48     MSVCRT:initsect.obj
 0002:00004c4c       ___rtc_izz                 0042dc4c     MSVCRT:initsect.obj
 0002:00004c50       ___rtc_taa                 0042dc50     MSVCRT:initsect.obj
 0002:00004c54       ___rtc_tzz                 0042dc54     MSVCRT:initsect.obj
 0002:00004f40       __CT??_R0?AVexception@boost@@@8??0exception@boost@@QAE@ABV01@@Z20 0042df40     libboost_thread-vc110-mt-1_55:thread.obj
 0002:00004f5c       __CT??_R0?AVexception@std@@@8??0exception@std@@QAE@ABV01@@Z1220 0042df5c     libboost_thread-vc110-mt-1_55:thread.obj
 0002:00004f78       __TI6?AV?$clone_impl@Ubad_alloc_@exception_detail@boost@@@exception_detail@boost@@ 0042df78     libboost_thread-vc110-mt-1_55:thread.obj
 0002:00004f88       __CTA6?AV?$clone_impl@Ubad_alloc_@exception_detail@boost@@@exception_detail@boost@@ 0042df88     libboost_thread-vc110-mt-1_55:thread.obj
 0002:00004fa4       __CT??_R0?AV?$clone_impl@Ubad_alloc_@exception_detail@boost@@@exception_detail@boost@@@8??0?$clone_impl@Ubad_alloc_@exception_detail@boost@@@exception_detail@boost@@QAE@ABV012@@Z44 0042dfa4     libboost_thread-vc110-mt-1_55:thread.obj
 0002:00004fc0       __CT??_R0?AUbad_alloc_@exception_detail@boost@@@8??0bad_alloc_@exception_detail@boost@@QAE@ABU012@@Z32 0042dfc0     libboost_thread-vc110-mt-1_55:thread.obj
 0002:00004fdc       __CT??_R0?AVbad_alloc@std@@@8??0bad_alloc@std@@QAE@ABV01@@Z1220 0042dfdc     libboost_thread-vc110-mt-1_55:thread.obj
 0002:00004ff8       __TI6?AV?$clone_impl@Ubad_exception_@exception_detail@boost@@@exception_detail@boost@@ 0042dff8     libboost_thread-vc110-mt-1_55:thread.obj
 0002:00005008       __CTA6?AV?$clone_impl@Ubad_exception_@exception_detail@boost@@@exception_detail@boost@@ 0042e008     libboost_thread-vc110-mt-1_55:thread.obj
 0002:00005024       __CT??_R0?AV?$clone_impl@Ubad_exception_@exception_detail@boost@@@exception_detail@boost@@@8??0?$clone_impl@Ubad_exception_@exception_detail@boost@@@exception_detail@boost@@QAE@ABV012@@Z44 0042e024     libboost_thread-vc110-mt-1_55:thread.obj
 0002:00005040       __CT??_R0?AUbad_exception_@exception_detail@boost@@@8??0bad_exception_@exception_detail@boost@@QAE@ABU012@@Z32 0042e040     libboost_thread-vc110-mt-1_55:thread.obj
 0002:0000505c       __CT??_R0?AVbad_exception@std@@@8??0bad_exception@std@@QAE@ABV01@@Z1220 0042e05c     libboost_thread-vc110-mt-1_55:thread.obj
 0002:000052a0       __TI2?AVbad_cast@std@@     0042e2a0     Configure.obj
 0002:000052b0       __CT??_R0?AVexception@std@@@8??0exception@std@@QAE@ABV01@@Z12 0042e2b0     Configure.obj
 0002:000052cc       __CT??_R0?AVbad_cast@std@@@8??0bad_cast@std@@QAE@ABV01@@Z12 0042e2cc     Configure.obj
 0002:000052e8       __CTA2?AVbad_cast@std@@    0042e2e8     Configure.obj
 0002:000052f4       __CT??_R0?AVclone_base@exception_detail@boost@@@8??0clone_base@exception_detail@boost@@QAE@ABV012@@Z40324 0042e2f4     log.obj
 0002:00005310       __CT??_R0?AVparse_error@rapidxml@@@8??0parse_error@rapidxml@@QAE@ABV01@@Z20 0042e310     XmlParser.obj
 0002:0000532c       __TI2?AVparse_error@rapidxml@@ 0042e32c     XmlParser.obj
 0002:0000533c       __CTA2?AVparse_error@rapidxml@@ 0042e33c     XmlParser.obj
 0002:00005348       __CT??_R0PAVexception@std@@@84 0042e348     Logic:EntityFactory.obj
 0002:00005364       __TI2PAVexception@std@@    0042e364     Logic:EntityFactory.obj
 0002:00005374       __CTA2PAVexception@std@@   0042e374     Logic:EntityFactory.obj
 0002:00005380       __CT??_R0PAX@84            0042e380     Logic:EntityFactory.obj
 0002:00007a48       __IMPORT_DESCRIPTOR_OgreMain 00430a48     OgreMain:OgreMain.dll
 0002:00007a5c       __IMPORT_DESCRIPTOR_OIS    00430a5c     OIS:OIS.dll
 0002:00007a70       __IMPORT_DESCRIPTOR_CEGUIBase-0 00430a70     CEGUIBase-0:CEGUIBase-0.dll
 0002:00007a84       __IMPORT_DESCRIPTOR_CEGUIOgreRenderer-0 00430a84     CEGUIOgreRenderer-0:CEGUIOgreRenderer-0.dll
 0002:00007a98       __IMPORT_DESCRIPTOR_KERNEL32 00430a98     kernel32:KERNEL32.dll
 0002:00007aac       __IMPORT_DESCRIPTOR_MSVCP110 00430aac     msvcprt:MSVCP110.dll
 0002:00007ac0       __IMPORT_DESCRIPTOR_MSVCR110 00430ac0     MSVCRT:MSVCR110.dll
 0002:00007ad4       __NULL_IMPORT_DESCRIPTOR   00430ad4     OgreMain:OgreMain.dll
 0003:00000000       ?current_thread_tls_key@?A0xc3b1390f@boost@@3KA 00435000     libboost_thread-vc110-mt-1_55:thread.obj
 0003:00000004       ??_R0?AVbad_exception@std@@@8 00435004     libboost_thread-vc110-mt-1_55:thread.obj
 0003:00000028       ??_R0?AV?$clone_impl@Ubad_alloc_@exception_detail@boost@@@exception_detail@boost@@@8 00435028     libboost_thread-vc110-mt-1_55:thread.obj
 0003:00000080       ??_R0?AUbad_alloc_@exception_detail@boost@@@8 00435080     libboost_thread-vc110-mt-1_55:thread.obj
 0003:000000b0       ??_R0?AV?$clone_impl@Ubad_exception_@exception_detail@boost@@@exception_detail@boost@@@8 004350b0     libboost_thread-vc110-mt-1_55:thread.obj
 0003:0000010c       ??_R0?AUbad_exception_@exception_detail@boost@@@8 0043510c     libboost_thread-vc110-mt-1_55:thread.obj
 0003:00000140       ??_R0?AV?$sp_counted_impl_p@V?$clone_impl@Ubad_alloc_@exception_detail@boost@@@exception_detail@boost@@@detail@boost@@@8 00435140     libboost_thread-vc110-mt-1_55:thread.obj
 0003:000001c0       ??_R0?AV?$sp_counted_impl_p@V?$clone_impl@Ubad_exception_@exception_detail@boost@@@exception_detail@boost@@@detail@boost@@@8 004351c0     libboost_thread-vc110-mt-1_55:thread.obj
 0003:00000240       ??_R0?AVerror_category@system@boost@@@8 00435240     libboost_system-vc110-mt-1_55:error_code.obj
 0003:0000026c       ??_R0?AVnoncopyable@noncopyable_@boost@@@8 0043526c     libboost_system-vc110-mt-1_55:error_code.obj
 0003:0000029c       ??_R0?AVgeneric_error_category@?A0xeba5f5ee@system@boost@@@8 0043529c     libboost_system-vc110-mt-1_55:error_code.obj
 0003:000002dc       ??_R0?AVsystem_error_category@?A0xeba5f5ee@system@boost@@@8 004352dc     libboost_system-vc110-mt-1_55:error_code.obj
 0003:0000031c       ??_R0?AVtype_info@@@8      0043531c     MSVCRT:ti_inst.obj
 0003:00000340       ___security_cookie         00435340     MSVCRT:gs_cookie.obj
 0003:00000344       ___security_cookie_complement 00435344     MSVCRT:gs_cookie.obj
 0003:00000350       ___defaultmatherr          00435350     MSVCRT:merr.obj
 0003:00000354       ___globallocalestatus      00435354     MSVCRT:xthdloc.obj
 0003:00000358       ___native_dllmain_reason   00435358     MSVCRT:natstart.obj
 0003:0000035c       ?severity@?A0xdff53795@keywords@v2s_mt_nt5@log@boost@@3ABU?$keyword@Useverity@tag@keywords@v2s_mt_nt5@log@boost@@@parameter@5@B 0043535c     libboost_log-vc110-mt-1_55:core.obj
 0003:00000360       ?severity@?A0x67147c99@keywords@v2s_mt_nt5@log@boost@@3ABU?$keyword@Useverity@tag@keywords@v2s_mt_nt5@log@boost@@@parameter@5@B 00435360     libboost_log-vc110-mt-1_55:severity_level.obj
 0003:00000364       ?severity@?A0xe44475ab@keywords@v2s_mt_nt5@log@boost@@3ABU?$keyword@Useverity@tag@keywords@v2s_mt_nt5@log@boost@@@parameter@5@B 00435364     libboost_log-vc110-mt-1_55:trivial.obj
 0003:00000368       ?max_size@?A0x22954b77@keywords@v2s_mt_nt5@log@boost@@3ABU?$keyword@Umax_size@tag@keywords@v2s_mt_nt5@log@boost@@@parameter@5@B 00435368     libboost_log-vc110-mt-1_55:text_file_backend.obj
 0003:0000036c       ?min_free_space@?A0x22954b77@keywords@v2s_mt_nt5@log@boost@@3ABU?$keyword@Umin_free_space@tag@keywords@v2s_mt_nt5@log@boost@@@parameter@5@B 0043536c     libboost_log-vc110-mt-1_55:text_file_backend.obj
 0003:00000370       ?target@?A0x22954b77@keywords@v2s_mt_nt5@log@boost@@3ABU?$keyword@Utarget@tag@keywords@v2s_mt_nt5@log@boost@@@parameter@5@B 00435370     libboost_log-vc110-mt-1_55:text_file_backend.obj
 0003:00000374       ?file_name@?A0x22954b77@keywords@v2s_mt_nt5@log@boost@@3ABU?$keyword@Ufile_name@tag@keywords@v2s_mt_nt5@log@boost@@@parameter@5@B 00435374     libboost_log-vc110-mt-1_55:text_file_backend.obj
 0003:00000378       ?open_mode@?A0x22954b77@keywords@v2s_mt_nt5@log@boost@@3ABU?$keyword@Uopen_mode@tag@keywords@v2s_mt_nt5@log@boost@@@parameter@5@B 00435378     libboost_log-vc110-mt-1_55:text_file_backend.obj
 0003:0000037c       ?auto_flush@?A0x22954b77@keywords@v2s_mt_nt5@log@boost@@3ABU?$keyword@Uauto_flush@tag@keywords@v2s_mt_nt5@log@boost@@@parameter@5@B 0043537c     libboost_log-vc110-mt-1_55:text_file_backend.obj
 0003:00000380       ?rotation_size@?A0x22954b77@keywords@v2s_mt_nt5@log@boost@@3ABU?$keyword@Urotation_size@tag@keywords@v2s_mt_nt5@log@boost@@@parameter@5@B 00435380     libboost_log-vc110-mt-1_55:text_file_backend.obj
 0003:00000384       ?time_based_rotation@?A0x22954b77@keywords@v2s_mt_nt5@log@boost@@3ABU?$keyword@Utime_based_rotation@tag@keywords@v2s_mt_nt5@log@boost@@@parameter@5@B 00435384     libboost_log-vc110-mt-1_55:text_file_backend.obj
 0003:00000388       ?severity@?A0x46099ac8@keywords@v2s_mt_nt5@log@boost@@3ABU?$keyword@Useverity@tag@keywords@v2s_mt_nt5@log@boost@@@parameter@5@B 00435388     libboost_log-vc110-mt-1_55:default_sink.obj
 0003:0000038c       ?separator_string@?A0x1d9fab1c@@3PB_WB 0043538c     libboost_filesystem-vc110-mt-1_55:path.obj
 0003:00000390       ?preferred_separator_string@?A0x1d9fab1c@@3PB_WB 00435390     libboost_filesystem-vc110-mt-1_55:path.obj
 0003:00000400       ??_R0?AVC3DApplication@Application@@@8 00435400     3DApplication.obj
 0003:0000042c       ??_R0?AVexception@std@@@8  0043542c     3DApplication.obj
 0003:00000448       ??_R0?AVios_base@std@@@8   00435448     3DApplication.obj
 0003:00000464       ??_R0?AV_Iostream_error_category@std@@@8 00435464     3DApplication.obj
 0003:00000490       ??_R0?AV_System_error_category@std@@@8 00435490     3DApplication.obj
 0003:000004bc       ??_R0?AV?$basic_ios@DU?$char_traits@D@std@@@std@@@8 004354bc     3DApplication.obj
 0003:000004f4       ??_R0?AVWindowEventListener@Ogre@@@8 004354f4     3DApplication.obj
 0003:0000051c       ??_R0?AVCWindowEventListener@Application@@@8 0043551c     3DApplication.obj
 0003:00000550       ??_R0?AV?$basic_stringbuf@DU?$char_traits@D@std@@V?$allocator@D@2@@std@@@8 00435550     3DApplication.obj
 0003:000005a0       ??_R0?AV?$_Iosb@H@std@@@8  004355a0     3DApplication.obj
 0003:000005bc       ??_R0?AVerror_category@std@@@8 004355bc     3DApplication.obj
 0003:000005e0       ??_R0?AVException@Ogre@@@8 004355e0     3DApplication.obj
 0003:00000600       ??_R0?AV_Generic_error_category@std@@@8 00435600     3DApplication.obj
 0003:0000062c       ??_R0?AVCkeyBoardListener@InputListener@GUI@@@8 0043562c     3DApplication.obj
 0003:00000660       ??_R0?AVCBaseApplication@Application@@@8 00435660     3DApplication.obj
 0003:0000068c       ??_R0?AV?$basic_ostream@DU?$char_traits@D@std@@@std@@@8 0043568c     3DApplication.obj
 0003:000006c8       ??_R0?AV?$basic_streambuf@DU?$char_traits@D@std@@@std@@@8 004356c8     3DApplication.obj
 0003:00000704       ??_R0?AVCMouseListener@InputListener@GUI@@@8 00435704     3DApplication.obj
 0003:00000738       ??_R0?AV?$basic_ostringstream@DU?$char_traits@D@std@@V?$allocator@D@2@@std@@@8 00435738     3DApplication.obj
 0003:0000078c       ??_R0?AVSlotFunctorBase@CEGUI@@@8 0043578c     EventState.obj
 0003:000007b0       ??_R0?AVCApplicationState@Application@@@8 004357b0     EventState.obj
 0003:000007e0       ??_R0?AV?$MemberFunctionSlot@VCEventState@Application@@@CEGUI@@@8 004357e0     EventState.obj
 0003:00000824       ??_R0?AVCEventState@Application@@@8 00435824     EventState.obj
 0003:00000850       ??_R0?AV?$MemberFunctionSlot@VCMenuState@Application@@@CEGUI@@@8 00435850     MenuState.obj
 0003:00000894       ??_R0?AVCMenuState@Application@@@8 00435894     MenuState.obj
 0003:000008c0       ??_R0?AV?$MemberFunctionSlot@VCPauseState@Application@@@CEGUI@@@8 004358c0     PauseState.obj
 0003:00000904       ??_R0?AVCPauseState@Application@@@8 00435904     PauseState.obj
 0003:0000092c       ??_R0?AVruntime_error@std@@@8 0043592c     TTG.obj
 0003:0000094c       ??_R0?AVCTTGApplication@Application@@@8 0043594c     TTGApplication.obj
 0003:00000978       ??_R0?AVCExitState@Application@@@8 00435978     TTGApplication.obj
 0003:000009a0       ??_R0?AVCPlanetState@Application@@@8 004359a0     TTGApplication.obj
 0003:000009c8       ??_R0?AVCSystemState@Application@@@8 004359c8     TTGApplication.obj
 0003:000009f0       ??_R0?AVCGalaxyState@Application@@@8 004359f0     TTGApplication.obj
 0003:00000a18       ??_R0?AVbad_cast@std@@@8   00435a18     Configure.obj
 0003:00000a34       ??_R0?AV?$basic_istream@DU?$char_traits@D@std@@@std@@@8 00435a34     Configure.obj
 0003:00000a70       ??_R0?AV?$basic_filebuf@DU?$char_traits@D@std@@@std@@@8 00435a70     Configure.obj
 0003:00000aac       ??_R0?AV?$basic_ifstream@DU?$char_traits@D@std@@@std@@@8 00435aac     Configure.obj
 0003:00000ae8       ??_R0?AVsp_counted_base@detail@boost@@@8 00435ae8     log.obj
 0003:00000b14       ??_R0?AVexception@boost@@@8 00435b14     log.obj
 0003:00000b34       ??_R0?AVclone_base@exception_detail@boost@@@8 00435b34     log.obj
 0003:00000b64       ??_R0?AVbad_alloc@std@@@8  00435b64     log.obj
 0003:00000b80       ??_R0?AVparse_error@rapidxml@@@8 00435b80     XmlParser.obj
 0003:00000ba4       ??_R0?AVCInputManager@GUI@@@8 00435ba4     GUI:InputManager.obj
 0003:00000bc4       ??_R0?AVKeyListener@OIS@@@8 00435bc4     GUI:InputManager.obj
 0003:00000be4       ??_R0?AVMouseListener@OIS@@@8 00435be4     GUI:InputManager.obj
 0003:00000c04       ??_R0?AVCGUI@GUI@@@8       00435c04     GUI:GUI.obj
 0003:00000c1c       ??_R0?AVCPlayerController@Controller@GUI@@@8 00435c1c     GUI:PlayerController.obj
 0003:00000c4c       ??_R0PAVexception@std@@@8  00435c4c     Logic:EntityFactory.obj
 0003:00000c68       ??_R0?AV?$basic_istringstream@DU?$char_traits@D@std@@V?$allocator@D@2@@std@@@8 00435c68     Logic:EntityFactory.obj
 0003:00000cbc       ??_R0PAX@8                 00435cbc     Logic:EntityFactory.obj
 0003:00000ccc       ??_R0?AVCMessageManager@Logic@@@8 00435ccc     Logic:ControllerComponent.obj
 0003:00000cf0       ??_R0?AVCControllerComponent@Logic@@@8 00435cf0     Logic:ControllerComponent.obj
 0003:00000d1c       ??_R0?AVIComponent@Logic@@@8 00435d1c     Logic:ControllerComponent.obj
 0003:00000d3c       ??_R0?AVCGraphics@Logic@@@8 00435d3c     Logic:Graphics.obj
 0003:00000d5c       ??_R0?AVCTransform@Logic@@@8 00435d5c     Logic:Transform.obj
 0003:00000d7c       ??_R0?AVCCameraComponent@Logic@@@8 00435d7c     Logic:CameraComponent.obj
 0003:00000da4       ??_R0?AV?$CFactory@PAVIComponent@Logic@@@Logic@@@8 00435da4     Logic:ComponentFactory.obj
 0003:00000ddc       ??_R0?AVCComponentFactory@Logic@@@8 00435ddc     Logic:ComponentFactory.obj
 0003:00000e04       ??_R0?AVCMap@Map@@@8       00435e04     Map:Map.obj
 0003:00000e1c       ??_R0?AV?$numpunct@D@std@@@8 00435e1c     Map:MapGenerator.obj
 0003:00000e40       ??_R0?AV?$num_put@DV?$back_insert_iterator@V?$basic_string@DU?$char_traits@D@std@@V?$allocator@D@2@@std@@@std@@@std@@@8 00435e40     Map:MapGenerator.obj
 0003:00000ebc       ??_R0?AV_Facet_base@std@@@8 00435ebc     Map:MapGenerator.obj
 0003:00000edc       ??_R0?AVfacet@locale@std@@@8 00435edc     Map:MapGenerator.obj
 0003:00000efc       ??_R0?AVCParser@Map@@@8    00435efc     Map:Parser.obj
 0003:00000f18       ??_R0?AVCScanner@Map@@@8   00435f18     Map:Scanner.obj
 0003:00000f34       ??_R0?AVCMapFlexLexer@@@8  00435f34     Map:Scanner.obj
 0003:00000f50       ??_R0?AVFlexLexer@@@8      00435f50     Map:Scanner.obj
 0003:00000f68       ?_System_object@?$_Error_objects@H@std@@2V_System_error_category@2@A 00435f68     3DApplication.obj
 0003:00000f6c       ?_Generic_object@?$_Error_objects@H@std@@2V_Generic_error_category@2@A 00435f6c     3DApplication.obj
 0003:00000f70       ?_Iostream_object@?$_Error_objects@H@std@@2V_Iostream_error_category@2@A 00435f70     3DApplication.obj
 0003:00000f74       ?min_free_space@?A0x92b46bcf@keywords@v2s_mt_nt5@log@boost@@3ABU?$keyword@Umin_free_space@tag@keywords@v2s_mt_nt5@log@boost@@@parameter@5@B 00435f74     TTG.obj
 0003:00000f78       ?iteration@?A0x92b46bcf@keywords@v2s_mt_nt5@log@boost@@3ABU?$keyword@Uiteration@tag@keywords@v2s_mt_nt5@log@boost@@@parameter@5@B 00435f78     TTG.obj
 0003:00000f7c       ?target@?A0x92b46bcf@keywords@v2s_mt_nt5@log@boost@@3ABU?$keyword@Utarget@tag@keywords@v2s_mt_nt5@log@boost@@@parameter@5@B 00435f7c     TTG.obj
 0003:00000f80       ?time_based_rotation@?A0x92b46bcf@keywords@v2s_mt_nt5@log@boost@@3ABU?$keyword@Utime_based_rotation@tag@keywords@v2s_mt_nt5@log@boost@@@parameter@5@B 00435f80     TTG.obj
 0003:00000f84       ?severity@?A0x92b46bcf@keywords@v2s_mt_nt5@log@boost@@3ABU?$keyword@Useverity@tag@keywords@v2s_mt_nt5@log@boost@@@parameter@5@B 00435f84     TTG.obj
 0003:00000f88       ?filter@?A0x92b46bcf@keywords@v2s_mt_nt5@log@boost@@3ABU?$keyword@Ufilter@tag@keywords@v2s_mt_nt5@log@boost@@@parameter@5@B 00435f88     TTG.obj
 0003:00000f8c       ?delimiter@?A0x92b46bcf@keywords@v2s_mt_nt5@log@boost@@3ABU?$keyword@Udelimiter@tag@keywords@v2s_mt_nt5@log@boost@@@parameter@5@B 00435f8c     TTG.obj
 0003:00000f90       ?open_mode@?A0x92b46bcf@keywords@v2s_mt_nt5@log@boost@@3ABU?$keyword@Uopen_mode@tag@keywords@v2s_mt_nt5@log@boost@@@parameter@5@B 00435f90     TTG.obj
 0003:00000f94       ?max_size@?A0x92b46bcf@keywords@v2s_mt_nt5@log@boost@@3ABU?$keyword@Umax_size@tag@keywords@v2s_mt_nt5@log@boost@@@parameter@5@B 00435f94     TTG.obj
 0003:00000f98       ?file_name@?A0x92b46bcf@keywords@v2s_mt_nt5@log@boost@@3ABU?$keyword@Ufile_name@tag@keywords@v2s_mt_nt5@log@boost@@@parameter@5@B 00435f98     TTG.obj
 0003:00000f9c       ?rotation_size@?A0x92b46bcf@keywords@v2s_mt_nt5@log@boost@@3ABU?$keyword@Urotation_size@tag@keywords@v2s_mt_nt5@log@boost@@@parameter@5@B 00435f9c     TTG.obj
 0003:00000fa0       ?scan_method@?A0x92b46bcf@keywords@v2s_mt_nt5@log@boost@@3ABU?$keyword@Uscan_method@tag@keywords@v2s_mt_nt5@log@boost@@@parameter@5@B 00435fa0     TTG.obj
 0003:00000fa4       ?depth@?A0x92b46bcf@keywords@v2s_mt_nt5@log@boost@@3ABU?$keyword@Udepth@tag@keywords@v2s_mt_nt5@log@boost@@@parameter@5@B 00435fa4     TTG.obj
 0003:00000fa8       ?auto_flush@?A0x92b46bcf@keywords@v2s_mt_nt5@log@boost@@3ABU?$keyword@Uauto_flush@tag@keywords@v2s_mt_nt5@log@boost@@@parameter@5@B 00435fa8     TTG.obj
 0003:00000fac       ?format@?A0x92b46bcf@keywords@v2s_mt_nt5@log@boost@@3ABU?$keyword@Uformat@tag@keywords@v2s_mt_nt5@log@boost@@@parameter@5@B 00435fac     TTG.obj
 0003:00000fc8       ?min_free_space@?A0xac1afb37@keywords@v2s_mt_nt5@log@boost@@3ABU?$keyword@Umin_free_space@tag@keywords@v2s_mt_nt5@log@boost@@@parameter@5@B 00435fc8     log.obj
 0003:00000fcc       ?iteration@?A0xac1afb37@keywords@v2s_mt_nt5@log@boost@@3ABU?$keyword@Uiteration@tag@keywords@v2s_mt_nt5@log@boost@@@parameter@5@B 00435fcc     log.obj
 0003:00000fd0       ?target@?A0xac1afb37@keywords@v2s_mt_nt5@log@boost@@3ABU?$keyword@Utarget@tag@keywords@v2s_mt_nt5@log@boost@@@parameter@5@B 00435fd0     log.obj
 0003:00000fd4       ?time_based_rotation@?A0xac1afb37@keywords@v2s_mt_nt5@log@boost@@3ABU?$keyword@Utime_based_rotation@tag@keywords@v2s_mt_nt5@log@boost@@@parameter@5@B 00435fd4     log.obj
 0003:00000fd8       ?severity@?A0xac1afb37@keywords@v2s_mt_nt5@log@boost@@3ABU?$keyword@Useverity@tag@keywords@v2s_mt_nt5@log@boost@@@parameter@5@B 00435fd8     log.obj
 0003:00000fdc       ?filter@?A0xac1afb37@keywords@v2s_mt_nt5@log@boost@@3ABU?$keyword@Ufilter@tag@keywords@v2s_mt_nt5@log@boost@@@parameter@5@B 00435fdc     log.obj
 0003:00000fe0       ?delimiter@?A0xac1afb37@keywords@v2s_mt_nt5@log@boost@@3ABU?$keyword@Udelimiter@tag@keywords@v2s_mt_nt5@log@boost@@@parameter@5@B 00435fe0     log.obj
 0003:00000fe4       ?open_mode@?A0xac1afb37@keywords@v2s_mt_nt5@log@boost@@3ABU?$keyword@Uopen_mode@tag@keywords@v2s_mt_nt5@log@boost@@@parameter@5@B 00435fe4     log.obj
 0003:00000fe8       ?max_size@?A0xac1afb37@keywords@v2s_mt_nt5@log@boost@@3ABU?$keyword@Umax_size@tag@keywords@v2s_mt_nt5@log@boost@@@parameter@5@B 00435fe8     log.obj
 0003:00000fec       ?file_name@?A0xac1afb37@keywords@v2s_mt_nt5@log@boost@@3ABU?$keyword@Ufile_name@tag@keywords@v2s_mt_nt5@log@boost@@@parameter@5@B 00435fec     log.obj
 0003:00000ff0       ?rotation_size@?A0xac1afb37@keywords@v2s_mt_nt5@log@boost@@3ABU?$keyword@Urotation_size@tag@keywords@v2s_mt_nt5@log@boost@@@parameter@5@B 00435ff0     log.obj
 0003:00000ff4       ?scan_method@?A0xac1afb37@keywords@v2s_mt_nt5@log@boost@@3ABU?$keyword@Uscan_method@tag@keywords@v2s_mt_nt5@log@boost@@@parameter@5@B 00435ff4     log.obj
 0003:00000ff8       ?depth@?A0xac1afb37@keywords@v2s_mt_nt5@log@boost@@3ABU?$keyword@Udepth@tag@keywords@v2s_mt_nt5@log@boost@@@parameter@5@B 00435ff8     log.obj
 0003:00000ffc       ?auto_flush@?A0xac1afb37@keywords@v2s_mt_nt5@log@boost@@3ABU?$keyword@Uauto_flush@tag@keywords@v2s_mt_nt5@log@boost@@@parameter@5@B 00435ffc     log.obj
 0003:00001000       ?format@?A0xac1afb37@keywords@v2s_mt_nt5@log@boost@@3ABU?$keyword@Uformat@tag@keywords@v2s_mt_nt5@log@boost@@@parameter@5@B 00436000     log.obj
 0003:00001018       ?current_thread_tls_init_flag@?A0xc3b1390f@boost@@3Uonce_flag@2@A 00436018     libboost_thread-vc110-mt-1_55:thread.obj
 0003:00001030       ?e@?$exception_ptr_static_exception_object@Ubad_alloc_@exception_detail@boost@@@exception_detail@boost@@2Vexception_ptr@3@B 00436030     libboost_thread-vc110-mt-1_55:thread.obj
 0003:00001038       ?e@?$exception_ptr_static_exception_object@Ubad_exception_@exception_detail@boost@@@exception_detail@boost@@2Vexception_ptr@3@B 00436038     libboost_thread-vc110-mt-1_55:thread.obj
 0003:00001040       ?ep@?1???$get_static_exception_object@Ubad_alloc_@exception_detail@boost@@@exception_detail@boost@@YA?AVexception_ptr@2@XZ@4V32@A 00436040     libboost_thread-vc110-mt-1_55:thread.obj
 0003:00001048       ??_B?1???$get_static_exception_object@Ubad_alloc_@exception_detail@boost@@@exception_detail@boost@@YA?AVexception_ptr@1@XZ@51 00436048     libboost_thread-vc110-mt-1_55:thread.obj
 0003:0000104c       ?ep@?1???$get_static_exception_object@Ubad_exception_@exception_detail@boost@@@exception_detail@boost@@YA?AVexception_ptr@2@XZ@4V32@A 0043604c     libboost_thread-vc110-mt-1_55:thread.obj
 0003:00001054       ??_B?1???$get_static_exception_object@Ubad_exception_@exception_detail@boost@@@exception_detail@boost@@YA?AVexception_ptr@1@XZ@51 00436054     libboost_thread-vc110-mt-1_55:thread.obj
 0003:00001064       ?throws@system@boost@@3Verror_code@12@A 00436064     libboost_system-vc110-mt-1_55:error_code.obj
 0003:000010c0       __tls_index                004360c0     MSVCRT:tlssup.obj
 0003:000013e8       __commode                  004363e8     MSVCRT:xncommod.obj
 0003:000013ec       __dowildcard               004363ec     MSVCRT:wildcard.obj
 0003:000013f0       __newmode                  004363f0     MSVCRT:_newmode.obj
 0003:000013f4       __fmode                    004363f4     MSVCRT:xtxtmode.obj
 0003:00001404       ?g_pInitializeLWRWMutex@?A0x13d701bc@aux@v2s_mt_nt5@log@boost@@3P6GXPAUmutex_impl@12345@@ZA 00436404     libboost_log-vc110-mt-1_55:light_rw_mutex.obj
 0003:00001408       ?g_pDestroyLWRWMutex@?A0x13d701bc@aux@v2s_mt_nt5@log@boost@@3P6GXPAUmutex_impl@12345@@ZA 00436408     libboost_log-vc110-mt-1_55:light_rw_mutex.obj
 0003:0000140c       ?g_pLockExclusiveLWRWMutex@?A0x13d701bc@aux@v2s_mt_nt5@log@boost@@3P6GXPAUmutex_impl@12345@@ZA 0043640c     libboost_log-vc110-mt-1_55:light_rw_mutex.obj
 0003:00001410       ?g_pLockSharedLWRWMutex@?A0x13d701bc@aux@v2s_mt_nt5@log@boost@@3P6GXPAUmutex_impl@12345@@ZA 00436410     libboost_log-vc110-mt-1_55:light_rw_mutex.obj
 0003:00001414       ?g_pUnlockExclusiveLWRWMutex@?A0x13d701bc@aux@v2s_mt_nt5@log@boost@@3P6GXPAUmutex_impl@12345@@ZA 00436414     libboost_log-vc110-mt-1_55:light_rw_mutex.obj
 0003:00001418       ?g_pUnlockSharedLWRWMutex@?A0x13d701bc@aux@v2s_mt_nt5@log@boost@@3P6GXPAUmutex_impl@12345@@ZA 00436418     libboost_log-vc110-mt-1_55:light_rw_mutex.obj
 0003:00001428       ?g_pOnceBlockImpl@?A0x136c4513@aux@v2s_mt_nt5@log@boost@@3PAUonce_block_impl_base@12345@A 00436428     libboost_log-vc110-mt-1_55:once_block.obj
 0003:000014f4       ?id@?$time_facet@Vptime@posix_time@boost@@_WV?$ostreambuf_iterator@_WU?$char_traits@_W@std@@@std@@@date_time@boost@@2V0locale@std@@A 004364f4     libboost_log-vc110-mt-1_55:text_file_backend.obj
 0003:00001534       ?create_hard_link_api@?A0xb97e6650@@3P6GHPB_W0PAU_SECURITY_ATTRIBUTES@@@ZA 00436534     libboost_filesystem-vc110-mt-1_55:operations.obj
 0003:00001538       ?end_dir_itr@?A0xb97e6650@@3Vdirectory_iterator@filesystem@boost@@A 00436538     libboost_filesystem-vc110-mt-1_55:operations.obj
 0003:00001540       ?create_symbolic_link_api@?A0xb97e6650@@3P6GEPB_W0K@ZA 00436540     libboost_filesystem-vc110-mt-1_55:operations.obj
 0003:0000154c       ?__type_info_root_node@@3U__type_info_node@@A 0043654c     MSVCRT:tncleanup.obj
 0003:00001554       ?m_instance@CBaseApplication@Application@@0PAV12@A 00436554     BaseApplication.obj
 0003:00001558       ?m_instance@CInputManager@GUI@@0PAV12@A 00436558     GUI:InputManager.obj
 0003:0000155c       ?m_instance@CGUI@GUI@@0PAV12@A 0043655c     GUI:GUI.obj
 0003:00001560       ?m_instance@CLogic@Logic@@0PAV12@A 00436560     Logic:Logic.obj
 0003:00001564       ?m_nextId@CEntityFactory@Logic@@0IA 00436564     Logic:EntityFactory.obj
 0003:00001568       ?m_instance@CEntityFactory@Logic@@0PAV12@A 00436568     Logic:EntityFactory.obj
 0003:0000156c       ?m_instance@CComponentFactory@Logic@@0PAV12@A 0043656c     Logic:ComponentFactory.obj
 0003:00001570       ?m_instance@CMap@Map@@0PAV12@A 00436570     Map:Map.obj
 0003:000016bc       ?_Stinit@?1??_Init@?$basic_filebuf@DU?$char_traits@D@std@@@std@@IAEXPAU_iobuf@@W4_Initfl@23@@Z@4HA 004366bc     Configure.obj
 0003:000016c0       ?_Psave@?$_Facetptr@V?$codecvt@DDH@std@@@std@@2PBVfacet@locale@2@B 004366c0     Configure.obj
 0003:000016c4       ?zero@?1??nullstr@?$xml_base@D@rapidxml@@KAPADXZ@4DA 004366c4     XmlParser.obj
 0003:000016c8       ?_Psave@?$_Facetptr@V?$ctype@D@std@@@std@@2PBVfacet@locale@2@B 004366c8     Logic:EntityFactory.obj
 0003:000016cc       ?_Psave@?$_Facetptr@V?$num_put@DV?$back_insert_iterator@V?$basic_string@DU?$char_traits@D@std@@V?$allocator@D@2@@std@@@std@@@std@@@std@@2PBVfacet@locale@2@B 004366cc     Map:MapGenerator.obj
 0003:000016d0       ?_Psave@?$_Facetptr@V?$numpunct@D@std@@@std@@2PBVfacet@locale@2@B 004366d0     Map:MapGenerator.obj
 0003:000016d4       ?id@?$num_put@_WV?$back_insert_iterator@V?$basic_string@_WU?$char_traits@_W@std@@V?$allocator@_W@2@@std@@@std@@@std@@2V0locale@2@A 004366d4     3DApplication.obj
 0003:000016d8       ?id@?$num_put@DV?$back_insert_iterator@V?$basic_string@DU?$char_traits@D@std@@V?$allocator@D@2@@std@@@std@@@std@@2V0locale@2@A 004366d8     3DApplication.obj
 0003:000016dc       ___native_startup_lock     004366dc     <common>
 0003:000016e0       ___native_startup_state    004366e0     <common>
 0003:000016e4       ___dyn_tls_init_callback   004366e4     <common>
 0003:000016e8       ___onexitend               004366e8     <common>
 0003:000016ec       ___onexitbegin             004366ec     <common>
 0004:00000000       __tls_start                00437000     MSVCRT:tlssup.obj
 0004:00000001       __tls_end                  00437001     MSVCRT:tlssup.obj

 entry point at        0001:00022f72

 Static symbols

 0000:fffb0000       .debug$S                   00400000     MSVCRT:MSVCR110.dll
 0000:fffb0000       .debug$S                   00400000     msvcprt:MSVCP110.dll
 0000:fffb0000       .debug$S                   00400000     msvcprt:MSVCP110.dll
 0000:fffb0000       .debug$S                   00400000     msvcprt:MSVCP110.dll
 0000:fffb0000       .debug$S                   00400000     msvcprt:MSVCP110.dll
 0000:fffb0000       .debug$S                   00400000     msvcprt:MSVCP110.dll
 0000:fffb0000       .debug$S                   00400000     msvcprt:MSVCP110.dll
 0000:fffb0000       .debug$S                   00400000     msvcprt:MSVCP110.dll
 0000:fffb0000       .debug$S                   00400000     msvcprt:MSVCP110.dll
 0000:fffb0000       .debug$S                   00400000     msvcprt:MSVCP110.dll
 0000:fffb0000       .debug$S                   00400000     msvcprt:MSVCP110.dll
 0000:fffb0000       .debug$S                   00400000     msvcprt:MSVCP110.dll
 0000:fffb0000       .debug$S                   00400000     msvcprt:MSVCP110.dll
 0000:fffb0000       .debug$S                   00400000     msvcprt:MSVCP110.dll
 0000:fffb0000       .debug$S                   00400000     msvcprt:MSVCP110.dll
 0000:fffb0000       .debug$S                   00400000     msvcprt:MSVCP110.dll
 0000:fffb0000       .debug$S                   00400000     msvcprt:MSVCP110.dll
 0000:fffb0000       .debug$S                   00400000     msvcprt:MSVCP110.dll
 0000:fffb0000       .debug$S                   00400000     msvcprt:MSVCP110.dll
 0000:fffb0000       .debug$S                   00400000     msvcprt:MSVCP110.dll
 0000:fffb0000       .debug$S                   00400000     msvcprt:MSVCP110.dll
 0000:fffb0000       .debug$S                   00400000     msvcprt:MSVCP110.dll
 0000:fffb0000       .debug$S                   00400000     msvcprt:MSVCP110.dll
 0000:fffb0000       .debug$S                   00400000     msvcprt:MSVCP110.dll
 0000:fffb0000       .debug$S                   00400000     msvcprt:MSVCP110.dll
 0000:fffb0000       .debug$S                   00400000     msvcprt:MSVCP110.dll
 0000:fffb0000       .debug$S                   00400000     msvcprt:MSVCP110.dll
 0000:fffb0000       .debug$S                   00400000     msvcprt:MSVCP110.dll
 0000:fffb0000       .debug$S                   00400000     msvcprt:MSVCP110.dll
 0000:fffb0000       .debug$S                   00400000     msvcprt:MSVCP110.dll
 0000:fffb0000       .debug$S                   00400000     msvcprt:MSVCP110.dll
 0000:fffb0000       .debug$S                   00400000     msvcprt:MSVCP110.dll
 0000:fffb0000       .debug$S                   00400000     msvcprt:MSVCP110.dll
 0000:fffb0000       .debug$S                   00400000     msvcprt:MSVCP110.dll
 0000:fffb0000       .debug$S                   00400000     msvcprt:MSVCP110.dll
 0000:fffb0000       .debug$S                   00400000     msvcprt:MSVCP110.dll
 0000:fffb0000       .debug$S                   00400000     msvcprt:MSVCP110.dll
 0000:fffb0000       .debug$S                   00400000     msvcprt:MSVCP110.dll
 0000:fffb0000       .debug$S                   00400000     msvcprt:MSVCP110.dll
 0000:fffb0000       .debug$S                   00400000     msvcprt:MSVCP110.dll
 0000:fffb0000       .debug$S                   00400000     msvcprt:MSVCP110.dll
 0000:fffb0000       .debug$S                   00400000     msvcprt:MSVCP110.dll
 0000:fffb0000       .debug$S                   00400000     msvcprt:MSVCP110.dll
 0000:fffb0000       .debug$S                   00400000     msvcprt:MSVCP110.dll
 0000:fffb0000       .debug$S                   00400000     msvcprt:MSVCP110.dll
 0000:fffb0000       .debug$S                   00400000     msvcprt:MSVCP110.dll
 0000:fffb0000       .debug$S                   00400000     msvcprt:MSVCP110.dll
 0000:fffb0000       .debug$S                   00400000     msvcprt:MSVCP110.dll
 0000:fffb0000       .debug$S                   00400000     msvcprt:MSVCP110.dll
 0000:fffb0000       .debug$S                   00400000     msvcprt:MSVCP110.dll
 0000:fffb0000       .debug$S                   00400000     msvcprt:MSVCP110.dll
 0000:fffb0000       .debug$S                   00400000     msvcprt:MSVCP110.dll
 0000:fffb0000       .debug$S                   00400000     msvcprt:MSVCP110.dll
 0000:fffb0000       .debug$S                   00400000     msvcprt:MSVCP110.dll
 0000:fffb0000       .debug$S                   00400000     msvcprt:MSVCP110.dll
 0000:fffb0000       .debug$S                   00400000     msvcprt:MSVCP110.dll
 0000:fffb0000       .debug$S                   00400000     msvcprt:MSVCP110.dll
 0000:fffb0000       .debug$S                   00400000     msvcprt:MSVCP110.dll
 0000:fffb0000       .debug$S                   00400000     msvcprt:MSVCP110.dll
 0000:fffb0000       .debug$S                   00400000     msvcprt:MSVCP110.dll
 0000:fffb0000       .debug$S                   00400000     msvcprt:MSVCP110.dll
 0000:fffb0000       .debug$S                   00400000     msvcprt:MSVCP110.dll
 0000:fffb0000       .debug$S                   00400000     msvcprt:MSVCP110.dll
 0000:fffb0000       .debug$S                   00400000     msvcprt:MSVCP110.dll
 0000:fffb0000       .debug$S                   00400000     msvcprt:MSVCP110.dll
 0000:fffb0000       .debug$S                   00400000     msvcprt:MSVCP110.dll
 0000:fffb0000       .debug$S                   00400000     msvcprt:MSVCP110.dll
 0000:fffb0000       .debug$S                   00400000     msvcprt:MSVCP110.dll
 0000:fffb0000       .debug$S                   00400000     msvcprt:MSVCP110.dll
 0000:fffb0000       .debug$S                   00400000     msvcprt:MSVCP110.dll
 0000:fffb0000       .debug$S                   00400000     msvcprt:MSVCP110.dll
 0000:fffb0000       .debug$S                   00400000     msvcprt:MSVCP110.dll
 0000:fffb0000       .debug$S                   00400000     msvcprt:MSVCP110.dll
 0000:fffb0000       .debug$S                   00400000     msvcprt:MSVCP110.dll
 0000:fffb0000       .debug$S                   00400000     msvcprt:MSVCP110.dll
 0000:fffb0000       .debug$S                   00400000     msvcprt:MSVCP110.dll
 0000:fffb0000       .debug$S                   00400000     msvcprt:MSVCP110.dll
 0000:fffb0000       .debug$S                   00400000     msvcprt:MSVCP110.dll
 0000:fffb0000       .debug$S                   00400000     msvcprt:MSVCP110.dll
 0000:fffb0000       .debug$S                   00400000     msvcprt:MSVCP110.dll
 0000:fffb0000       .debug$S                   00400000     msvcprt:MSVCP110.dll
 0000:fffb0000       .debug$S                   00400000     msvcprt:MSVCP110.dll
 0000:fffb0000       .debug$S                   00400000     msvcprt:MSVCP110.dll
 0000:fffb0000       .debug$S                   00400000     msvcprt:MSVCP110.dll
 0000:fffb0000       .debug$S                   00400000     msvcprt:MSVCP110.dll
 0000:fffb0000       .debug$S                   00400000     msvcprt:MSVCP110.dll
 0000:fffb0000       .debug$S                   00400000     msvcprt:MSVCP110.dll
 0000:fffb0000       .debug$S                   00400000     msvcprt:MSVCP110.dll
 0000:fffb0000       .debug$S                   00400000     msvcprt:MSVCP110.dll
 0000:fffb0000       .debug$S                   00400000     msvcprt:MSVCP110.dll
 0000:fffb0000       .debug$S                   00400000     msvcprt:MSVCP110.dll
 0000:fffb0000       .debug$S                   00400000     msvcprt:MSVCP110.dll
 0000:fffb0000       .debug$S                   00400000     msvcprt:MSVCP110.dll
 0000:fffb0000       .debug$S                   00400000     msvcprt:MSVCP110.dll
 0000:fffb0000       .debug$S                   00400000     msvcprt:MSVCP110.dll
 0000:fffb0000       .debug$S                   00400000     msvcprt:MSVCP110.dll
 0000:fffb0000       .debug$S                   00400000     msvcprt:MSVCP110.dll
 0000:fffb0000       .debug$S                   00400000     msvcprt:MSVCP110.dll
 0000:fffb0000       .debug$S                   00400000     msvcprt:MSVCP110.dll
 0000:fffb0000       .debug$S                   00400000     msvcprt:MSVCP110.dll
 0000:fffb0000       .debug$S                   00400000     msvcprt:MSVCP110.dll
 0000:fffb0000       .debug$S                   00400000     msvcprt:MSVCP110.dll
 0000:fffb0000       .debug$S                   00400000     msvcprt:MSVCP110.dll
 0000:fffb0000       .debug$S                   00400000     msvcprt:MSVCP110.dll
 0000:fffb0000       .debug$S                   00400000     msvcprt:MSVCP110.dll
 0000:fffb0000       .debug$S                   00400000     msvcprt:MSVCP110.dll
 0000:fffb0000       .debug$S                   00400000     msvcprt:MSVCP110.dll
 0000:fffb0000       .debug$S                   00400000     msvcprt:MSVCP110.dll
 0000:fffb0000       .debug$S                   00400000     msvcprt:MSVCP110.dll
 0000:fffb0000       .debug$S                   00400000     msvcprt:MSVCP110.dll
 0000:fffb0000       .debug$S                   00400000     msvcprt:MSVCP110.dll
 0000:fffb0000       .debug$S                   00400000     msvcprt:MSVCP110.dll
 0000:fffb0000       .debug$S                   00400000     msvcprt:MSVCP110.dll
 0000:fffb0000       .debug$S                   00400000     msvcprt:MSVCP110.dll
 0000:fffb0000       .debug$S                   00400000     msvcprt:MSVCP110.dll
 0000:fffb0000       .debug$S                   00400000     msvcprt:MSVCP110.dll
 0000:fffb0000       .debug$S                   00400000     msvcprt:MSVCP110.dll
 0000:fffb0000       .debug$S                   00400000     msvcprt:MSVCP110.dll
 0000:fffb0000       .debug$S                   00400000     msvcprt:MSVCP110.dll
 0000:fffb0000       .debug$S                   00400000     msvcprt:MSVCP110.dll
 0000:fffb0000       .debug$S                   00400000     msvcprt:MSVCP110.dll
 0000:fffb0000       .debug$S                   00400000     msvcprt:MSVCP110.dll
 0000:fffb0000       .debug$S                   00400000     msvcprt:MSVCP110.dll
 0000:fffb0000       .debug$S                   00400000     msvcprt:MSVCP110.dll
 0000:fffb0000       .debug$S                   00400000     msvcprt:MSVCP110.dll
 0000:fffb0000       .debug$S                   00400000     msvcprt:MSVCP110.dll
 0000:fffb0000       .debug$S                   00400000     msvcprt:MSVCP110.dll
 0000:fffb0000       .debug$S                   00400000     msvcprt:MSVCP110.dll
 0000:fffb0000       .debug$S                   00400000     msvcprt:MSVCP110.dll
 0000:fffb0000       .debug$S                   00400000     msvcprt:MSVCP110.dll
 0000:fffb0000       .debug$S                   00400000     msvcprt:MSVCP110.dll
 0000:fffb0000       .debug$S                   00400000     msvcprt:MSVCP110.dll
 0000:fffb0000       .debug$S                   00400000     msvcprt:MSVCP110.dll
 0000:fffb0000       .debug$S                   00400000     kernel32:KERNEL32.dll
 0000:fffb0000       .debug$S                   00400000     kernel32:KERNEL32.dll
 0000:fffb0000       .debug$S                   00400000     kernel32:KERNEL32.dll
 0000:fffb0000       .debug$S                   00400000     kernel32:KERNEL32.dll
 0000:fffb0000       .debug$S                   00400000     kernel32:KERNEL32.dll
 0000:fffb0000       .debug$S                   00400000     kernel32:KERNEL32.dll
 0000:fffb0000       .debug$S                   00400000     kernel32:KERNEL32.dll
 0000:fffb0000       .debug$S                   00400000     kernel32:KERNEL32.dll
 0000:fffb0000       .debug$S                   00400000     kernel32:KERNEL32.dll
 0000:fffb0000       .debug$S                   00400000     kernel32:KERNEL32.dll
 0000:fffb0000       .debug$S                   00400000     kernel32:KERNEL32.dll
 0000:fffb0000       .debug$S                   00400000     kernel32:KERNEL32.dll
 0000:fffb0000       .debug$S                   00400000     kernel32:KERNEL32.dll
 0000:fffb0000       .debug$S                   00400000     kernel32:KERNEL32.dll
 0000:fffb0000       .debug$S                   00400000     kernel32:KERNEL32.dll
 0000:fffb0000       .debug$S                   00400000     kernel32:KERNEL32.dll
 0000:fffb0000       .debug$S                   00400000     kernel32:KERNEL32.dll
 0000:fffb0000       .debug$S                   00400000     kernel32:KERNEL32.dll
 0000:fffb0000       .debug$S                   00400000     kernel32:KERNEL32.dll
 0000:fffb0000       .debug$S                   00400000     kernel32:KERNEL32.dll
 0000:fffb0000       .debug$S                   00400000     kernel32:KERNEL32.dll
 0000:fffb0000       .debug$S                   00400000     kernel32:KERNEL32.dll
 0000:fffb0000       .debug$S                   00400000     kernel32:KERNEL32.dll
 0000:fffb0000       .debug$S                   00400000     kernel32:KERNEL32.dll
 0000:fffb0000       .debug$S                   00400000     kernel32:KERNEL32.dll
 0000:fffb0000       .debug$S                   00400000     kernel32:KERNEL32.dll
 0000:fffb0000       .debug$S                   00400000     kernel32:KERNEL32.dll
 0000:fffb0000       .debug$S                   00400000     kernel32:KERNEL32.dll
 0000:fffb0000       .debug$S                   00400000     kernel32:KERNEL32.dll
 0000:fffb0000       .debug$S                   00400000     kernel32:KERNEL32.dll
 0000:fffb0000       .debug$S                   00400000     kernel32:KERNEL32.dll
 0000:fffb0000       .debug$S                   00400000     kernel32:KERNEL32.dll
 0000:fffb0000       .debug$S                   00400000     kernel32:KERNEL32.dll
 0000:fffb0000       .debug$S                   00400000     kernel32:KERNEL32.dll
 0000:fffb0000       .debug$S                   00400000     kernel32:KERNEL32.dll
 0000:fffb0000       .debug$S                   00400000     kernel32:KERNEL32.dll
 0000:fffb0000       .debug$S                   00400000     kernel32:KERNEL32.dll
 0000:fffb0000       .debug$S                   00400000     kernel32:KERNEL32.dll
 0000:fffb0000       .debug$S                   00400000     kernel32:KERNEL32.dll
 0000:fffb0000       .debug$S                   00400000     kernel32:KERNEL32.dll
 0000:fffb0000       .debug$S                   00400000     kernel32:KERNEL32.dll
 0000:fffb0000       .debug$S                   00400000     kernel32:KERNEL32.dll
 0000:fffb0000       .debug$S                   00400000     kernel32:KERNEL32.dll
 0000:fffb0000       .debug$S                   00400000     kernel32:KERNEL32.dll
 0000:fffb0000       .debug$S                   00400000     kernel32:KERNEL32.dll
 0000:fffb0000       .debug$S                   00400000     kernel32:KERNEL32.dll
 0000:fffb0000       .debug$S                   00400000     kernel32:KERNEL32.dll
 0000:fffb0000       .debug$S                   00400000     kernel32:KERNEL32.dll
 0000:fffb0000       .debug$S                   00400000     kernel32:KERNEL32.dll
 0000:fffb0000       .debug$S                   00400000     kernel32:KERNEL32.dll
 0000:fffb0000       .debug$S                   00400000     kernel32:KERNEL32.dll
 0000:fffb0000       .debug$S                   00400000     kernel32:KERNEL32.dll
 0000:fffb0000       .debug$S                   00400000     kernel32:KERNEL32.dll
 0000:fffb0000       .debug$S                   00400000     kernel32:KERNEL32.dll
 0000:fffb0000       .debug$S                   00400000     kernel32:KERNEL32.dll
 0000:fffb0000       .debug$S                   00400000     kernel32:KERNEL32.dll
 0000:fffb0000       .debug$S                   00400000     kernel32:KERNEL32.dll
 0000:fffb0000       .debug$S                   00400000     kernel32:KERNEL32.dll
 0000:fffb0000       .debug$S                   00400000     kernel32:KERNEL32.dll
 0000:fffb0000       .debug$S                   00400000     kernel32:KERNEL32.dll
 0000:fffb0000       .debug$S                   00400000     kernel32:KERNEL32.dll
 0000:fffb0000       .debug$S                   00400000     kernel32:KERNEL32.dll
 0000:fffb0000       .debug$S                   00400000     kernel32:KERNEL32.dll
 0000:fffb0000       .debug$S                   00400000     kernel32:KERNEL32.dll
 0000:fffb0000       .debug$S                   00400000     kernel32:KERNEL32.dll
 0000:fffb0000       .debug$S                   00400000     kernel32:KERNEL32.dll
 0000:fffb0000       .debug$S                   00400000     msvcprt:MSVCP110.dll
 0000:fffb0000       .debug$S                   00400000     msvcprt:MSVCP110.dll
 0000:fffb0000       .debug$S                   00400000     CEGUIOgreRenderer-0:CEGUIOgreRenderer-0.dll
 0000:fffb0000       .debug$S                   00400000     msvcprt:MSVCP110.dll
 0000:fffb0000       .debug$S                   00400000     CEGUIBase-0:CEGUIBase-0.dll
 0000:fffb0000       .debug$S                   00400000     CEGUIBase-0:CEGUIBase-0.dll
 0000:fffb0000       .debug$S                   00400000     CEGUIBase-0:CEGUIBase-0.dll
 0000:fffb0000       .debug$S                   00400000     CEGUIBase-0:CEGUIBase-0.dll
 0000:fffb0000       .debug$S                   00400000     CEGUIBase-0:CEGUIBase-0.dll
 0000:fffb0000       .debug$S                   00400000     CEGUIBase-0:CEGUIBase-0.dll
 0000:fffb0000       .debug$S                   00400000     CEGUIBase-0:CEGUIBase-0.dll
 0000:fffb0000       .debug$S                   00400000     CEGUIBase-0:CEGUIBase-0.dll
 0000:fffb0000       .debug$S                   00400000     CEGUIBase-0:CEGUIBase-0.dll
 0000:fffb0000       .debug$S                   00400000     CEGUIBase-0:CEGUIBase-0.dll
 0000:fffb0000       .debug$S                   00400000     CEGUIBase-0:CEGUIBase-0.dll
 0000:fffb0000       .debug$S                   00400000     CEGUIBase-0:CEGUIBase-0.dll
 0000:fffb0000       .debug$S                   00400000     CEGUIBase-0:CEGUIBase-0.dll
 0000:fffb0000       .debug$S                   00400000     CEGUIBase-0:CEGUIBase-0.dll
 0000:fffb0000       .debug$S                   00400000     CEGUIBase-0:CEGUIBase-0.dll
 0000:fffb0000       .debug$S                   00400000     CEGUIBase-0:CEGUIBase-0.dll
 0000:fffb0000       .debug$S                   00400000     CEGUIBase-0:CEGUIBase-0.dll
 0000:fffb0000       .debug$S                   00400000     CEGUIBase-0:CEGUIBase-0.dll
 0000:fffb0000       .debug$S                   00400000     CEGUIBase-0:CEGUIBase-0.dll
 0000:fffb0000       .debug$S                   00400000     CEGUIBase-0:CEGUIBase-0.dll
 0000:fffb0000       .debug$S                   00400000     CEGUIBase-0:CEGUIBase-0.dll
 0000:fffb0000       .debug$S                   00400000     CEGUIBase-0:CEGUIBase-0.dll
 0000:fffb0000       .debug$S                   00400000     CEGUIBase-0:CEGUIBase-0.dll
 0000:fffb0000       .debug$S                   00400000     CEGUIBase-0:CEGUIBase-0.dll
 0000:fffb0000       .debug$S                   00400000     CEGUIBase-0:CEGUIBase-0.dll
 0000:fffb0000       .debug$S                   00400000     CEGUIBase-0:CEGUIBase-0.dll
 0000:fffb0000       .debug$S                   00400000     CEGUIBase-0:CEGUIBase-0.dll
 0000:fffb0000       .debug$S                   00400000     CEGUIBase-0:CEGUIBase-0.dll
 0000:fffb0000       .debug$S                   00400000     CEGUIBase-0:CEGUIBase-0.dll
 0000:fffb0000       .debug$S                   00400000     CEGUIBase-0:CEGUIBase-0.dll
 0000:fffb0000       .debug$S                   00400000     CEGUIBase-0:CEGUIBase-0.dll
 0000:fffb0000       .debug$S                   00400000     CEGUIBase-0:CEGUIBase-0.dll
 0000:fffb0000       .debug$S                   00400000     CEGUIBase-0:CEGUIBase-0.dll
 0000:fffb0000       .debug$S                   00400000     CEGUIBase-0:CEGUIBase-0.dll
 0000:fffb0000       .debug$S                   00400000     CEGUIBase-0:CEGUIBase-0.dll
 0000:fffb0000       .debug$S                   00400000     CEGUIBase-0:CEGUIBase-0.dll
 0000:fffb0000       .debug$S                   00400000     CEGUIBase-0:CEGUIBase-0.dll
 0000:fffb0000       .debug$S                   00400000     CEGUIBase-0:CEGUIBase-0.dll
 0000:fffb0000       .debug$S                   00400000     CEGUIBase-0:CEGUIBase-0.dll
 0000:fffb0000       .debug$S                   00400000     msvcprt:MSVCP110.dll
 0000:fffb0000       .debug$S                   00400000     OIS:OIS.dll
 0000:fffb0000       .debug$S                   00400000     OIS:OIS.dll
 0000:fffb0000       .debug$S                   00400000     OIS:OIS.dll
 0000:fffb0000       .debug$S                   00400000     OIS:OIS.dll
 0000:fffb0000       .debug$S                   00400000     OIS:OIS.dll
 0000:fffb0000       .debug$S                   00400000     msvcprt:MSVCP110.dll
 0000:fffb0000       .debug$S                   00400000     OgreMain:OgreMain.dll
 0000:fffb0000       .debug$S                   00400000     OgreMain:OgreMain.dll
 0000:fffb0000       .debug$S                   00400000     OgreMain:OgreMain.dll
 0000:fffb0000       .debug$S                   00400000     OgreMain:OgreMain.dll
 0000:fffb0000       .debug$S                   00400000     OgreMain:OgreMain.dll
 0000:fffb0000       .debug$S                   00400000     OgreMain:OgreMain.dll
 0000:fffb0000       .debug$S                   00400000     OgreMain:OgreMain.dll
 0000:fffb0000       .debug$S                   00400000     OgreMain:OgreMain.dll
 0000:fffb0000       .debug$S                   00400000     OgreMain:OgreMain.dll
 0000:fffb0000       .debug$S                   00400000     OgreMain:OgreMain.dll
 0000:fffb0000       .debug$S                   00400000     OgreMain:OgreMain.dll
 0000:fffb0000       .debug$S                   00400000     OgreMain:OgreMain.dll
 0000:fffb0000       .debug$S                   00400000     OgreMain:OgreMain.dll
 0000:fffb0000       .debug$S                   00400000     OgreMain:OgreMain.dll
 0000:fffb0000       .debug$S                   00400000     OgreMain:OgreMain.dll
 0000:fffb0000       .debug$S                   00400000     OgreMain:OgreMain.dll
 0000:fffb0000       .debug$S                   00400000     OgreMain:OgreMain.dll
 0000:fffb0000       .debug$S                   00400000     OgreMain:OgreMain.dll
 0000:fffb0000       .debug$S                   00400000     OgreMain:OgreMain.dll
 0000:fffb0000       .debug$S                   00400000     OgreMain:OgreMain.dll
 0000:fffb0000       .debug$S                   00400000     OgreMain:OgreMain.dll
 0000:fffb0000       .debug$S                   00400000     OgreMain:OgreMain.dll
 0000:fffb0000       .debug$S                   00400000     OgreMain:OgreMain.dll
 0000:fffb0000       .debug$S                   00400000     OgreMain:OgreMain.dll
 0000:fffb0000       .debug$S                   00400000     OgreMain:OgreMain.dll
 0000:fffb0000       .debug$S                   00400000     OgreMain:OgreMain.dll
 0000:fffb0000       .debug$S                   00400000     OgreMain:OgreMain.dll
 0000:fffb0000       .debug$S                   00400000     OgreMain:OgreMain.dll
 0000:fffb0000       .debug$S                   00400000     OgreMain:OgreMain.dll
 0000:fffb0000       .debug$S                   00400000     OgreMain:OgreMain.dll
 0000:fffb0000       .debug$S                   00400000     OgreMain:OgreMain.dll
 0000:fffb0000       .debug$S                   00400000     OgreMain:OgreMain.dll
 0000:fffb0000       .debug$S                   00400000     OgreMain:OgreMain.dll
 0000:fffb0000       .debug$S                   00400000     OgreMain:OgreMain.dll
 0000:fffb0000       .debug$S                   00400000     OgreMain:OgreMain.dll
 0000:fffb0000       .debug$S                   00400000     OgreMain:OgreMain.dll
 0000:fffb0000       .debug$S                   00400000     OgreMain:OgreMain.dll
 0000:fffb0000       .debug$S                   00400000     OgreMain:OgreMain.dll
 0000:fffb0000       .debug$S                   00400000     OgreMain:OgreMain.dll
 0000:fffb0000       .debug$S                   00400000     OgreMain:OgreMain.dll
 0000:fffb0000       .debug$S                   00400000     OgreMain:OgreMain.dll
 0000:fffb0000       .debug$S                   00400000     OgreMain:OgreMain.dll
 0000:fffb0000       .debug$S                   00400000     OgreMain:OgreMain.dll
 0000:fffb0000       .debug$S                   00400000     OgreMain:OgreMain.dll
 0000:fffb0000       .debug$S                   00400000     OgreMain:OgreMain.dll
 0000:fffb0000       .debug$S                   00400000     OgreMain:OgreMain.dll
 0000:fffb0000       .debug$S                   00400000     OgreMain:OgreMain.dll
 0000:fffb0000       .debug$S                   00400000     OgreMain:OgreMain.dll
 0000:fffb0000       .debug$S                   00400000     OgreMain:OgreMain.dll
 0000:fffb0000       .debug$S                   00400000     OgreMain:OgreMain.dll
 0000:fffb0000       .debug$S                   00400000     OgreMain:OgreMain.dll
 0000:fffb0000       .debug$S                   00400000     OgreMain:OgreMain.dll
 0000:fffb0000       .debug$S                   00400000     OgreMain:OgreMain.dll
 0000:fffb0000       .debug$S                   00400000     OgreMain:OgreMain.dll
 0000:fffb0000       .debug$S                   00400000     OgreMain:OgreMain.dll
 0000:fffb0000       .debug$S                   00400000     OgreMain:OgreMain.dll
 0000:fffb0000       .debug$S                   00400000     msvcprt:MSVCP110.dll
 0000:fffb0000       .debug$S                   00400000     msvcprt:MSVCP110.dll
 0000:fffb0000       .debug$S                   00400000     msvcprt:MSVCP110.dll
 0000:fffb0000       .debug$S                   00400000     msvcprt:MSVCP110.dll
 0000:fffb0000       .debug$S                   00400000     msvcprt:MSVCP110.dll
 0000:fffb0000       .debug$S                   00400000     msvcprt:MSVCP110.dll
 0000:fffb0000       .debug$S                   00400000     msvcprt:MSVCP110.dll
 0000:fffb0000       .debug$S                   00400000     msvcprt:MSVCP110.dll
 0000:fffb0000       .debug$S                   00400000     msvcprt:MSVCP110.dll
 0000:fffb0000       .debug$S                   00400000     msvcprt:MSVCP110.dll
 0000:fffb0000       .debug$S                   00400000     msvcprt:MSVCP110.dll
 0000:fffb0000       .debug$S                   00400000     msvcprt:MSVCP110.dll
 0000:fffb0000       .debug$S                   00400000     msvcprt:MSVCP110.dll
 0000:fffb0000       .debug$S                   00400000     msvcprt:MSVCP110.dll
 0000:fffb0000       .debug$S                   00400000     msvcprt:MSVCP110.dll
 0000:fffb0000       .debug$S                   00400000     msvcprt:MSVCP110.dll
 0000:fffb0000       .debug$S                   00400000     msvcprt:MSVCP110.dll
 0000:fffb0000       .debug$S                   00400000     msvcprt:MSVCP110.dll
 0000:fffb0000       .debug$S                   00400000     msvcprt:MSVCP110.dll
 0000:fffb0000       .debug$S                   00400000     msvcprt:MSVCP110.dll
 0000:fffb0000       .debug$S                   00400000     msvcprt:MSVCP110.dll
 0000:fffb0000       .debug$S                   00400000     msvcprt:MSVCP110.dll
 0000:fffb0000       .debug$S                   00400000     msvcprt:MSVCP110.dll
 0000:fffb0000       .debug$S                   00400000     msvcprt:MSVCP110.dll
 0000:fffb0000       .debug$S                   00400000     msvcprt:MSVCP110.dll
 0000:fffb0000       .debug$S                   00400000     msvcprt:MSVCP110.dll
 0000:fffb0000       .debug$S                   00400000     msvcprt:MSVCP110.dll
 0000:fffb0000       .debug$S                   00400000     msvcprt:MSVCP110.dll
 0000:fffb0000       .debug$S                   00400000     msvcprt:MSVCP110.dll
 0000:fffb0000       .debug$S                   00400000     msvcprt:MSVCP110.dll
 0000:fffb0000       .debug$S                   00400000     msvcprt:MSVCP110.dll
 0000:fffb0000       .debug$S                   00400000     msvcprt:MSVCP110.dll
 0000:fffb0000       .debug$S                   00400000     msvcprt:MSVCP110.dll
 0000:fffb0000       .debug$S                   00400000     msvcprt:MSVCP110.dll
 0000:fffb0000       .debug$S                   00400000     msvcprt:MSVCP110.dll
 0000:fffb0000       .debug$S                   00400000     msvcprt:MSVCP110.dll
 0000:fffb0000       .debug$S                   00400000     msvcprt:MSVCP110.dll
 0000:fffb0000       .debug$S                   00400000     msvcprt:MSVCP110.dll
 0000:fffb0000       .debug$S                   00400000     msvcprt:MSVCP110.dll
 0000:fffb0000       .debug$S                   00400000     msvcprt:MSVCP110.dll
 0000:fffb0000       .debug$S                   00400000     msvcprt:MSVCP110.dll
 0000:fffb0000       .debug$S                   00400000     msvcprt:MSVCP110.dll
 0000:fffb0000       .debug$S                   00400000     msvcprt:MSVCP110.dll
 0000:fffb0000       .debug$S                   00400000     msvcprt:MSVCP110.dll
 0000:fffb0000       .debug$S                   00400000     msvcprt:MSVCP110.dll
 0000:fffb0000       .debug$S                   00400000     msvcprt:MSVCP110.dll
 0000:fffb0000       .debug$S                   00400000     msvcprt:MSVCP110.dll
 0000:fffb0000       .debug$S                   00400000     msvcprt:MSVCP110.dll
 0000:fffb0000       .debug$S                   00400000     msvcprt:MSVCP110.dll
 0000:fffb0000       .debug$S                   00400000     msvcprt:MSVCP110.dll
 0000:fffb0000       .debug$S                   00400000     msvcprt:MSVCP110.dll
 0000:fffb0000       .debug$S                   00400000     msvcprt:MSVCP110.dll
 0000:fffb0000       .debug$S                   00400000     msvcprt:MSVCP110.dll
 0000:fffb0000       .debug$S                   00400000     msvcprt:MSVCP110.dll
 0000:fffb0000       .debug$S                   00400000     msvcprt:MSVCP110.dll
 0000:fffb0000       .debug$S                   00400000     msvcprt:MSVCP110.dll
 0000:fffb0000       .debug$S                   00400000     msvcprt:MSVCP110.dll
 0000:fffb0000       .debug$S                   00400000     msvcprt:MSVCP110.dll
 0000:fffb0000       .debug$S                   00400000     msvcprt:MSVCP110.dll
 0000:fffb0000       .debug$S                   00400000     msvcprt:MSVCP110.dll
 0000:fffb0000       .debug$S                   00400000     msvcprt:MSVCP110.dll
 0000:fffb0000       .debug$S                   00400000     msvcprt:MSVCP110.dll
 0000:fffb0000       .debug$S                   00400000     msvcprt:MSVCP110.dll
 0000:fffb0000       .debug$S                   00400000     MSVCRT:MSVCR110.dll
 0000:fffb0000       .debug$S                   00400000     MSVCRT:MSVCR110.dll
 0000:fffb0000       .debug$S                   00400000     MSVCRT:MSVCR110.dll
 0000:fffb0000       .debug$S                   00400000     MSVCRT:MSVCR110.dll
 0000:fffb0000       .debug$S                   00400000     MSVCRT:MSVCR110.dll
 0000:fffb0000       .debug$S                   00400000     MSVCRT:MSVCR110.dll
 0000:fffb0000       .debug$S                   00400000     MSVCRT:MSVCR110.dll
 0000:fffb0000       .debug$S                   00400000     MSVCRT:MSVCR110.dll
 0000:fffb0000       .debug$S                   00400000     MSVCRT:MSVCR110.dll
 0000:fffb0000       .debug$S                   00400000     MSVCRT:MSVCR110.dll
 0000:fffb0000       .debug$S                   00400000     MSVCRT:MSVCR110.dll
 0000:fffb0000       .debug$S                   00400000     MSVCRT:MSVCR110.dll
 0000:fffb0000       .debug$S                   00400000     MSVCRT:MSVCR110.dll
 0000:fffb0000       .debug$S                   00400000     MSVCRT:MSVCR110.dll
 0000:fffb0000       .debug$S                   00400000     MSVCRT:MSVCR110.dll
 0000:fffb0000       .debug$S                   00400000     MSVCRT:MSVCR110.dll
 0000:fffb0000       .debug$S                   00400000     MSVCRT:MSVCR110.dll
 0000:fffb0000       .debug$S                   00400000     MSVCRT:MSVCR110.dll
 0000:fffb0000       .debug$S                   00400000     MSVCRT:MSVCR110.dll
 0000:fffb0000       .debug$S                   00400000     MSVCRT:MSVCR110.dll
 0000:fffb0000       .debug$S                   00400000     MSVCRT:MSVCR110.dll
 0000:fffb0000       .debug$S                   00400000     MSVCRT:MSVCR110.dll
 0000:fffb0000       .debug$S                   00400000     MSVCRT:MSVCR110.dll
 0000:fffb0000       .debug$S                   00400000     MSVCRT:MSVCR110.dll
 0000:fffb0000       .debug$S                   00400000     MSVCRT:MSVCR110.dll
 0000:fffb0000       .debug$S                   00400000     MSVCRT:MSVCR110.dll
 0000:fffb0000       .debug$S                   00400000     MSVCRT:MSVCR110.dll
 0000:fffb0000       .debug$S                   00400000     msvcprt:MSVCP110.dll
 0000:fffb0000       .debug$S                   00400000     MSVCRT:MSVCR110.dll
 0000:fffb0000       .debug$S                   00400000     MSVCRT:MSVCR110.dll
 0000:fffb0000       .debug$S                   00400000     MSVCRT:MSVCR110.dll
 0000:fffb0000       .debug$S                   00400000     MSVCRT:MSVCR110.dll
 0000:fffb0000       .debug$S                   00400000     MSVCRT:MSVCR110.dll
 0000:fffb0000       .debug$S                   00400000     MSVCRT:MSVCR110.dll
 0000:fffb0000       .debug$S                   00400000     MSVCRT:MSVCR110.dll
 0000:fffb0000       .debug$S                   00400000     MSVCRT:MSVCR110.dll
 0000:fffb0000       .debug$S                   00400000     MSVCRT:MSVCR110.dll
 0000:fffb0000       .debug$S                   00400000     MSVCRT:MSVCR110.dll
 0000:fffb0000       .debug$S                   00400000     MSVCRT:MSVCR110.dll
 0000:fffb0000       .debug$S                   00400000     MSVCRT:MSVCR110.dll
 0000:fffb0000       .debug$S                   00400000     MSVCRT:MSVCR110.dll
 0000:fffb0000       .debug$S                   00400000     MSVCRT:MSVCR110.dll
 0000:fffb0000       .debug$S                   00400000     MSVCRT:MSVCR110.dll
 0000:fffb0000       .debug$S                   00400000     MSVCRT:MSVCR110.dll
 0000:fffb0000       .debug$S                   00400000     MSVCRT:MSVCR110.dll
 0000:fffb0000       .debug$S                   00400000     MSVCRT:MSVCR110.dll
 0000:fffb0000       .debug$S                   00400000     MSVCRT:MSVCR110.dll
 0000:fffb0000       .debug$S                   00400000     MSVCRT:MSVCR110.dll
 0000:fffb0000       .debug$S                   00400000     MSVCRT:MSVCR110.dll
 0000:fffb0000       .debug$S                   00400000     MSVCRT:MSVCR110.dll
 0000:fffb0000       .debug$S                   00400000     MSVCRT:MSVCR110.dll
 0000:fffb0000       .debug$S                   00400000     MSVCRT:MSVCR110.dll
 0000:fffb0000       .debug$S                   00400000     MSVCRT:MSVCR110.dll
 0000:fffb0000       .debug$S                   00400000     MSVCRT:MSVCR110.dll
 0000:fffb0000       .debug$S                   00400000     MSVCRT:MSVCR110.dll
 0000:fffb0000       .debug$S                   00400000     MSVCRT:MSVCR110.dll
 0000:fffb0000       .debug$S                   00400000     MSVCRT:MSVCR110.dll
 0000:fffb0000       .debug$S                   00400000     MSVCRT:MSVCR110.dll
 0000:fffb0000       .debug$S                   00400000     MSVCRT:MSVCR110.dll
 0000:fffb0000       .debug$S                   00400000     MSVCRT:MSVCR110.dll
 0000:fffb0000       .debug$S                   00400000     MSVCRT:MSVCR110.dll
 0000:fffb0000       .debug$S                   00400000     MSVCRT:MSVCR110.dll
 0000:fffb0000       .debug$S                   00400000     MSVCRT:MSVCR110.dll
 0000:fffb0000       .debug$S                   00400000     MSVCRT:MSVCR110.dll
 0000:fffb0000       .debug$S                   00400000     MSVCRT:MSVCR110.dll
 0000:fffb0000       .debug$S                   00400000     MSVCRT:MSVCR110.dll
 0000:fffb0000       .debug$S                   00400000     MSVCRT:MSVCR110.dll
 0000:fffb0000       .debug$S                   00400000     MSVCRT:MSVCR110.dll
 0000:fffb0000       .debug$S                   00400000     MSVCRT:MSVCR110.dll
 0000:fffb0000       .debug$S                   00400000     MSVCRT:MSVCR110.dll
 0000:fffb0000       .debug$S                   00400000     MSVCRT:MSVCR110.dll
 0000:fffb0000       .debug$S                   00400000     MSVCRT:MSVCR110.dll
 0000:fffb0000       .debug$S                   00400000     MSVCRT:MSVCR110.dll
 0000:fffb0000       .debug$S                   00400000     MSVCRT:MSVCR110.dll
 0000:fffb0000       .debug$S                   00400000     MSVCRT:MSVCR110.dll
 0000:fffb0000       .debug$S                   00400000     MSVCRT:MSVCR110.dll
 0000:fffb0000       .debug$S                   00400000     MSVCRT:MSVCR110.dll
 0000:fffb0000       .debug$S                   00400000     MSVCRT:MSVCR110.dll
 0000:fffb0000       .debug$S                   00400000     MSVCRT:MSVCR110.dll
 0000:fffb0000       .debug$S                   00400000     MSVCRT:MSVCR110.dll
 0000:fffb0000       .debug$S                   00400000     MSVCRT:MSVCR110.dll
 0000:fffb0000       .debug$S                   00400000     MSVCRT:MSVCR110.dll
 0000:fffb0000       .debug$S                   00400000     MSVCRT:MSVCR110.dll
 0000:fffb0000       .debug$S                   00400000     MSVCRT:MSVCR110.dll
 0000:fffb0000       .debug$S                   00400000     MSVCRT:MSVCR110.dll
 0000:fffb0000       .debug$S                   00400000     MSVCRT:MSVCR110.dll
 0000:fffb0000       .debug$S                   00400000     MSVCRT:MSVCR110.dll
 0000:fffb0000       .debug$S                   00400000     MSVCRT:MSVCR110.dll
 0000:fffb0000       .debug$S                   00400000     MSVCRT:MSVCR110.dll
 0000:fffb0000       .debug$S                   00400000     MSVCRT:MSVCR110.dll
 0000:fffb0000       .debug$S                   00400000     MSVCRT:MSVCR110.dll
 0000:fffb0000       .debug$S                   00400000     MSVCRT:MSVCR110.dll
 0000:fffb0000       .debug$S                   00400000     MSVCRT:MSVCR110.dll
 0000:fffb0000       .debug$S                   00400000     MSVCRT:MSVCR110.dll
 0000:fffb0000       .debug$S                   00400000     MSVCRT:MSVCR110.dll
 0001:00000c3c       __catch$?initOgreResources@C3DApplication@Application@@AAE_NXZ$0 00401c3c f   * CIL library *:* CIL module *
 0001:00001043       __catch$?initOIS@C3DApplication@Application@@AAE_NXZ$0 00402043 f   * CIL library *:* CIL module *
 0001:000026c7       __catch$?_Copy@?$basic_string@DU?$char_traits@D@std@@V?$allocator@D@2@@std@@QAEXII@Z$0 004036c7 f i * CIL library *:* CIL module *
 0001:00002704       __catch$?_Copy@?$basic_string@DU?$char_traits@D@std@@V?$allocator@D@2@@std@@QAEXII@Z$1 00403704 f i * CIL library *:* CIL module *
 0001:00002f99       __catch$??$_Insert_nohint@AAU?$pair@$$CBV?$basic_string@DU?$char_traits@D@std@@V?$allocator@D@2@@std@@V12@@std@@PAU?$_Tree_node@U?$pair@$$CBV?$basic_string@DU?$char_traits@D@std@@V?$allocator@D@2@@std@@V12@@std@@PAX@2@@?$_Tree@V?$_Tmap_traits@V?$basic_string@DU?$char_traits@D@std@@V?$allocator@D@2@@std@@V12@U?$less@V?$basic_string@DU?$char_traits@D@std@@V?$allocator@D@2@@std@@@2@V?$allocator@U?$pair@$$CBV?$basic_string@DU?$char_traits@D@std@@V?$allocator@D@2@@std@@V12@@std@@@2@$00@std@@@std@@IAE?AU?$pair@V?$_Tree_iterator@V?$_Tree_val@U?$_Tree_simple_types@U?$pair@$$CBV?$basic_string@DU?$char_traits@D@std@@V?$allocator@D@2@@std@@V12@@std@@@std@@@std@@@std@@_N@1@_NAAU?$pair@$$CBV?$basic_string@DU?$char_traits@D@std@@V?$allocator@D@2@@std@@V12@@1@PAU?$_Tree_node@U?$pair@$$CBV?$basic_string@DU?$char_traits@D@std@@V?$allocator@D@2@@std@@V12@@std@@PAX@1@@Z$0 00403f99 f i * CIL library *:* CIL module *
 0001:00004562       __catch$??$_Insert_hint@AAU?$pair@$$CBV?$basic_string@DU?$char_traits@D@std@@V?$allocator@D@2@@std@@PAVCApplicationState@Application@@@std@@PAU?$_Tree_node@U?$pair@$$CBV?$basic_string@DU?$char_traits@D@std@@V?$allocator@D@2@@std@@PAVCApplicationState@Application@@@std@@PAX@2@@?$_Tree@V?$_Tmap_traits@V?$basic_string@DU?$char_traits@D@std@@V?$allocator@D@2@@std@@PAVCApplicationState@Application@@U?$less@V?$basic_string@DU?$char_traits@D@std@@V?$allocator@D@2@@std@@@2@V?$allocator@U?$pair@$$CBV?$basic_string@DU?$char_traits@D@std@@V?$allocator@D@2@@std@@PAVCApplicationState@Application@@@std@@@2@$0A@@std@@@std@@IAE?AV?$_Tree_iterator@V?$_Tree_val@U?$_Tree_simple_types@U?$pair@$$CBV?$basic_string@DU?$char_traits@D@std@@V?$allocator@D@2@@std@@PAVCApplicationState@Application@@@std@@@std@@@std@@@1@V?$_Tree_const_iterator@V?$_Tree_val@U?$_Tree_simple_types@U?$pair@$$CBV?$basic_string@DU?$char_traits@D@std@@V?$allocator@D@2@@std@@PAVCApplicationState@Application@@@std@@@std@@@std@@@1@AAU?$pair@$$CBV?$basic_string@DU?$char_traits@D@std@@V?$allocator@D@2@@std@@PAVCApplicationState@Application@@@1@PAU?$_Tree_node@U?$pair@$$CBV?$basic_string@DU?$char_traits@D@std@@V?$allocator@D@2@@std@@PAVCApplicationState@Application@@@std@@PAX@1@@Z$0 00405562 f i * CIL library *:* CIL module *
 0001:00004a2f       __catch$??$_Insert_nohint@AAU?$pair@$$CBV?$basic_string@DU?$char_traits@D@std@@V?$allocator@D@2@@std@@PAVCApplicationState@Application@@@std@@PAU?$_Tree_node@U?$pair@$$CBV?$basic_string@DU?$char_traits@D@std@@V?$allocator@D@2@@std@@PAVCApplicationState@Application@@@std@@PAX@2@@?$_Tree@V?$_Tmap_traits@V?$basic_string@DU?$char_traits@D@std@@V?$allocator@D@2@@std@@PAVCApplicationState@Application@@U?$less@V?$basic_string@DU?$char_traits@D@std@@V?$allocator@D@2@@std@@@2@V?$allocator@U?$pair@$$CBV?$basic_string@DU?$char_traits@D@std@@V?$allocator@D@2@@std@@PAVCApplicationState@Application@@@std@@@2@$0A@@std@@@std@@IAE?AU?$pair@V?$_Tree_iterator@V?$_Tree_val@U?$_Tree_simple_types@U?$pair@$$CBV?$basic_string@DU?$char_traits@D@std@@V?$allocator@D@2@@std@@PAVCApplicationState@Application@@@std@@@std@@@std@@@std@@_N@1@_NAAU?$pair@$$CBV?$basic_string@DU?$char_traits@D@std@@V?$allocator@D@2@@std@@PAVCApplicationState@Application@@@1@PAU?$_Tree_node@U?$pair@$$CBV?$basic_string@DU?$char_traits@D@std@@V?$allocator@D@2@@std@@PAVCApplicationState@Application@@@std@@PAX@1@@Z$0 00405a2f f i * CIL library *:* CIL module *
 0001:00004a2f       __catch$??$_Insert_nohint@AAU?$pair@$$CBV?$basic_string@DU?$char_traits@D@std@@V?$allocator@D@2@@std@@P6APAVIComponent@Logic@@XZ@std@@PAU?$_Tree_node@U?$pair@$$CBV?$basic_string@DU?$char_traits@D@std@@V?$allocator@D@2@@std@@P6APAVIComponent@Logic@@XZ@std@@PAX@2@@?$_Tree@V?$_Tmap_traits@V?$basic_string@DU?$char_traits@D@std@@V?$allocator@D@2@@std@@P6APAVIComponent@Logic@@XZU?$less@V?$basic_string@DU?$char_traits@D@std@@V?$allocator@D@2@@std@@@2@V?$allocator@U?$pair@$$CBV?$basic_string@DU?$char_traits@D@std@@V?$allocator@D@2@@std@@P6APAVIComponent@Logic@@XZ@std@@@2@$0A@@std@@@std@@IAE?AU?$pair@V?$_Tree_iterator@V?$_Tree_val@U?$_Tree_simple_types@U?$pair@$$CBV?$basic_string@DU?$char_traits@D@std@@V?$allocator@D@2@@std@@P6APAVIComponent@Logic@@XZ@std@@@std@@@std@@@std@@_N@1@_NAAU?$pair@$$CBV?$basic_string@DU?$char_traits@D@std@@V?$allocator@D@2@@std@@P6APAVIComponent@Logic@@XZ@1@PAU?$_Tree_node@U?$pair@$$CBV?$basic_string@DU?$char_traits@D@std@@V?$allocator@D@2@@std@@P6APAVIComponent@Logic@@XZ@std@@PAX@1@@Z$0 00405a2f f i * CIL library *:* CIL module *
 0001:00006208       $LN112                     00407208     * CIL library *:* CIL module *
 0001:0000621c       $LN109                     0040721c     * CIL library *:* CIL module *
 0001:0000635b       __catch$_WinMain@16$0      0040735b f   * CIL library *:* CIL module *
 0001:0000892c       __catch$??$_Insert_nohint@AAU?$pair@$$CBV?$basic_string@DU?$char_traits@D@std@@V?$allocator@D@2@@std@@PAVCConfigure@Configuration@Common@@@std@@PAU?$_Tree_node@U?$pair@$$CBV?$basic_string@DU?$char_traits@D@std@@V?$allocator@D@2@@std@@PAVCConfigure@Configuration@Common@@@std@@PAX@2@@?$_Tree@V?$_Tmap_traits@V?$basic_string@DU?$char_traits@D@std@@V?$allocator@D@2@@std@@PAVCConfigure@Configuration@Common@@U?$less@V?$basic_string@DU?$char_traits@D@std@@V?$allocator@D@2@@std@@@2@V?$allocator@U?$pair@$$CBV?$basic_string@DU?$char_traits@D@std@@V?$allocator@D@2@@std@@PAVCConfigure@Configuration@Common@@@std@@@2@$0A@@std@@@std@@IAE?AU?$pair@V?$_Tree_iterator@V?$_Tree_val@U?$_Tree_simple_types@U?$pair@$$CBV?$basic_string@DU?$char_traits@D@std@@V?$allocator@D@2@@std@@PAVCConfigure@Configuration@Common@@@std@@@std@@@std@@@std@@_N@1@_NAAU?$pair@$$CBV?$basic_string@DU?$char_traits@D@std@@V?$allocator@D@2@@std@@PAVCConfigure@Configuration@Common@@@1@PAU?$_Tree_node@U?$pair@$$CBV?$basic_string@DU?$char_traits@D@std@@V?$allocator@D@2@@std@@PAVCConfigure@Configuration@Common@@@std@@PAX@1@@Z$0 0040992c f i * CIL library *:* CIL module *
 0001:00008a85       __catch$??$getline@DU?$char_traits@D@std@@V?$allocator@D@2@@std@@YAAAV?$basic_istream@DU?$char_traits@D@std@@@0@$$QAV10@AAV?$basic_string@DU?$char_traits@D@std@@V?$allocator@D@2@@0@D@Z$0 00409a85 f i * CIL library *:* CIL module *
 0001:00008ce2       __catch$??$_Insert_hint@AAU?$pair@$$CBV?$basic_string@DU?$char_traits@D@std@@V?$allocator@D@2@@std@@V12@@std@@PAU?$_Tree_node@U?$pair@$$CBV?$basic_string@DU?$char_traits@D@std@@V?$allocator@D@2@@std@@V12@@std@@PAX@2@@?$_Tree@V?$_Tmap_traits@V?$basic_string@DU?$char_traits@D@std@@V?$allocator@D@2@@std@@V12@U?$less@V?$basic_string@DU?$char_traits@D@std@@V?$allocator@D@2@@std@@@2@V?$allocator@U?$pair@$$CBV?$basic_string@DU?$char_traits@D@std@@V?$allocator@D@2@@std@@V12@@std@@@2@$0A@@std@@@std@@IAE?AV?$_Tree_iterator@V?$_Tree_val@U?$_Tree_simple_types@U?$pair@$$CBV?$basic_string@DU?$char_traits@D@std@@V?$allocator@D@2@@std@@V12@@std@@@std@@@std@@@1@V?$_Tree_const_iterator@V?$_Tree_val@U?$_Tree_simple_types@U?$pair@$$CBV?$basic_string@DU?$char_traits@D@std@@V?$allocator@D@2@@std@@V12@@std@@@std@@@std@@@1@AAU?$pair@$$CBV?$basic_string@DU?$char_traits@D@std@@V?$allocator@D@2@@std@@V12@@1@PAU?$_Tree_node@U?$pair@$$CBV?$basic_string@DU?$char_traits@D@std@@V?$allocator@D@2@@std@@V12@@std@@PAX@1@@Z$0 00409ce2 f i * CIL library *:* CIL module *
 0001:00008ef0       __catch$??$_Insert_hint@AAU?$pair@$$CBV?$basic_string@DU?$char_traits@D@std@@V?$allocator@D@2@@std@@PAVCConfigure@Configuration@Common@@@std@@PAU?$_Tree_node@U?$pair@$$CBV?$basic_string@DU?$char_traits@D@std@@V?$allocator@D@2@@std@@PAVCConfigure@Configuration@Common@@@std@@PAX@2@@?$_Tree@V?$_Tmap_traits@V?$basic_string@DU?$char_traits@D@std@@V?$allocator@D@2@@std@@PAVCConfigure@Configuration@Common@@U?$less@V?$basic_string@DU?$char_traits@D@std@@V?$allocator@D@2@@std@@@2@V?$allocator@U?$pair@$$CBV?$basic_string@DU?$char_traits@D@std@@V?$allocator@D@2@@std@@PAVCConfigure@Configuration@Common@@@std@@@2@$0A@@std@@@std@@IAE?AV?$_Tree_iterator@V?$_Tree_val@U?$_Tree_simple_types@U?$pair@$$CBV?$basic_string@DU?$char_traits@D@std@@V?$allocator@D@2@@std@@PAVCConfigure@Configuration@Common@@@std@@@std@@@std@@@1@V?$_Tree_const_iterator@V?$_Tree_val@U?$_Tree_simple_types@U?$pair@$$CBV?$basic_string@DU?$char_traits@D@std@@V?$allocator@D@2@@std@@PAVCConfigure@Configuration@Common@@@std@@@std@@@std@@@1@AAU?$pair@$$CBV?$basic_string@DU?$char_traits@D@std@@V?$allocator@D@2@@std@@PAVCConfigure@Configuration@Common@@@1@PAU?$_Tree_node@U?$pair@$$CBV?$basic_string@DU?$char_traits@D@std@@V?$allocator@D@2@@std@@PAVCConfigure@Configuration@Common@@@std@@PAX@1@@Z$0 00409ef0 f i * CIL library *:* CIL module *
 0001:000093b2       __catch$??$_Insert_nohint@AAU?$pair@$$CBV?$basic_string@DU?$char_traits@D@std@@V?$allocator@D@2@@std@@V12@@std@@PAU?$_Tree_node@U?$pair@$$CBV?$basic_string@DU?$char_traits@D@std@@V?$allocator@D@2@@std@@V12@@std@@PAX@2@@?$_Tree@V?$_Tmap_traits@V?$basic_string@DU?$char_traits@D@std@@V?$allocator@D@2@@std@@V12@U?$less@V?$basic_string@DU?$char_traits@D@std@@V?$allocator@D@2@@std@@@2@V?$allocator@U?$pair@$$CBV?$basic_string@DU?$char_traits@D@std@@V?$allocator@D@2@@std@@V12@@std@@@2@$0A@@std@@@std@@IAE?AU?$pair@V?$_Tree_iterator@V?$_Tree_val@U?$_Tree_simple_types@U?$pair@$$CBV?$basic_string@DU?$char_traits@D@std@@V?$allocator@D@2@@std@@V12@@std@@@std@@@std@@@std@@_N@1@_NAAU?$pair@$$CBV?$basic_string@DU?$char_traits@D@std@@V?$allocator@D@2@@std@@V12@@1@PAU?$_Tree_node@U?$pair@$$CBV?$basic_string@DU?$char_traits@D@std@@V?$allocator@D@2@@std@@V12@@std@@PAX@1@@Z$0 0040a3b2 f i * CIL library *:* CIL module *
 0001:0000a6e6       __catch$?loadBluePrints@CXMLParser@XMLParser@Util@Common@@SA?AV?$map@V?$basic_string@DU?$char_traits@D@std@@V?$allocator@D@2@@std@@V?$vector@UTXMLComponent@Blueprints@Data@Common@@V?$allocator@UTXMLComponent@Blueprints@Data@Common@@@std@@@2@U?$less@V?$basic_string@DU?$char_traits@D@std@@V?$allocator@D@2@@std@@@2@V?$allocator@U?$pair@$$CBV?$basic_string@DU?$char_traits@D@std@@V?$allocator@D@2@@std@@V?$vector@UTXMLComponent@Blueprints@Data@Common@@V?$allocator@UTXMLComponent@Blueprints@Data@Common@@@std@@@2@@std@@@2@@std@@ABV?$basic_string@DU?$char_traits@D@std@@V?$allocator@D@2@@6@@Z$0 0040b6e6 f   * CIL library *:* CIL module *
 0001:0000ac2a       __catch$?_Reallocate@?$vector@UTXMLComponent@Blueprints@Data@Common@@V?$allocator@UTXMLComponent@Blueprints@Data@Common@@@std@@@std@@IAEXI@Z$0 0040bc2a f i * CIL library *:* CIL module *
 0001:0000b21b       __catch$??0?$vector@UTXMLComponent@Blueprints@Data@Common@@V?$allocator@UTXMLComponent@Blueprints@Data@Common@@@std@@@std@@QAE@ABV01@@Z$0 0040c21b f i * CIL library *:* CIL module *
 0001:0000b2f9       __catch$??$_Construct@V?$_String_iterator@V?$_String_val@U?$_Simple_types@D@std@@@std@@@std@@@?$vector@DV?$allocator@D@std@@@std@@QAEXV?$_String_iterator@V?$_String_val@U?$_Simple_types@D@std@@@std@@@1@0@Z$0 0040c2f9 f i * CIL library *:* CIL module *
 0001:0000b692       __catch$??$_Insert_nohint@AAU?$pair@$$CBV?$basic_string@DU?$char_traits@D@std@@V?$allocator@D@2@@std@@V?$vector@UTXMLComponent@Blueprints@Data@Common@@V?$allocator@UTXMLComponent@Blueprints@Data@Common@@@std@@@2@@std@@PAU?$_Tree_node@U?$pair@$$CBV?$basic_string@DU?$char_traits@D@std@@V?$allocator@D@2@@std@@V?$vector@UTXMLComponent@Blueprints@Data@Common@@V?$allocator@UTXMLComponent@Blueprints@Data@Common@@@std@@@2@@std@@PAX@2@@?$_Tree@V?$_Tmap_traits@V?$basic_string@DU?$char_traits@D@std@@V?$allocator@D@2@@std@@V?$vector@UTXMLComponent@Blueprints@Data@Common@@V?$allocator@UTXMLComponent@Blueprints@Data@Common@@@std@@@2@U?$less@V?$basic_string@DU?$char_traits@D@std@@V?$allocator@D@2@@std@@@2@V?$allocator@U?$pair@$$CBV?$basic_string@DU?$char_traits@D@std@@V?$allocator@D@2@@std@@V?$vector@UTXMLComponent@Blueprints@Data@Common@@V?$allocator@UTXMLComponent@Blueprints@Data@Common@@@std@@@2@@std@@@2@$0A@@std@@@std@@IAE?AU?$pair@V?$_Tree_iterator@V?$_Tree_val@U?$_Tree_simple_types@U?$pair@$$CBV?$basic_string@DU?$char_traits@D@std@@V?$allocator@D@2@@std@@V?$vector@UTXMLComponent@Blueprints@Data@Common@@V?$allocator@UTXMLComponent@Blueprints@Data@Common@@@std@@@2@@std@@@std@@@std@@@std@@_N@1@_NAAU?$pair@$$CBV?$basic_string@DU?$char_traits@D@std@@V?$allocator@D@2@@std@@V?$vector@UTXMLComponent@Blueprints@Data@Common@@V?$allocator@UTXMLComponent@Blueprints@Data@Common@@@std@@@2@@1@PAU?$_Tree_node@U?$pair@$$CBV?$basic_string@DU?$char_traits@D@std@@V?$allocator@D@2@@std@@V?$vector@UTXMLComponent@Blueprints@Data@Common@@V?$allocator@UTXMLComponent@Blueprints@Data@Common@@@std@@@2@@std@@PAX@1@@Z$0 0040c692 f i * CIL library *:* CIL module *
 0001:0000bdc9       __catch$??$_Uninit_move@PAUTXMLComponent@Blueprints@Data@Common@@PAU1234@V?$allocator@UTXMLComponent@Blueprints@Data@Common@@@std@@U1234@@std@@YAPAUTXMLComponent@Blueprints@Data@Common@@PAU1234@00AAU?$_Wrap_alloc@V?$allocator@UTXMLComponent@Blueprints@Data@Common@@@std@@@0@0U_Nonscalar_ptr_iterator_tag@0@@Z$0 0040cdc9 f i * CIL library *:* CIL module *
 0001:0000c500       __catch$??$_Uninit_copy@V?$_Vector_const_iterator@V?$_Vector_val@U?$_Simple_types@UTXMLComponent@Blueprints@Data@Common@@@std@@@std@@@std@@PAUTXMLComponent@Blueprints@Data@Common@@V?$allocator@UTXMLComponent@Blueprints@Data@Common@@@2@@std@@YAPAUTXMLComponent@Blueprints@Data@Common@@V?$_Vector_const_iterator@V?$_Vector_val@U?$_Simple_types@UTXMLComponent@Blueprints@Data@Common@@@std@@@std@@@0@0PAU1234@AAU?$_Wrap_alloc@V?$allocator@UTXMLComponent@Blueprints@Data@Common@@@std@@@0@U_Nonscalar_ptr_iterator_tag@0@@Z$0 0040d500 f i * CIL library *:* CIL module *
 0001:0000c724       $LN88                      0040d724     * CIL library *:* CIL module *
 0001:0000c73c       $LN83                      0040d73c     * CIL library *:* CIL module *
 0001:0000c974       $LN88                      0040d974     * CIL library *:* CIL module *
 0001:0000c98c       $LN83                      0040d98c     * CIL library *:* CIL module *
 0001:0000cca4       $LN82                      0040dca4     * CIL library *:* CIL module *
 0001:0000ccbc       $LN77                      0040dcbc     * CIL library *:* CIL module *
 0001:0000d404       $LN21                      0040e404     * CIL library *:* CIL module *
 0001:0000d438       $LN19                      0040e438     * CIL library *:* CIL module *
 0001:0000e95d       __catch$??$_Insert_nohint@AAU?$pair@$$CBW4TKeyID@Key@Input@Common@@PAVICommand@Command@Controller@GUI@@@std@@PAU?$_Tree_node@U?$pair@$$CBW4TKeyID@Key@Input@Common@@PAVICommand@Command@Controller@GUI@@@std@@PAX@2@@?$_Tree@V?$_Tmap_traits@W4TKeyID@Key@Input@Common@@PAVICommand@Command@Controller@GUI@@U?$less@W4TKeyID@Key@Input@Common@@@std@@V?$allocator@U?$pair@$$CBW4TKeyID@Key@Input@Common@@PAVICommand@Command@Controller@GUI@@@std@@@std@@$0A@@std@@@std@@IAE?AU?$pair@V?$_Tree_iterator@V?$_Tree_val@U?$_Tree_simple_types@U?$pair@$$CBW4TKeyID@Key@Input@Common@@PAVICommand@Command@Controller@GUI@@@std@@@std@@@std@@@std@@_N@1@_NAAU?$pair@$$CBW4TKeyID@Key@Input@Common@@PAVICommand@Command@Controller@GUI@@@1@PAU?$_Tree_node@U?$pair@$$CBW4TKeyID@Key@Input@Common@@PAVICommand@Command@Controller@GUI@@@std@@PAX@1@@Z$0 0040f95d f i * CIL library *:* CIL module *
 0001:0000eb69       __catch$??$_Insert_hint@AAU?$pair@$$CBW4TKeyID@Key@Input@Common@@PAVICommand@Command@Controller@GUI@@@std@@PAU?$_Tree_node@U?$pair@$$CBW4TKeyID@Key@Input@Common@@PAVICommand@Command@Controller@GUI@@@std@@PAX@2@@?$_Tree@V?$_Tmap_traits@W4TKeyID@Key@Input@Common@@PAVICommand@Command@Controller@GUI@@U?$less@W4TKeyID@Key@Input@Common@@@std@@V?$allocator@U?$pair@$$CBW4TKeyID@Key@Input@Common@@PAVICommand@Command@Controller@GUI@@@std@@@std@@$0A@@std@@@std@@IAE?AV?$_Tree_iterator@V?$_Tree_val@U?$_Tree_simple_types@U?$pair@$$CBW4TKeyID@Key@Input@Common@@PAVICommand@Command@Controller@GUI@@@std@@@std@@@std@@@1@V?$_Tree_const_iterator@V?$_Tree_val@U?$_Tree_simple_types@U?$pair@$$CBW4TKeyID@Key@Input@Common@@PAVICommand@Command@Controller@GUI@@@std@@@std@@@std@@@1@AAU?$pair@$$CBW4TKeyID@Key@Input@Common@@PAVICommand@Command@Controller@GUI@@@1@PAU?$_Tree_node@U?$pair@$$CBW4TKeyID@Key@Input@Common@@PAVICommand@Command@Controller@GUI@@@std@@PAX@1@@Z$0 0040fb69 f i * CIL library *:* CIL module *
 0001:0001080f       __catch$??0?$list@V?$basic_string@DU?$char_traits@D@std@@V?$allocator@D@2@@std@@V?$allocator@V?$basic_string@DU?$char_traits@D@std@@V?$allocator@D@2@@std@@@2@@std@@QAE@ABV01@@Z$0 0041180f f i * CIL library *:* CIL module *
 0001:00010969       __catch$??$?5DU?$char_traits@D@std@@V?$allocator@D@1@@std@@YAAAV?$basic_istream@DU?$char_traits@D@std@@@0@$$QAV10@AAV?$basic_string@DU?$char_traits@D@std@@V?$allocator@D@2@@0@@Z$0 00411969 f i * CIL library *:* CIL module *
 0001:00010a62       __catch$??$_Buynode@U?$pair@V?$basic_string@DU?$char_traits@D@std@@V?$allocator@D@2@@std@@UTBluePrint@CEntityFactory@Logic@@@std@@@?$_Tree_buy@U?$pair@$$CBV?$basic_string@DU?$char_traits@D@std@@V?$allocator@D@2@@std@@UTBluePrint@CEntityFactory@Logic@@@std@@V?$allocator@U?$pair@$$CBV?$basic_string@DU?$char_traits@D@std@@V?$allocator@D@2@@std@@UTBluePrint@CEntityFactory@Logic@@@std@@@2@@std@@QAEPAU?$_Tree_node@U?$pair@$$CBV?$basic_string@DU?$char_traits@D@std@@V?$allocator@D@2@@std@@UTBluePrint@CEntityFactory@Logic@@@std@@PAX@1@$$QAU?$pair@V?$basic_string@DU?$char_traits@D@std@@V?$allocator@D@2@@std@@UTBluePrint@CEntityFactory@Logic@@@1@@Z$0 00411a62 f i * CIL library *:* CIL module *
 0001:00010c52       __catch$??$_Insert_nohint@AAU?$pair@$$CBV?$basic_string@DU?$char_traits@D@std@@V?$allocator@D@2@@std@@UTBluePrint@CEntityFactory@Logic@@@std@@PAU?$_Tree_node@U?$pair@$$CBV?$basic_string@DU?$char_traits@D@std@@V?$allocator@D@2@@std@@UTBluePrint@CEntityFactory@Logic@@@std@@PAX@2@@?$_Tree@V?$_Tmap_traits@V?$basic_string@DU?$char_traits@D@std@@V?$allocator@D@2@@std@@UTBluePrint@CEntityFactory@Logic@@U?$less@V?$basic_string@DU?$char_traits@D@std@@V?$allocator@D@2@@std@@@2@V?$allocator@U?$pair@$$CBV?$basic_string@DU?$char_traits@D@std@@V?$allocator@D@2@@std@@UTBluePrint@CEntityFactory@Logic@@@std@@@2@$0A@@std@@@std@@IAE?AU?$pair@V?$_Tree_iterator@V?$_Tree_val@U?$_Tree_simple_types@U?$pair@$$CBV?$basic_string@DU?$char_traits@D@std@@V?$allocator@D@2@@std@@UTBluePrint@CEntityFactory@Logic@@@std@@@std@@@std@@@std@@_N@1@_NAAU?$pair@$$CBV?$basic_string@DU?$char_traits@D@std@@V?$allocator@D@2@@std@@UTBluePrint@CEntityFactory@Logic@@@1@PAU?$_Tree_node@U?$pair@$$CBV?$basic_string@DU?$char_traits@D@std@@V?$allocator@D@2@@std@@UTBluePrint@CEntityFactory@Logic@@@std@@PAX@1@@Z$0 00411c52 f i * CIL library *:* CIL module *
 0001:00010d16       __catch$??$_Buynode@ABV?$basic_string@DU?$char_traits@D@std@@V?$allocator@D@2@@std@@@?$_List_buy@V?$basic_string@DU?$char_traits@D@std@@V?$allocator@D@2@@std@@V?$allocator@V?$basic_string@DU?$char_traits@D@std@@V?$allocator@D@2@@std@@@2@@std@@QAEPAU?$_List_node@V?$basic_string@DU?$char_traits@D@std@@V?$allocator@D@2@@std@@PAX@1@PAU21@0ABV?$basic_string@DU?$char_traits@D@std@@V?$allocator@D@2@@1@@Z$0 00411d16 f i * CIL library *:* CIL module *
 0001:000110e7       __catch$??$_Insert_range@V?$_List_const_iterator@V?$_List_val@U?$_List_simple_types@V?$basic_string@DU?$char_traits@D@std@@V?$allocator@D@2@@std@@@std@@@std@@@std@@@?$list@V?$basic_string@DU?$char_traits@D@std@@V?$allocator@D@2@@std@@V?$allocator@V?$basic_string@DU?$char_traits@D@std@@V?$allocator@D@2@@std@@@2@@std@@QAEXV?$_List_unchecked_const_iterator@V?$_List_val@U?$_List_simple_types@V?$basic_string@DU?$char_traits@D@std@@V?$allocator@D@2@@std@@@std@@@std@@U_Iterator_base0@2@@1@V?$_List_const_iterator@V?$_List_val@U?$_List_simple_types@V?$basic_string@DU?$char_traits@D@std@@V?$allocator@D@2@@std@@@std@@@std@@@1@1Uforward_iterator_tag@1@@Z$0 004120e7 f i * CIL library *:* CIL module *
 0001:0001206f       __catch$??$_Buynode@AAU?$pair@V?$basic_string@DU?$char_traits@D@std@@V?$allocator@D@2@@std@@P6APAVIComponent@Logic@@XZ@std@@@?$_Tree_buy@U?$pair@$$CBV?$basic_string@DU?$char_traits@D@std@@V?$allocator@D@2@@std@@P6APAVIComponent@Logic@@XZ@std@@V?$allocator@U?$pair@$$CBV?$basic_string@DU?$char_traits@D@std@@V?$allocator@D@2@@std@@P6APAVIComponent@Logic@@XZ@std@@@2@@std@@QAEPAU?$_Tree_node@U?$pair@$$CBV?$basic_string@DU?$char_traits@D@std@@V?$allocator@D@2@@std@@P6APAVIComponent@Logic@@XZ@std@@PAX@1@AAU?$pair@V?$basic_string@DU?$char_traits@D@std@@V?$allocator@D@2@@std@@P6APAVIComponent@Logic@@XZ@1@@Z$0 0041306f f i * CIL library *:* CIL module *
 0001:000126c2       __catch$?createGraphicEntity@CGraphics@Logic@@MAEPAVEntity@Ogre@@PBVCMapEntity@Map@@@Z$0 004136c2 f   * CIL library *:* CIL module *
 0001:000127f0       ?yaw@Math@Util@Common@@YAXMAAVMatrix4@Ogre@@@Z 004137f0 f   * CIL library *:* CIL module *
 0001:00013868       $LN79                      00414868     * CIL library *:* CIL module *
 0001:00013e1f       __catch$??0?$list@PAVCMapEntity@Map@@V?$allocator@PAVCMapEntity@Map@@@std@@@std@@QAE@ABV01@@Z$0 00414e1f f i * CIL library *:* CIL module *
 0001:00013fcd       __catch$??$_Insert_nohint@AAU?$pair@$$CBIPAVCEntity@Logic@@@std@@PAU?$_Tree_node@U?$pair@$$CBIPAVCEntity@Logic@@@std@@PAX@2@@?$_Tree@V?$_Tmap_traits@IPAVCEntity@Logic@@U?$less@I@std@@V?$allocator@U?$pair@$$CBIPAVCEntity@Logic@@@std@@@4@$0A@@std@@@std@@IAE?AU?$pair@V?$_Tree_iterator@V?$_Tree_val@U?$_Tree_simple_types@U?$pair@$$CBIPAVCEntity@Logic@@@std@@@std@@@std@@@std@@_N@1@_NAAU?$pair@$$CBIPAVCEntity@Logic@@@1@PAU?$_Tree_node@U?$pair@$$CBIPAVCEntity@Logic@@@std@@PAX@1@@Z$0 00414fcd f i * CIL library *:* CIL module *
 0001:0001409b       __catch$??$_Insert_range@V?$_List_const_iterator@V?$_List_val@U?$_List_simple_types@PAVCMapEntity@Map@@@std@@@std@@@std@@@?$list@PAVCMapEntity@Map@@V?$allocator@PAVCMapEntity@Map@@@std@@@std@@QAEXV?$_List_unchecked_const_iterator@V?$_List_val@U?$_List_simple_types@PAVCMapEntity@Map@@@std@@@std@@U_Iterator_base0@2@@1@V?$_List_const_iterator@V?$_List_val@U?$_List_simple_types@PAVCMapEntity@Map@@@std@@@std@@@1@1Uforward_iterator_tag@1@@Z$0 0041509b f i * CIL library *:* CIL module *
 0001:0001494a       __catch$??$assign@V?$_List_const_iterator@V?$_List_val@U?$_List_simple_types@PAVCMapEntity@Map@@@std@@@std@@@std@@@?$list@PAVCMapEntity@Map@@V?$allocator@PAVCMapEntity@Map@@@std@@@std@@QAEXV?$_List_const_iterator@V?$_List_val@U?$_List_simple_types@PAVCMapEntity@Map@@@std@@@std@@@1@0@Z$0 0041594a f i * CIL library *:* CIL module *
 0001:0001513e       __catch$??$_Buynode@AAU?$pair@V?$basic_string@DU?$char_traits@D@std@@V?$allocator@D@2@@std@@V12@@std@@@?$_Tree_buy@U?$pair@$$CBV?$basic_string@DU?$char_traits@D@std@@V?$allocator@D@2@@std@@V12@@std@@V?$allocator@U?$pair@$$CBV?$basic_string@DU?$char_traits@D@std@@V?$allocator@D@2@@std@@V12@@std@@@2@@std@@QAEPAU?$_Tree_node@U?$pair@$$CBV?$basic_string@DU?$char_traits@D@std@@V?$allocator@D@2@@std@@V12@@std@@PAX@1@AAU?$pair@V?$basic_string@DU?$char_traits@D@std@@V?$allocator@D@2@@std@@V12@@1@@Z$0 0041613e f i * CIL library *:* CIL module *
 0001:000183d4       __catch$?_Init@?$numpunct@D@std@@IAEXABV_Locinfo@2@_N@Z$0 004193d4 f i * CIL library *:* CIL module *
 0001:00018612       __catch$??$_Insert_hint@AAU?$pair@$$CBV?$basic_string@DU?$char_traits@D@std@@V?$allocator@D@2@@std@@_J@std@@PAU?$_Tree_node@U?$pair@$$CBV?$basic_string@DU?$char_traits@D@std@@V?$allocator@D@2@@std@@_J@std@@PAX@2@@?$_Tree@V?$_Tmap_traits@V?$basic_string@DU?$char_traits@D@std@@V?$allocator@D@2@@std@@_JU?$less@V?$basic_string@DU?$char_traits@D@std@@V?$allocator@D@2@@std@@@2@V?$allocator@U?$pair@$$CBV?$basic_string@DU?$char_traits@D@std@@V?$allocator@D@2@@std@@_J@std@@@2@$0A@@std@@@std@@IAE?AV?$_Tree_iterator@V?$_Tree_val@U?$_Tree_simple_types@U?$pair@$$CBV?$basic_string@DU?$char_traits@D@std@@V?$allocator@D@2@@std@@_J@std@@@std@@@std@@@1@V?$_Tree_const_iterator@V?$_Tree_val@U?$_Tree_simple_types@U?$pair@$$CBV?$basic_string@DU?$char_traits@D@std@@V?$allocator@D@2@@std@@_J@std@@@std@@@std@@@1@AAU?$pair@$$CBV?$basic_string@DU?$char_traits@D@std@@V?$allocator@D@2@@std@@_J@1@PAU?$_Tree_node@U?$pair@$$CBV?$basic_string@DU?$char_traits@D@std@@V?$allocator@D@2@@std@@_J@std@@PAX@1@@Z$0 00419612 f i * CIL library *:* CIL module *
 0001:00018ccf       __catch$??$_Insert_nohint@AAU?$pair@$$CBV?$basic_string@DU?$char_traits@D@std@@V?$allocator@D@2@@std@@_J@std@@PAU?$_Tree_node@U?$pair@$$CBV?$basic_string@DU?$char_traits@D@std@@V?$allocator@D@2@@std@@_J@std@@PAX@2@@?$_Tree@V?$_Tmap_traits@V?$basic_string@DU?$char_traits@D@std@@V?$allocator@D@2@@std@@_JU?$less@V?$basic_string@DU?$char_traits@D@std@@V?$allocator@D@2@@std@@@2@V?$allocator@U?$pair@$$CBV?$basic_string@DU?$char_traits@D@std@@V?$allocator@D@2@@std@@_J@std@@@2@$0A@@std@@@std@@IAE?AU?$pair@V?$_Tree_iterator@V?$_Tree_val@U?$_Tree_simple_types@U?$pair@$$CBV?$basic_string@DU?$char_traits@D@std@@V?$allocator@D@2@@std@@_J@std@@@std@@@std@@@std@@_N@1@_NAAU?$pair@$$CBV?$basic_string@DU?$char_traits@D@std@@V?$allocator@D@2@@std@@_J@1@PAU?$_Tree_node@U?$pair@$$CBV?$basic_string@DU?$char_traits@D@std@@V?$allocator@D@2@@std@@_J@std@@PAX@1@@Z$0 00419ccf f i * CIL library *:* CIL module *
 0001:000199ec       $LN289                     0041a9ec     * CIL library *:* CIL module *
 0001:000199fc       $LN281                     0041a9fc     * CIL library *:* CIL module *
 0001:00019dc8       $LN243                     0041adc8     * CIL library *:* CIL module *
 0001:00019dd0       $LN238                     0041add0     * CIL library *:* CIL module *
 0001:0001b430       $LN1492                    0041c430     * CIL library *:* CIL module *
 0001:0001cfd0       __catch$??$insert@V?$_Deque_const_iterator@V?$_Deque_val@U?$_Deque_simple_types@H@std@@@std@@@std@@@?$deque@HV?$allocator@H@std@@@std@@QAE?AV?$_Deque_iterator@V?$_Deque_val@U?$_Deque_simple_types@H@std@@@std@@@1@V?$_Deque_const_iterator@V?$_Deque_val@U?$_Deque_simple_types@H@std@@@std@@@1@00@Z$0 0041dfd0 f i * CIL library *:* CIL module *
 0001:0001d0c8       __catch$??$insert@V?$_Deque_const_iterator@V?$_Deque_val@U?$_Deque_simple_types@H@std@@@std@@@std@@@?$deque@HV?$allocator@H@std@@@std@@QAE?AV?$_Deque_iterator@V?$_Deque_val@U?$_Deque_simple_types@H@std@@@std@@@1@V?$_Deque_const_iterator@V?$_Deque_val@U?$_Deque_simple_types@H@std@@@std@@@1@00@Z$2 0041e0c8 f i * CIL library *:* CIL module *
 0001:0001d220       __catch$??$insert@V?$_Deque_const_iterator@V?$_Deque_val@U?$_Deque_simple_types@Tsemantic_type@CParser@Map@@@std@@@std@@@std@@@?$deque@Tsemantic_type@CParser@Map@@V?$allocator@Tsemantic_type@CParser@Map@@@std@@@std@@QAE?AV?$_Deque_iterator@V?$_Deque_val@U?$_Deque_simple_types@Tsemantic_type@CParser@Map@@@std@@@std@@@1@V?$_Deque_const_iterator@V?$_Deque_val@U?$_Deque_simple_types@Tsemantic_type@CParser@Map@@@std@@@std@@@1@00@Z$0 0041e220 f i * CIL library *:* CIL module *
 0001:0001d318       __catch$??$insert@V?$_Deque_const_iterator@V?$_Deque_val@U?$_Deque_simple_types@Tsemantic_type@CParser@Map@@@std@@@std@@@std@@@?$deque@Tsemantic_type@CParser@Map@@V?$allocator@Tsemantic_type@CParser@Map@@@std@@@std@@QAE?AV?$_Deque_iterator@V?$_Deque_val@U?$_Deque_simple_types@Tsemantic_type@CParser@Map@@@std@@@std@@@1@V?$_Deque_const_iterator@V?$_Deque_val@U?$_Deque_simple_types@Tsemantic_type@CParser@Map@@@std@@@std@@@1@00@Z$2 0041e318 f i * CIL library *:* CIL module *
 0001:0001d594       __catch$??$insert@V?$_Deque_const_iterator@V?$_Deque_val@U?$_Deque_simple_types@Vlocation@Map@@@std@@@std@@@std@@@?$deque@Vlocation@Map@@V?$allocator@Vlocation@Map@@@std@@@std@@QAE?AV?$_Deque_iterator@V?$_Deque_val@U?$_Deque_simple_types@Vlocation@Map@@@std@@@std@@@1@V?$_Deque_const_iterator@V?$_Deque_val@U?$_Deque_simple_types@Vlocation@Map@@@std@@@std@@@1@00@Z$0 0041e594 f i * CIL library *:* CIL module *
 0001:0001d67c       __catch$??$insert@V?$_Deque_const_iterator@V?$_Deque_val@U?$_Deque_simple_types@Vlocation@Map@@@std@@@std@@@std@@@?$deque@Vlocation@Map@@V?$allocator@Vlocation@Map@@@std@@@std@@QAE?AV?$_Deque_iterator@V?$_Deque_val@U?$_Deque_simple_types@Vlocation@Map@@@std@@@std@@@1@V?$_Deque_const_iterator@V?$_Deque_val@U?$_Deque_simple_types@Vlocation@Map@@@std@@@std@@@1@00@Z$2 0041e67c f i * CIL library *:* CIL module *
 0001:0001f5ac       $LN406                     004205ac     * CIL library *:* CIL module *
 0001:000200fc       __catch$??$?0V?$clone_impl@Ubad_alloc_@exception_detail@boost@@@exception_detail@boost@@@shared_count@detail@boost@@QAE@PAV?$clone_impl@Ubad_alloc_@exception_detail@boost@@@exception_detail@2@@Z$0 004210fc f i libboost_thread-vc110-mt-1_55:thread.obj
 0001:0002019c       __catch$??$?0V?$clone_impl@Ubad_exception_@exception_detail@boost@@@exception_detail@boost@@@shared_count@detail@boost@@QAE@PAV?$clone_impl@Ubad_exception_@exception_detail@boost@@@exception_detail@2@@Z$0 0042119c f i libboost_thread-vc110-mt-1_55:thread.obj
 0001:00021412       __catch$?call_once@boost@@YAXAAUonce_flag@1@P6AXXZ@Z$0 00422412 f i libboost_thread-vc110-mt-1_55:thread.obj
 0001:00021c90       ?on_tls_prepare@?A0x157c5c39@@YAHXZ 00422c90 f   libboost_thread-vc110-mt-1_55:tss_pe.obj
 0001:00021ca0       ?on_process_init@?A0x157c5c39@@YAHXZ 00422ca0 f   libboost_thread-vc110-mt-1_55:tss_pe.obj
 0001:00021cc0       ?on_process_term@?A0x157c5c39@@YAHXZ 00422cc0 f   libboost_thread-vc110-mt-1_55:tss_pe.obj
 0001:00021cd0       ?on_tls_callback@?A0x157c5c39@@YGXPAUHINSTANCE__@@KPAX@Z 00422cd0 f   libboost_thread-vc110-mt-1_55:tss_pe.obj
 0001:00022558       $LN112                     00423558     libboost_system-vc110-mt-1_55:error_code.obj
 0001:000225a0       $LN108                     004235a0     libboost_system-vc110-mt-1_55:error_code.obj
 0001:00022678       $LN113                     00423678     libboost_system-vc110-mt-1_55:error_code.obj
 0001:00022688       $LN109                     00423688     libboost_system-vc110-mt-1_55:error_code.obj
 0001:0002269c       $LN114                     0042369c     libboost_system-vc110-mt-1_55:error_code.obj
 0001:00022718       $LN110                     00423718     libboost_system-vc110-mt-1_55:error_code.obj
 0001:00022e6e       _pre_c_init                00423e6e f   MSVCRT:crtexew.obj
 0001:00022f27       _pre_cpp_init              00423f27 f   MSVCRT:crtexew.obj
 0001:00022f7c       ___tmainCRTStartup         00423f7c f   MSVCRT:crtexew.obj
 0001:00023210       $$000000                   00424210     MSVCRT:lldiv.obj
 0001:000232c0       $$000000                   004242c0     MSVCRT:llmul.obj
 0001:00023300       $$000000                   00424300     MSVCRT:llrem.obj
 0001:000233c0       $$000000                   004243c0     MSVCRT:ulldiv.obj
 0001:00023580       $$000000                   00424580     MSVCRT:sehprolg4.obj
 0001:0002398f       __catch$?_Copy@?$basic_string@_WU?$char_traits@_W@std@@V?$allocator@_W@2@@std@@QAEXII@Z$0 0042498f f i libboost_log-vc110-mt-1_55:record_ostream.obj
 0001:000239cc       __catch$?_Copy@?$basic_string@_WU?$char_traits@_W@std@@V?$allocator@_W@2@@std@@QAEXII@Z$1 004249cc f i libboost_log-vc110-mt-1_55:record_ostream.obj
 0001:00023d30       $$000000                   00424d30     MSVCRT:chkstk.obj
 0001:00023d70       __ehhandler$??$?0V?$clone_impl@Ubad_alloc_@exception_detail@boost@@@exception_detail@boost@@@shared_count@detail@boost@@QAE@PAV?$clone_impl@Ubad_alloc_@exception_detail@boost@@@exception_detail@2@@Z 00424d70 f   libboost_thread-vc110-mt-1_55:thread.obj
 0001:00023d90       __ehhandler$??$?0V?$clone_impl@Ubad_exception_@exception_detail@boost@@@exception_detail@boost@@@shared_count@detail@boost@@QAE@PAV?$clone_impl@Ubad_exception_@exception_detail@boost@@@exception_detail@2@@Z 00424d90 f   libboost_thread-vc110-mt-1_55:thread.obj
 0001:00023db0       __unwindfunclet$??$get_static_exception_object@Ubad_alloc_@exception_detail@boost@@@exception_detail@boost@@YA?AVexception_ptr@1@XZ$6 00424db0 f   libboost_thread-vc110-mt-1_55:thread.obj
 0001:00023db8       __unwindfunclet$??$get_static_exception_object@Ubad_alloc_@exception_detail@boost@@@exception_detail@boost@@YA?AVexception_ptr@1@XZ$0 00424db8 f   libboost_thread-vc110-mt-1_55:thread.obj
 0001:00023dc0       __unwindfunclet$??$get_static_exception_object@Ubad_alloc_@exception_detail@boost@@@exception_detail@boost@@YA?AVexception_ptr@1@XZ$1 00424dc0 f   libboost_thread-vc110-mt-1_55:thread.obj
 0001:00023dc8       __unwindfunclet$??$get_static_exception_object@Ubad_alloc_@exception_detail@boost@@@exception_detail@boost@@YA?AVexception_ptr@1@XZ$2 00424dc8 f   libboost_thread-vc110-mt-1_55:thread.obj
 0001:00023dd6       __unwindfunclet$??$get_static_exception_object@Ubad_alloc_@exception_detail@boost@@@exception_detail@boost@@YA?AVexception_ptr@1@XZ$3 00424dd6 f   libboost_thread-vc110-mt-1_55:thread.obj
 0001:00023de1       __unwindfunclet$??$get_static_exception_object@Ubad_alloc_@exception_detail@boost@@@exception_detail@boost@@YA?AVexception_ptr@1@XZ$8 00424de1 f   libboost_thread-vc110-mt-1_55:thread.obj
 0001:00023de9       __ehhandler$??$get_static_exception_object@Ubad_alloc_@exception_detail@boost@@@exception_detail@boost@@YA?AVexception_ptr@1@XZ 00424de9 f   libboost_thread-vc110-mt-1_55:thread.obj
 0001:00023e10       __unwindfunclet$??$get_static_exception_object@Ubad_exception_@exception_detail@boost@@@exception_detail@boost@@YA?AVexception_ptr@1@XZ$6 00424e10 f   libboost_thread-vc110-mt-1_55:thread.obj
 0001:00023e18       __unwindfunclet$??$get_static_exception_object@Ubad_exception_@exception_detail@boost@@@exception_detail@boost@@YA?AVexception_ptr@1@XZ$0 00424e18 f   libboost_thread-vc110-mt-1_55:thread.obj
 0001:00023e20       __unwindfunclet$??$get_static_exception_object@Ubad_exception_@exception_detail@boost@@@exception_detail@boost@@YA?AVexception_ptr@1@XZ$1 00424e20 f   libboost_thread-vc110-mt-1_55:thread.obj
 0001:00023e28       __unwindfunclet$??$get_static_exception_object@Ubad_exception_@exception_detail@boost@@@exception_detail@boost@@YA?AVexception_ptr@1@XZ$2 00424e28 f   libboost_thread-vc110-mt-1_55:thread.obj
 0001:00023e36       __unwindfunclet$??$get_static_exception_object@Ubad_exception_@exception_detail@boost@@@exception_detail@boost@@YA?AVexception_ptr@1@XZ$3 00424e36 f   libboost_thread-vc110-mt-1_55:thread.obj
 0001:00023e41       __unwindfunclet$??$get_static_exception_object@Ubad_exception_@exception_detail@boost@@@exception_detail@boost@@YA?AVexception_ptr@1@XZ$8 00424e41 f   libboost_thread-vc110-mt-1_55:thread.obj
 0001:00023e49       __ehhandler$??$get_static_exception_object@Ubad_exception_@exception_detail@boost@@@exception_detail@boost@@YA?AVexception_ptr@1@XZ 00424e49 f   libboost_thread-vc110-mt-1_55:thread.obj
 0001:00023e70       __unwindfunclet$??0?$clone_impl@Ubad_alloc_@exception_detail@boost@@@exception_detail@boost@@AAE@ABV012@Uclone_tag@012@@Z$0 00424e70 f   libboost_thread-vc110-mt-1_55:thread.obj
 0001:00023e70       __unwindfunclet$??0?$clone_impl@Ubad_alloc_@exception_detail@boost@@@exception_detail@boost@@QAE@ABUbad_alloc_@12@@Z$0 00424e70 f   libboost_thread-vc110-mt-1_55:thread.obj
 0001:00023e8c       __unwindfunclet$??0?$clone_impl@Ubad_alloc_@exception_detail@boost@@@exception_detail@boost@@AAE@ABV012@Uclone_tag@012@@Z$2 00424e8c f   libboost_thread-vc110-mt-1_55:thread.obj
 0001:00023e8c       __unwindfunclet$??0?$clone_impl@Ubad_alloc_@exception_detail@boost@@@exception_detail@boost@@QAE@ABUbad_alloc_@12@@Z$2 00424e8c f   libboost_thread-vc110-mt-1_55:thread.obj
 0001:00023e94       __unwindfunclet$??0?$clone_impl@Ubad_alloc_@exception_detail@boost@@@exception_detail@boost@@AAE@ABV012@Uclone_tag@012@@Z$1 00424e94 f   libboost_thread-vc110-mt-1_55:thread.obj
 0001:00023e94       __unwindfunclet$??0?$clone_impl@Ubad_alloc_@exception_detail@boost@@@exception_detail@boost@@QAE@ABUbad_alloc_@12@@Z$1 00424e94 f   libboost_thread-vc110-mt-1_55:thread.obj
 0001:00023e9c       __ehhandler$??0?$clone_impl@Ubad_alloc_@exception_detail@boost@@@exception_detail@boost@@QAE@ABUbad_alloc_@12@@Z 00424e9c f   libboost_thread-vc110-mt-1_55:thread.obj
 0001:00023e9c       __ehhandler$??0?$clone_impl@Ubad_alloc_@exception_detail@boost@@@exception_detail@boost@@AAE@ABV012@Uclone_tag@012@@Z 00424e9c f   libboost_thread-vc110-mt-1_55:thread.obj
 0001:00023ec0       __unwindfunclet$??0?$clone_impl@Ubad_alloc_@exception_detail@boost@@@exception_detail@boost@@QAE@ABV012@@Z$0 00424ec0 f   libboost_thread-vc110-mt-1_55:thread.obj
 0001:00023ec0       __unwindfunclet$??0?$clone_impl@Ubad_exception_@exception_detail@boost@@@exception_detail@boost@@QAE@ABV012@@Z$0 00424ec0 f   libboost_thread-vc110-mt-1_55:thread.obj
 0001:00023edc       __unwindfunclet$??0?$clone_impl@Ubad_alloc_@exception_detail@boost@@@exception_detail@boost@@QAE@ABV012@@Z$2 00424edc f   libboost_thread-vc110-mt-1_55:thread.obj
 0001:00023edc       __unwindfunclet$??0?$clone_impl@Ubad_exception_@exception_detail@boost@@@exception_detail@boost@@QAE@ABV012@@Z$2 00424edc f   libboost_thread-vc110-mt-1_55:thread.obj
 0001:00023ee4       __ehhandler$??0?$clone_impl@Ubad_exception_@exception_detail@boost@@@exception_detail@boost@@QAE@ABV012@@Z 00424ee4 f   libboost_thread-vc110-mt-1_55:thread.obj
 0001:00023ee4       __ehhandler$??0?$clone_impl@Ubad_alloc_@exception_detail@boost@@@exception_detail@boost@@QAE@ABV012@@Z 00424ee4 f   libboost_thread-vc110-mt-1_55:thread.obj
 0001:00023f00       __unwindfunclet$??0?$clone_impl@Ubad_exception_@exception_detail@boost@@@exception_detail@boost@@QAE@ABUbad_exception_@12@@Z$0 00424f00 f   libboost_thread-vc110-mt-1_55:thread.obj
 0001:00023f00       __unwindfunclet$??0?$clone_impl@Ubad_exception_@exception_detail@boost@@@exception_detail@boost@@AAE@ABV012@Uclone_tag@012@@Z$0 00424f00 f   libboost_thread-vc110-mt-1_55:thread.obj
 0001:00023f1c       __unwindfunclet$??0?$clone_impl@Ubad_exception_@exception_detail@boost@@@exception_detail@boost@@QAE@ABUbad_exception_@12@@Z$2 00424f1c f   libboost_thread-vc110-mt-1_55:thread.obj
 0001:00023f1c       __unwindfunclet$??0?$clone_impl@Ubad_exception_@exception_detail@boost@@@exception_detail@boost@@AAE@ABV012@Uclone_tag@012@@Z$2 00424f1c f   libboost_thread-vc110-mt-1_55:thread.obj
 0001:00023f24       __unwindfunclet$??0?$clone_impl@Ubad_exception_@exception_detail@boost@@@exception_detail@boost@@QAE@ABUbad_exception_@12@@Z$1 00424f24 f   libboost_thread-vc110-mt-1_55:thread.obj
 0001:00023f24       __unwindfunclet$??0?$clone_impl@Ubad_exception_@exception_detail@boost@@@exception_detail@boost@@AAE@ABV012@Uclone_tag@012@@Z$1 00424f24 f   libboost_thread-vc110-mt-1_55:thread.obj
 0001:00023f2c       __ehhandler$??0?$clone_impl@Ubad_exception_@exception_detail@boost@@@exception_detail@boost@@AAE@ABV012@Uclone_tag@012@@Z 00424f2c f   libboost_thread-vc110-mt-1_55:thread.obj
 0001:00023f2c       __ehhandler$??0?$clone_impl@Ubad_exception_@exception_detail@boost@@@exception_detail@boost@@QAE@ABUbad_exception_@12@@Z 00424f2c f   libboost_thread-vc110-mt-1_55:thread.obj
 0001:00023f50       __unwindfunclet$??0bad_alloc_@exception_detail@boost@@QAE@ABU012@@Z$0 00424f50 f   libboost_thread-vc110-mt-1_55:thread.obj
 0001:00023f50       __unwindfunclet$??0bad_exception_@exception_detail@boost@@QAE@ABU012@@Z$0 00424f50 f   libboost_thread-vc110-mt-1_55:thread.obj
 0001:00023f58       __ehhandler$??0bad_alloc_@exception_detail@boost@@QAE@ABU012@@Z 00424f58 f   libboost_thread-vc110-mt-1_55:thread.obj
 0001:00023f58       __ehhandler$??0bad_exception_@exception_detail@boost@@QAE@ABU012@@Z 00424f58 f   libboost_thread-vc110-mt-1_55:thread.obj
 0001:00023f80       __unwindfunclet$?call_once@boost@@YAXAAUonce_flag@1@P6AXXZ@Z$2 00424f80 f   libboost_thread-vc110-mt-1_55:thread.obj
 0001:00023f88       __ehhandler$?call_once@boost@@YAXAAUonce_flag@1@P6AXXZ@Z 00424f88 f   libboost_thread-vc110-mt-1_55:thread.obj
 0001:00023fb0       __unwindfunclet$?clone@?$clone_impl@Ubad_exception_@exception_detail@boost@@@exception_detail@boost@@EBEPBVclone_base@23@XZ$0 00424fb0 f   libboost_thread-vc110-mt-1_55:thread.obj
 0001:00023fb0       __unwindfunclet$?clone@?$clone_impl@Ubad_alloc_@exception_detail@boost@@@exception_detail@boost@@EBEPBVclone_base@23@XZ$0 00424fb0 f   libboost_thread-vc110-mt-1_55:thread.obj
 0001:00023fbb       __ehhandler$?clone@?$clone_impl@Ubad_alloc_@exception_detail@boost@@@exception_detail@boost@@EBEPBVclone_base@23@XZ 00424fbb f   libboost_thread-vc110-mt-1_55:thread.obj
 0001:00023fbb       __ehhandler$?clone@?$clone_impl@Ubad_exception_@exception_detail@boost@@@exception_detail@boost@@EBEPBVclone_base@23@XZ 00424fbb f   libboost_thread-vc110-mt-1_55:thread.obj
 0001:00023fe0       __unwindfunclet$?run_thread_exit_callbacks@?A0xc3b1390f@boost@@YAXXZ$0 00424fe0 f   libboost_thread-vc110-mt-1_55:thread.obj
 0001:00023fe8       __ehhandler$?run_thread_exit_callbacks@?A0xc3b1390f@boost@@YAXXZ 00424fe8 f   libboost_thread-vc110-mt-1_55:thread.obj
 0001:00024010       __unwindfunclet$??__Eposix_category@system@boost@@YAXXZ$0 00425010 f   libboost_system-vc110-mt-1_55:error_code.obj
 0001:00024010       __unwindfunclet$?make_error_condition@errc@system@boost@@YA?AVerror_condition@23@W4errc_t@123@@Z$0 00425010 f   libboost_system-vc110-mt-1_55:error_code.obj
 0001:00024010       __unwindfunclet$?generic_category@system@boost@@YAABVerror_category@12@XZ$0 00425010 f   libboost_system-vc110-mt-1_55:error_code.obj
 0001:00024010       __unwindfunclet$??__Eerrno_ecat@system@boost@@YAXXZ$0 00425010 f   libboost_system-vc110-mt-1_55:error_code.obj
 0001:0002401e       __ehhandler$??__Eerrno_ecat@system@boost@@YAXXZ 0042501e f   libboost_system-vc110-mt-1_55:error_code.obj
 0001:0002401e       __ehhandler$?generic_category@system@boost@@YAABVerror_category@12@XZ 0042501e f   libboost_system-vc110-mt-1_55:error_code.obj
 0001:0002401e       __ehhandler$??__Eposix_category@system@boost@@YAXXZ 0042501e f   libboost_system-vc110-mt-1_55:error_code.obj
 0001:0002401e       __ehhandler$?make_error_condition@errc@system@boost@@YA?AVerror_condition@23@W4errc_t@123@@Z 0042501e f   libboost_system-vc110-mt-1_55:error_code.obj
 0001:00024040       __unwindfunclet$?default_error_condition@system_error_category@?A0xeba5f5ee@system@boost@@UBE?AVerror_condition@34@H@Z$0 00425040 f   libboost_system-vc110-mt-1_55:error_code.obj
 0001:0002404e       __unwindfunclet$?default_error_condition@system_error_category@?A0xeba5f5ee@system@boost@@UBE?AVerror_condition@34@H@Z$1 0042504e f   libboost_system-vc110-mt-1_55:error_code.obj
 0001:0002405c       __ehhandler$?default_error_condition@system_error_category@?A0xeba5f5ee@system@boost@@UBE?AVerror_condition@34@H@Z 0042505c f   libboost_system-vc110-mt-1_55:error_code.obj
 0001:00024080       __unwindfunclet$?message@generic_error_category@?A0xeba5f5ee@system@boost@@UBE?AV?$basic_string@DU?$char_traits@D@std@@V?$allocator@D@2@@std@@H@Z$0 00425080 f   libboost_system-vc110-mt-1_55:error_code.obj
 0001:0002408e       __unwindfunclet$?message@generic_error_category@?A0xeba5f5ee@system@boost@@UBE?AV?$basic_string@DU?$char_traits@D@std@@V?$allocator@D@2@@std@@H@Z$1 0042508e f   libboost_system-vc110-mt-1_55:error_code.obj
 0001:000240a7       __ehhandler$?message@generic_error_category@?A0xeba5f5ee@system@boost@@UBE?AV?$basic_string@DU?$char_traits@D@std@@V?$allocator@D@2@@std@@H@Z 004250a7 f   libboost_system-vc110-mt-1_55:error_code.obj
 0001:000240d0       __unwindfunclet$?message@system_error_category@?A0xeba5f5ee@system@boost@@UBE?AV?$basic_string@DU?$char_traits@D@std@@V?$allocator@D@2@@std@@H@Z$0 004250d0 f   libboost_system-vc110-mt-1_55:error_code.obj
 0001:000240d8       __unwindfunclet$?message@system_error_category@?A0xeba5f5ee@system@boost@@UBE?AV?$basic_string@DU?$char_traits@D@std@@V?$allocator@D@2@@std@@H@Z$1 004250d8 f   libboost_system-vc110-mt-1_55:error_code.obj
 0001:000240f1       __unwindfunclet$?message@system_error_category@?A0xeba5f5ee@system@boost@@UBE?AV?$basic_string@DU?$char_traits@D@std@@V?$allocator@D@2@@std@@H@Z$2 004250f1 f   libboost_system-vc110-mt-1_55:error_code.obj
 0001:000240f9       __ehhandler$?message@system_error_category@?A0xeba5f5ee@system@boost@@UBE?AV?$basic_string@DU?$char_traits@D@std@@V?$allocator@D@2@@std@@H@Z 004250f9 f   libboost_system-vc110-mt-1_55:error_code.obj
 0001:00024130       __unwindfunclet$?system_category@system@boost@@YAABVerror_category@12@XZ$0 00425130 f   libboost_system-vc110-mt-1_55:error_code.obj
 0001:00024130       __unwindfunclet$??__Ethrows@system@boost@@YAXXZ$0 00425130 f   libboost_system-vc110-mt-1_55:error_code.obj
 0001:00024130       __unwindfunclet$??__Enative_ecat@system@boost@@YAXXZ$0 00425130 f   libboost_system-vc110-mt-1_55:error_code.obj
 0001:0002413e       __ehhandler$?system_category@system@boost@@YAABVerror_category@12@XZ 0042513e f   libboost_system-vc110-mt-1_55:error_code.obj
 0001:0002413e       __ehhandler$??__Ethrows@system@boost@@YAXXZ 0042513e f   libboost_system-vc110-mt-1_55:error_code.obj
 0001:0002413e       __ehhandler$??__Enative_ecat@system@boost@@YAXXZ 0042513e f   libboost_system-vc110-mt-1_55:error_code.obj
 0001:00024160       __ehhandler$?_Copy@?$basic_string@_WU?$char_traits@_W@std@@V?$allocator@_W@2@@std@@QAEXII@Z 00425160 f   libboost_log-vc110-mt-1_55:record_ostream.obj
 0001:00024180       __ehhandler$??$_Insert_nohint@AAU?$pair@$$CBV?$basic_string@DU?$char_traits@D@std@@V?$allocator@D@2@@std@@V12@@std@@PAU?$_Tree_node@U?$pair@$$CBV?$basic_string@DU?$char_traits@D@std@@V?$allocator@D@2@@std@@V12@@std@@PAX@2@@?$_Tree@V?$_Tmap_traits@V?$basic_string@DU?$char_traits@D@std@@V?$allocator@D@2@@std@@V12@U?$less@V?$basic_string@DU?$char_traits@D@std@@V?$allocator@D@2@@std@@@2@V?$allocator@U?$pair@$$CBV?$basic_string@DU?$char_traits@D@std@@V?$allocator@D@2@@std@@V12@@std@@@2@$00@std@@@std@@IAE?AU?$pair@V?$_Tree_iterator@V?$_Tree_val@U?$_Tree_simple_types@U?$pair@$$CBV?$basic_string@DU?$char_traits@D@std@@V?$allocator@D@2@@std@@V12@@std@@@std@@@std@@@std@@_N@1@_NAAU?$pair@$$CBV?$basic_string@DU?$char_traits@D@std@@V?$allocator@D@2@@std@@V12@@1@PAU?$_Tree_node@U?$pair@$$CBV?$basic_string@DU?$char_traits@D@std@@V?$allocator@D@2@@std@@V12@@std@@PAX@1@@Z 00425180 f   * CIL library *:* CIL module *
 0001:000241a0       __ehhandler$?_Copy@?$basic_string@DU?$char_traits@D@std@@V?$allocator@D@2@@std@@QAEXII@Z 004251a0 f   * CIL library *:* CIL module *
 0001:000241c0       __unwindfunclet$?init@C3DApplication@Application@@UAE_NXZ$0 004251c0 f   * CIL library *:* CIL module *
 0001:000241c8       __unwindfunclet$?init@C3DApplication@Application@@UAE_NXZ$1 004251c8 f   * CIL library *:* CIL module *
 0001:000241d4       __ehhandler$?init@C3DApplication@Application@@UAE_NXZ 004251d4 f   * CIL library *:* CIL module *
 0001:00024200       __unwindfunclet$?initCEGUI@C3DApplication@Application@@AAE_NXZ$0 00425200 f   * CIL library *:* CIL module *
 0001:0002420c       __unwindfunclet$?initCEGUI@C3DApplication@Application@@AAE_NXZ$1 0042520c f   * CIL library *:* CIL module *
 0001:00024218       __unwindfunclet$?initCEGUI@C3DApplication@Application@@AAE_NXZ$2 00425218 f   * CIL library *:* CIL module *
 0001:00024224       __unwindfunclet$?initCEGUI@C3DApplication@Application@@AAE_NXZ$3 00425224 f   * CIL library *:* CIL module *
 0001:00024230       __unwindfunclet$?initCEGUI@C3DApplication@Application@@AAE_NXZ$4 00425230 f   * CIL library *:* CIL module *
 0001:0002423c       __unwindfunclet$?initCEGUI@C3DApplication@Application@@AAE_NXZ$5 0042523c f   * CIL library *:* CIL module *
 0001:00024248       __unwindfunclet$?initCEGUI@C3DApplication@Application@@AAE_NXZ$6 00425248 f   * CIL library *:* CIL module *
 0001:00024254       __unwindfunclet$?initCEGUI@C3DApplication@Application@@AAE_NXZ$7 00425254 f   * CIL library *:* CIL module *
 0001:00024260       __unwindfunclet$?initCEGUI@C3DApplication@Application@@AAE_NXZ$8 00425260 f   * CIL library *:* CIL module *
 0001:0002426c       __unwindfunclet$?initCEGUI@C3DApplication@Application@@AAE_NXZ$9 0042526c f   * CIL library *:* CIL module *
 0001:00024278       __unwindfunclet$?initCEGUI@C3DApplication@Application@@AAE_NXZ$10 00425278 f   * CIL library *:* CIL module *
 0001:00024284       __unwindfunclet$?initCEGUI@C3DApplication@Application@@AAE_NXZ$11 00425284 f   * CIL library *:* CIL module *
 0001:00024290       __unwindfunclet$?initCEGUI@C3DApplication@Application@@AAE_NXZ$12 00425290 f   * CIL library *:* CIL module *
 0001:0002429c       __unwindfunclet$?initCEGUI@C3DApplication@Application@@AAE_NXZ$13 0042529c f   * CIL library *:* CIL module *
 0001:000242a8       __unwindfunclet$?initCEGUI@C3DApplication@Application@@AAE_NXZ$14 004252a8 f   * CIL library *:* CIL module *
 0001:000242b4       __unwindfunclet$?initCEGUI@C3DApplication@Application@@AAE_NXZ$15 004252b4 f   * CIL library *:* CIL module *
 0001:000242c0       __unwindfunclet$?initCEGUI@C3DApplication@Application@@AAE_NXZ$16 004252c0 f   * CIL library *:* CIL module *
 0001:000242cc       __unwindfunclet$?initCEGUI@C3DApplication@Application@@AAE_NXZ$17 004252cc f   * CIL library *:* CIL module *
 0001:000242d8       __unwindfunclet$?initCEGUI@C3DApplication@Application@@AAE_NXZ$18 004252d8 f   * CIL library *:* CIL module *
 0001:000242e4       __unwindfunclet$?initCEGUI@C3DApplication@Application@@AAE_NXZ$19 004252e4 f   * CIL library *:* CIL module *
 0001:000242f0       __unwindfunclet$?initCEGUI@C3DApplication@Application@@AAE_NXZ$20 004252f0 f   * CIL library *:* CIL module *
 0001:000242fc       __unwindfunclet$?initCEGUI@C3DApplication@Application@@AAE_NXZ$21 004252fc f   * CIL library *:* CIL module *
 0001:00024308       __ehhandler$?initCEGUI@C3DApplication@Application@@AAE_NXZ 00425308 f   * CIL library *:* CIL module *
 0001:00024330       __unwindfunclet$?initOIS@C3DApplication@Application@@AAE_NXZ$2 00425330 f   * CIL library *:* CIL module *
 0001:00024338       __unwindfunclet$?initOIS@C3DApplication@Application@@AAE_NXZ$3 00425338 f   * CIL library *:* CIL module *
 0001:00024340       __unwindfunclet$?initOIS@C3DApplication@Application@@AAE_NXZ$15 00425340 f   * CIL library *:* CIL module *
 0001:00024363       __unwindfunclet$?initOIS@C3DApplication@Application@@AAE_NXZ$16 00425363 f   * CIL library *:* CIL module *
 0001:0002436f       __unwindfunclet$?initOIS@C3DApplication@Application@@AAE_NXZ$18 0042536f f   * CIL library *:* CIL module *
 0001:0002437b       __unwindfunclet$?initOIS@C3DApplication@Application@@AAE_NXZ$4 0042537b f   * CIL library *:* CIL module *
 0001:00024386       __unwindfunclet$?initOIS@C3DApplication@Application@@AAE_NXZ$5 00425386 f   * CIL library *:* CIL module *
 0001:0002438e       __unwindfunclet$?initOIS@C3DApplication@Application@@AAE_NXZ$6 0042538e f   * CIL library *:* CIL module *
 0001:00024396       __unwindfunclet$?initOIS@C3DApplication@Application@@AAE_NXZ$7 00425396 f   * CIL library *:* CIL module *
 0001:0002439e       __unwindfunclet$?initOIS@C3DApplication@Application@@AAE_NXZ$9 0042539e f   * CIL library *:* CIL module *
 0001:000243a6       __unwindfunclet$?initOIS@C3DApplication@Application@@AAE_NXZ$10 004253a6 f   * CIL library *:* CIL module *
 0001:000243ae       __ehhandler$?initOIS@C3DApplication@Application@@AAE_NXZ 004253ae f   * CIL library *:* CIL module *
 0001:000243e0       __unwindfunclet$?initOgre@C3DApplication@Application@@AAE_NXZ$0 004253e0 f   * CIL library *:* CIL module *
 0001:000243ef       __unwindfunclet$?initOgre@C3DApplication@Application@@AAE_NXZ$1 004253ef f   * CIL library *:* CIL module *
 0001:0002440e       __unwindfunclet$?initOgre@C3DApplication@Application@@AAE_NXZ$2 0042540e f   * CIL library *:* CIL module *
 0001:0002442d       __unwindfunclet$?initOgre@C3DApplication@Application@@AAE_NXZ$3 0042542d f   * CIL library *:* CIL module *
 0001:0002444f       __unwindfunclet$?initOgre@C3DApplication@Application@@AAE_NXZ$4 0042544f f   * CIL library *:* CIL module *
 0001:0002445b       __unwindfunclet$?initOgre@C3DApplication@Application@@AAE_NXZ$5 0042545b f   * CIL library *:* CIL module *
 0001:00024463       __unwindfunclet$?initOgre@C3DApplication@Application@@AAE_NXZ$6 00425463 f   * CIL library *:* CIL module *
 0001:0002446b       __unwindfunclet$?initOgre@C3DApplication@Application@@AAE_NXZ$7 0042546b f   * CIL library *:* CIL module *
 0001:00024473       __unwindfunclet$?initOgre@C3DApplication@Application@@AAE_NXZ$8 00425473 f   * CIL library *:* CIL module *
 0001:0002447e       __unwindfunclet$?initOgre@C3DApplication@Application@@AAE_NXZ$9 0042547e f   * CIL library *:* CIL module *
 0001:00024486       __ehhandler$?initOgre@C3DApplication@Application@@AAE_NXZ 00425486 f   * CIL library *:* CIL module *
 0001:000244b0       __unwindfunclet$?initOgreResources@C3DApplication@Application@@AAE_NXZ$2 004254b0 f   * CIL library *:* CIL module *
 0001:000244b8       __unwindfunclet$?initOgreResources@C3DApplication@Application@@AAE_NXZ$4 004254b8 f   * CIL library *:* CIL module *
 0001:000244c0       __ehhandler$?initOgreResources@C3DApplication@Application@@AAE_NXZ 004254c0 f   * CIL library *:* CIL module *
 0001:000244f0       __ehhandler$??$_Insert_hint@AAU?$pair@$$CBV?$basic_string@DU?$char_traits@D@std@@V?$allocator@D@2@@std@@PAVCApplicationState@Application@@@std@@PAU?$_Tree_node@U?$pair@$$CBV?$basic_string@DU?$char_traits@D@std@@V?$allocator@D@2@@std@@PAVCApplicationState@Application@@@std@@PAX@2@@?$_Tree@V?$_Tmap_traits@V?$basic_string@DU?$char_traits@D@std@@V?$allocator@D@2@@std@@PAVCApplicationState@Application@@U?$less@V?$basic_string@DU?$char_traits@D@std@@V?$allocator@D@2@@std@@@2@V?$allocator@U?$pair@$$CBV?$basic_string@DU?$char_traits@D@std@@V?$allocator@D@2@@std@@PAVCApplicationState@Application@@@std@@@2@$0A@@std@@@std@@IAE?AV?$_Tree_iterator@V?$_Tree_val@U?$_Tree_simple_types@U?$pair@$$CBV?$basic_string@DU?$char_traits@D@std@@V?$allocator@D@2@@std@@PAVCApplicationState@Application@@@std@@@std@@@std@@@1@V?$_Tree_const_iterator@V?$_Tree_val@U?$_Tree_simple_types@U?$pair@$$CBV?$basic_string@DU?$char_traits@D@std@@V?$allocator@D@2@@std@@PAVCApplicationState@Application@@@std@@@std@@@std@@@1@AAU?$pair@$$CBV?$basic_string@DU?$char_traits@D@std@@V?$allocator@D@2@@std@@PAVCApplicationState@Application@@@1@PAU?$_Tree_node@U?$pair@$$CBV?$basic_string@DU?$char_traits@D@std@@V?$allocator@D@2@@std@@PAVCApplicationState@Application@@@std@@PAX@1@@Z 004254f0 f   * CIL library *:* CIL module *
 0001:00024510       __ehhandler$??$_Insert_nohint@AAU?$pair@$$CBV?$basic_string@DU?$char_traits@D@std@@V?$allocator@D@2@@std@@PAVCApplicationState@Application@@@std@@PAU?$_Tree_node@U?$pair@$$CBV?$basic_string@DU?$char_traits@D@std@@V?$allocator@D@2@@std@@PAVCApplicationState@Application@@@std@@PAX@2@@?$_Tree@V?$_Tmap_traits@V?$basic_string@DU?$char_traits@D@std@@V?$allocator@D@2@@std@@PAVCApplicationState@Application@@U?$less@V?$basic_string@DU?$char_traits@D@std@@V?$allocator@D@2@@std@@@2@V?$allocator@U?$pair@$$CBV?$basic_string@DU?$char_traits@D@std@@V?$allocator@D@2@@std@@PAVCApplicationState@Application@@@std@@@2@$0A@@std@@@std@@IAE?AU?$pair@V?$_Tree_iterator@V?$_Tree_val@U?$_Tree_simple_types@U?$pair@$$CBV?$basic_string@DU?$char_traits@D@std@@V?$allocator@D@2@@std@@PAVCApplicationState@Application@@@std@@@std@@@std@@@std@@_N@1@_NAAU?$pair@$$CBV?$basic_string@DU?$char_traits@D@std@@V?$allocator@D@2@@std@@PAVCApplicationState@Application@@@1@PAU?$_Tree_node@U?$pair@$$CBV?$basic_string@DU?$char_traits@D@std@@V?$allocator@D@2@@std@@PAVCApplicationState@Application@@@std@@PAX@1@@Z 00425510 f   * CIL library *:* CIL module *
 0001:00024510       __ehhandler$??$_Insert_nohint@AAU?$pair@$$CBV?$basic_string@DU?$char_traits@D@std@@V?$allocator@D@2@@std@@P6APAVIComponent@Logic@@XZ@std@@PAU?$_Tree_node@U?$pair@$$CBV?$basic_string@DU?$char_traits@D@std@@V?$allocator@D@2@@std@@P6APAVIComponent@Logic@@XZ@std@@PAX@2@@?$_Tree@V?$_Tmap_traits@V?$basic_string@DU?$char_traits@D@std@@V?$allocator@D@2@@std@@P6APAVIComponent@Logic@@XZU?$less@V?$basic_string@DU?$char_traits@D@std@@V?$allocator@D@2@@std@@@2@V?$allocator@U?$pair@$$CBV?$basic_string@DU?$char_traits@D@std@@V?$allocator@D@2@@std@@P6APAVIComponent@Logic@@XZ@std@@@2@$0A@@std@@@std@@IAE?AU?$pair@V?$_Tree_iterator@V?$_Tree_val@U?$_Tree_simple_types@U?$pair@$$CBV?$basic_string@DU?$char_traits@D@std@@V?$allocator@D@2@@std@@P6APAVIComponent@Logic@@XZ@std@@@std@@@std@@@std@@_N@1@_NAAU?$pair@$$CBV?$basic_string@DU?$char_traits@D@std@@V?$allocator@D@2@@std@@P6APAVIComponent@Logic@@XZ@1@PAU?$_Tree_node@U?$pair@$$CBV?$basic_string@DU?$char_traits@D@std@@V?$allocator@D@2@@std@@P6APAVIComponent@Logic@@XZ@std@@PAX@1@@Z 00425510 f   * CIL library *:* CIL module *
 0001:00024530       __unwindfunclet$??0CBaseApplication@Application@@QAE@XZ$0 00425530 f   * CIL library *:* CIL module *
 0001:0002453b       __ehhandler$??0CBaseApplication@Application@@QAE@XZ 0042553b f   * CIL library *:* CIL module *
 0001:00024560       __unwindfunclet$??A?$map@V?$basic_string@DU?$char_traits@D@std@@V?$allocator@D@2@@std@@PAVCApplicationState@Application@@U?$less@V?$basic_string@DU?$char_traits@D@std@@V?$allocator@D@2@@std@@@2@V?$allocator@U?$pair@$$CBV?$basic_string@DU?$char_traits@D@std@@V?$allocator@D@2@@std@@PAVCApplicationState@Application@@@std@@@2@@std@@QAEAAPAVCApplicationState@Application@@ABV?$basic_string@DU?$char_traits@D@std@@V?$allocator@D@2@@1@@Z$0 00425560 f   * CIL library *:* CIL module *
 0001:00024568       __ehhandler$??A?$map@V?$basic_string@DU?$char_traits@D@std@@V?$allocator@D@2@@std@@PAVCApplicationState@Application@@U?$less@V?$basic_string@DU?$char_traits@D@std@@V?$allocator@D@2@@std@@@2@V?$allocator@U?$pair@$$CBV?$basic_string@DU?$char_traits@D@std@@V?$allocator@D@2@@std@@PAVCApplicationState@Application@@@std@@@2@@std@@QAEAAPAVCApplicationState@Application@@ABV?$basic_string@DU?$char_traits@D@std@@V?$allocator@D@2@@1@@Z 00425568 f   * CIL library *:* CIL module *
 0001:00024590       __unwindfunclet$?init@CEventState@Application@@UAE_NXZ$0 00425590 f   * CIL library *:* CIL module *
 0001:0002459c       __unwindfunclet$?init@CEventState@Application@@UAE_NXZ$1 0042559c f   * CIL library *:* CIL module *
 0001:000245a8       __unwindfunclet$?init@CEventState@Application@@UAE_NXZ$2 004255a8 f   * CIL library *:* CIL module *
 0001:000245b4       __unwindfunclet$?init@CEventState@Application@@UAE_NXZ$3 004255b4 f   * CIL library *:* CIL module *
 0001:000245c0       __ehhandler$?init@CEventState@Application@@UAE_NXZ 004255c0 f   * CIL library *:* CIL module *
 0001:000245f0       __unwindfunclet$?init@CGalaxyState@Application@@UAE_NXZ$0 004255f0 f   * CIL library *:* CIL module *
 0001:000245f0       __unwindfunclet$?init@CPlanetState@Application@@UAE_NXZ$0 004255f0 f   * CIL library *:* CIL module *
 0001:000245f0       __unwindfunclet$?init@CSystemState@Application@@UAE_NXZ$0 004255f0 f   * CIL library *:* CIL module *
 0001:000245f8       __unwindfunclet$?init@CGalaxyState@Application@@UAE_NXZ$1 004255f8 f   * CIL library *:* CIL module *
 0001:000245f8       __unwindfunclet$?init@CSystemState@Application@@UAE_NXZ$1 004255f8 f   * CIL library *:* CIL module *
 0001:000245f8       __unwindfunclet$?init@CPlanetState@Application@@UAE_NXZ$1 004255f8 f   * CIL library *:* CIL module *
 0001:00024600       __ehhandler$?init@CGalaxyState@Application@@UAE_NXZ 00425600 f   * CIL library *:* CIL module *
 0001:00024600       __ehhandler$?init@CPlanetState@Application@@UAE_NXZ 00425600 f   * CIL library *:* CIL module *
 0001:00024600       __ehhandler$?init@CSystemState@Application@@UAE_NXZ 00425600 f   * CIL library *:* CIL module *
 0001:00024630       __unwindfunclet$?keyReleased@CGalaxyState@Application@@UAE_NUTKey@Input@Common@@@Z$1 00425630 f   * CIL library *:* CIL module *
 0001:00024638       __unwindfunclet$?keyReleased@CGalaxyState@Application@@UAE_NUTKey@Input@Common@@@Z$2 00425638 f   * CIL library *:* CIL module *
 0001:00024640       __unwindfunclet$?keyReleased@CGalaxyState@Application@@UAE_NUTKey@Input@Common@@@Z$0 00425640 f   * CIL library *:* CIL module *
 0001:00024648       __ehhandler$?keyReleased@CGalaxyState@Application@@UAE_NUTKey@Input@Common@@@Z 00425648 f   * CIL library *:* CIL module *
 0001:00024670       __unwindfunclet$?init@CMenuState@Application@@UAE_NXZ$0 00425670 f   * CIL library *:* CIL module *
 0001:0002467c       __unwindfunclet$?init@CMenuState@Application@@UAE_NXZ$1 0042567c f   * CIL library *:* CIL module *
 0001:00024688       __unwindfunclet$?init@CMenuState@Application@@UAE_NXZ$2 00425688 f   * CIL library *:* CIL module *
 0001:00024694       __unwindfunclet$?init@CMenuState@Application@@UAE_NXZ$3 00425694 f   * CIL library *:* CIL module *
 0001:000246a0       __unwindfunclet$?init@CMenuState@Application@@UAE_NXZ$5 004256a0 f   * CIL library *:* CIL module *
 0001:000246ac       __unwindfunclet$?init@CMenuState@Application@@UAE_NXZ$6 004256ac f   * CIL library *:* CIL module *
 0001:000246b8       __ehhandler$?init@CMenuState@Application@@UAE_NXZ 004256b8 f   * CIL library *:* CIL module *
 0001:000246f0       __unwindfunclet$?init@CPauseState@Application@@UAE_NXZ$0 004256f0 f   * CIL library *:* CIL module *
 0001:000246fc       __unwindfunclet$?init@CPauseState@Application@@UAE_NXZ$1 004256fc f   * CIL library *:* CIL module *
 0001:00024708       __unwindfunclet$?init@CPauseState@Application@@UAE_NXZ$2 00425708 f   * CIL library *:* CIL module *
 0001:00024714       __unwindfunclet$?init@CPauseState@Application@@UAE_NXZ$3 00425714 f   * CIL library *:* CIL module *
 0001:00024720       __unwindfunclet$?init@CPauseState@Application@@UAE_NXZ$5 00425720 f   * CIL library *:* CIL module *
 0001:0002472c       __unwindfunclet$?init@CPauseState@Application@@UAE_NXZ$6 0042572c f   * CIL library *:* CIL module *
 0001:00024738       __unwindfunclet$?init@CPauseState@Application@@UAE_NXZ$8 00425738 f   * CIL library *:* CIL module *
 0001:00024744       __unwindfunclet$?init@CPauseState@Application@@UAE_NXZ$9 00425744 f   * CIL library *:* CIL module *
 0001:00024750       __ehhandler$?init@CPauseState@Application@@UAE_NXZ 00425750 f   * CIL library *:* CIL module *
 0001:00024780       __unwindfunclet$?keyReleased@CPauseState@Application@@UAE_NUTKey@Input@Common@@@Z$0 00425780 f   * CIL library *:* CIL module *
 0001:00024780       __unwindfunclet$?menuReleased@CPauseState@Application@@AAE_NABVEventArgs@CEGUI@@@Z$0 00425780 f   * CIL library *:* CIL module *
 0001:00024788       __ehhandler$?menuReleased@CPauseState@Application@@AAE_NABVEventArgs@CEGUI@@@Z 00425788 f   * CIL library *:* CIL module *
 0001:00024788       __ehhandler$?keyReleased@CPauseState@Application@@UAE_NUTKey@Input@Common@@@Z 00425788 f   * CIL library *:* CIL module *
 0001:000247b0       __unwindfunclet$?keyReleased@CPlanetState@Application@@UAE_NUTKey@Input@Common@@@Z$1 004257b0 f   * CIL library *:* CIL module *
 0001:000247b8       __unwindfunclet$?keyReleased@CPlanetState@Application@@UAE_NUTKey@Input@Common@@@Z$0 004257b8 f   * CIL library *:* CIL module *
 0001:000247c0       __ehhandler$?keyReleased@CPlanetState@Application@@UAE_NUTKey@Input@Common@@@Z 004257c0 f   * CIL library *:* CIL module *
 0001:000247f0       __unwindfunclet$?keyReleased@CSystemState@Application@@UAE_NUTKey@Input@Common@@@Z$0 004257f0 f   * CIL library *:* CIL module *
 0001:000247f8       __unwindfunclet$?keyReleased@CSystemState@Application@@UAE_NUTKey@Input@Common@@@Z$1 004257f8 f   * CIL library *:* CIL module *
 0001:00024800       __unwindfunclet$?keyReleased@CSystemState@Application@@UAE_NUTKey@Input@Common@@@Z$2 00425800 f   * CIL library *:* CIL module *
 0001:00024808       __ehhandler$?keyReleased@CSystemState@Application@@UAE_NUTKey@Input@Common@@@Z 00425808 f   * CIL library *:* CIL module *
 0001:00024830       __unwindfunclet$_WinMain@16$2 00425830 f   * CIL library *:* CIL module *
 0001:00024838       __ehhandler$_WinMain@16    00425838 f   * CIL library *:* CIL module *
 0001:00024860       __unwindfunclet$?init@CTTGApplication@Application@@UAE_NXZ$1 00425860 f   * CIL library *:* CIL module *
 0001:00024868       __unwindfunclet$?init@CTTGApplication@Application@@UAE_NXZ$3 00425868 f   * CIL library *:* CIL module *
 0001:00024870       __unwindfunclet$?init@CTTGApplication@Application@@UAE_NXZ$5 00425870 f   * CIL library *:* CIL module *
 0001:00024878       __unwindfunclet$?init@CTTGApplication@Application@@UAE_NXZ$7 00425878 f   * CIL library *:* CIL module *
 0001:00024880       __unwindfunclet$?init@CTTGApplication@Application@@UAE_NXZ$9 00425880 f   * CIL library *:* CIL module *
 0001:00024888       __unwindfunclet$?init@CTTGApplication@Application@@UAE_NXZ$11 00425888 f   * CIL library *:* CIL module *
 0001:00024890       __unwindfunclet$?init@CTTGApplication@Application@@UAE_NXZ$13 00425890 f   * CIL library *:* CIL module *
 0001:00024898       __unwindfunclet$?init@CTTGApplication@Application@@UAE_NXZ$14 00425898 f   * CIL library *:* CIL module *
 0001:000248a0       __ehhandler$?init@CTTGApplication@Application@@UAE_NXZ 004258a0 f   * CIL library *:* CIL module *
 0001:000248d0       __ehhandler$??$_Insert_hint@AAU?$pair@$$CBV?$basic_string@DU?$char_traits@D@std@@V?$allocator@D@2@@std@@PAVCConfigure@Configuration@Common@@@std@@PAU?$_Tree_node@U?$pair@$$CBV?$basic_string@DU?$char_traits@D@std@@V?$allocator@D@2@@std@@PAVCConfigure@Configuration@Common@@@std@@PAX@2@@?$_Tree@V?$_Tmap_traits@V?$basic_string@DU?$char_traits@D@std@@V?$allocator@D@2@@std@@PAVCConfigure@Configuration@Common@@U?$less@V?$basic_string@DU?$char_traits@D@std@@V?$allocator@D@2@@std@@@2@V?$allocator@U?$pair@$$CBV?$basic_string@DU?$char_traits@D@std@@V?$allocator@D@2@@std@@PAVCConfigure@Configuration@Common@@@std@@@2@$0A@@std@@@std@@IAE?AV?$_Tree_iterator@V?$_Tree_val@U?$_Tree_simple_types@U?$pair@$$CBV?$basic_string@DU?$char_traits@D@std@@V?$allocator@D@2@@std@@PAVCConfigure@Configuration@Common@@@std@@@std@@@std@@@1@V?$_Tree_const_iterator@V?$_Tree_val@U?$_Tree_simple_types@U?$pair@$$CBV?$basic_string@DU?$char_traits@D@std@@V?$allocator@D@2@@std@@PAVCConfigure@Configuration@Common@@@std@@@std@@@std@@@1@AAU?$pair@$$CBV?$basic_string@DU?$char_traits@D@std@@V?$allocator@D@2@@std@@PAVCConfigure@Configuration@Common@@@1@PAU?$_Tree_node@U?$pair@$$CBV?$basic_string@DU?$char_traits@D@std@@V?$allocator@D@2@@std@@PAVCConfigure@Configuration@Common@@@std@@PAX@1@@Z 004258d0 f   * CIL library *:* CIL module *
 0001:000248f0       __ehhandler$??$_Insert_hint@AAU?$pair@$$CBV?$basic_string@DU?$char_traits@D@std@@V?$allocator@D@2@@std@@V12@@std@@PAU?$_Tree_node@U?$pair@$$CBV?$basic_string@DU?$char_traits@D@std@@V?$allocator@D@2@@std@@V12@@std@@PAX@2@@?$_Tree@V?$_Tmap_traits@V?$basic_string@DU?$char_traits@D@std@@V?$allocator@D@2@@std@@V12@U?$less@V?$basic_string@DU?$char_traits@D@std@@V?$allocator@D@2@@std@@@2@V?$allocator@U?$pair@$$CBV?$basic_string@DU?$char_traits@D@std@@V?$allocator@D@2@@std@@V12@@std@@@2@$0A@@std@@@std@@IAE?AV?$_Tree_iterator@V?$_Tree_val@U?$_Tree_simple_types@U?$pair@$$CBV?$basic_string@DU?$char_traits@D@std@@V?$allocator@D@2@@std@@V12@@std@@@std@@@std@@@1@V?$_Tree_const_iterator@V?$_Tree_val@U?$_Tree_simple_types@U?$pair@$$CBV?$basic_string@DU?$char_traits@D@std@@V?$allocator@D@2@@std@@V12@@std@@@std@@@std@@@1@AAU?$pair@$$CBV?$basic_string@DU?$char_traits@D@std@@V?$allocator@D@2@@std@@V12@@1@PAU?$_Tree_node@U?$pair@$$CBV?$basic_string@DU?$char_traits@D@std@@V?$allocator@D@2@@std@@V12@@std@@PAX@1@@Z 004258f0 f   * CIL library *:* CIL module *
 0001:00024910       __ehhandler$??$_Insert_nohint@AAU?$pair@$$CBV?$basic_string@DU?$char_traits@D@std@@V?$allocator@D@2@@std@@PAVCConfigure@Configuration@Common@@@std@@PAU?$_Tree_node@U?$pair@$$CBV?$basic_string@DU?$char_traits@D@std@@V?$allocator@D@2@@std@@PAVCConfigure@Configuration@Common@@@std@@PAX@2@@?$_Tree@V?$_Tmap_traits@V?$basic_string@DU?$char_traits@D@std@@V?$allocator@D@2@@std@@PAVCConfigure@Configuration@Common@@U?$less@V?$basic_string@DU?$char_traits@D@std@@V?$allocator@D@2@@std@@@2@V?$allocator@U?$pair@$$CBV?$basic_string@DU?$char_traits@D@std@@V?$allocator@D@2@@std@@PAVCConfigure@Configuration@Common@@@std@@@2@$0A@@std@@@std@@IAE?AU?$pair@V?$_Tree_iterator@V?$_Tree_val@U?$_Tree_simple_types@U?$pair@$$CBV?$basic_string@DU?$char_traits@D@std@@V?$allocator@D@2@@std@@PAVCConfigure@Configuration@Common@@@std@@@std@@@std@@@std@@_N@1@_NAAU?$pair@$$CBV?$basic_string@DU?$char_traits@D@std@@V?$allocator@D@2@@std@@PAVCConfigure@Configuration@Common@@@1@PAU?$_Tree_node@U?$pair@$$CBV?$basic_string@DU?$char_traits@D@std@@V?$allocator@D@2@@std@@PAVCConfigure@Configuration@Common@@@std@@PAX@1@@Z 00425910 f   * CIL library *:* CIL module *
 0001:00024930       __ehhandler$??$_Insert_nohint@AAU?$pair@$$CBV?$basic_string@DU?$char_traits@D@std@@V?$allocator@D@2@@std@@V12@@std@@PAU?$_Tree_node@U?$pair@$$CBV?$basic_string@DU?$char_traits@D@std@@V?$allocator@D@2@@std@@V12@@std@@PAX@2@@?$_Tree@V?$_Tmap_traits@V?$basic_string@DU?$char_traits@D@std@@V?$allocator@D@2@@std@@V12@U?$less@V?$basic_string@DU?$char_traits@D@std@@V?$allocator@D@2@@std@@@2@V?$allocator@U?$pair@$$CBV?$basic_string@DU?$char_traits@D@std@@V?$allocator@D@2@@std@@V12@@std@@@2@$0A@@std@@@std@@IAE?AU?$pair@V?$_Tree_iterator@V?$_Tree_val@U?$_Tree_simple_types@U?$pair@$$CBV?$basic_string@DU?$char_traits@D@std@@V?$allocator@D@2@@std@@V12@@std@@@std@@@std@@@std@@_N@1@_NAAU?$pair@$$CBV?$basic_string@DU?$char_traits@D@std@@V?$allocator@D@2@@std@@V12@@1@PAU?$_Tree_node@U?$pair@$$CBV?$basic_string@DU?$char_traits@D@std@@V?$allocator@D@2@@std@@V12@@std@@PAX@1@@Z 00425930 f   * CIL library *:* CIL module *
 0001:00024950       __unwindfunclet$??$getline@DU?$char_traits@D@std@@V?$allocator@D@2@@std@@YAAAV?$basic_istream@DU?$char_traits@D@std@@@0@$$QAV10@AAV?$basic_string@DU?$char_traits@D@std@@V?$allocator@D@2@@0@D@Z$3 00425950 f   * CIL library *:* CIL module *
 0001:00024958       __unwindfunclet$??$getline@DU?$char_traits@D@std@@V?$allocator@D@2@@std@@YAAAV?$basic_istream@DU?$char_traits@D@std@@@0@$$QAV10@AAV?$basic_string@DU?$char_traits@D@std@@V?$allocator@D@2@@0@D@Z$2 00425958 f   * CIL library *:* CIL module *
 0001:00024960       __ehhandler$??$getline@DU?$char_traits@D@std@@V?$allocator@D@2@@std@@YAAAV?$basic_istream@DU?$char_traits@D@std@@@0@$$QAV10@AAV?$basic_string@DU?$char_traits@D@std@@V?$allocator@D@2@@0@D@Z 00425960 f   * CIL library *:* CIL module *
 0001:00024980       __unwindfunclet$??0?$basic_ifstream@DU?$char_traits@D@std@@@std@@QAE@PBDHH@Z$0 00425980 f   * CIL library *:* CIL module *
 0001:0002499d       __unwindfunclet$??0?$basic_ifstream@DU?$char_traits@D@std@@@std@@QAE@PBDHH@Z$1 0042599d f   * CIL library *:* CIL module *
 0001:000249a9       __unwindfunclet$??0?$basic_ifstream@DU?$char_traits@D@std@@@std@@QAE@PBDHH@Z$3 004259a9 f   * CIL library *:* CIL module *
 0001:000249b2       __unwindfunclet$??0?$basic_ifstream@DU?$char_traits@D@std@@@std@@QAE@PBDHH@Z$2 004259b2 f   * CIL library *:* CIL module *
 0001:000249bd       __ehhandler$??0?$basic_ifstream@DU?$char_traits@D@std@@@std@@QAE@PBDHH@Z 004259bd f   * CIL library *:* CIL module *
 0001:000249e0       __unwindfunclet$??0CConfigure@Configuration@Common@@AAE@ABV?$basic_string@DU?$char_traits@D@std@@V?$allocator@D@2@@std@@@Z$0 004259e0 f   * CIL library *:* CIL module *
 0001:000249e8       __unwindfunclet$??0CConfigure@Configuration@Common@@AAE@ABV?$basic_string@DU?$char_traits@D@std@@V?$allocator@D@2@@std@@@Z$1 004259e8 f   * CIL library *:* CIL module *
 0001:000249f3       __unwindfunclet$??0CConfigure@Configuration@Common@@AAE@ABV?$basic_string@DU?$char_traits@D@std@@V?$allocator@D@2@@std@@@Z$2 004259f3 f   * CIL library *:* CIL module *
 0001:000249fe       __unwindfunclet$??0CConfigure@Configuration@Common@@AAE@ABV?$basic_string@DU?$char_traits@D@std@@V?$allocator@D@2@@std@@@Z$4 004259fe f   * CIL library *:* CIL module *
 0001:00024a06       __unwindfunclet$??0CConfigure@Configuration@Common@@AAE@ABV?$basic_string@DU?$char_traits@D@std@@V?$allocator@D@2@@std@@@Z$5 00425a06 f   * CIL library *:* CIL module *
 0001:00024a0e       __unwindfunclet$??0CConfigure@Configuration@Common@@AAE@ABV?$basic_string@DU?$char_traits@D@std@@V?$allocator@D@2@@std@@@Z$3 00425a0e f   * CIL library *:* CIL module *
 0001:00024a16       __ehhandler$??0CConfigure@Configuration@Common@@AAE@ABV?$basic_string@DU?$char_traits@D@std@@V?$allocator@D@2@@std@@@Z 00425a16 f   * CIL library *:* CIL module *
 0001:00024a40       __unwindfunclet$??A?$map@V?$basic_string@DU?$char_traits@D@std@@V?$allocator@D@2@@std@@PAVCConfigure@Configuration@Common@@U?$less@V?$basic_string@DU?$char_traits@D@std@@V?$allocator@D@2@@std@@@2@V?$allocator@U?$pair@$$CBV?$basic_string@DU?$char_traits@D@std@@V?$allocator@D@2@@std@@PAVCConfigure@Configuration@Common@@@std@@@2@@std@@QAEAAPAVCConfigure@Configuration@Common@@ABV?$basic_string@DU?$char_traits@D@std@@V?$allocator@D@2@@1@@Z$0 00425a40 f   * CIL library *:* CIL module *
 0001:00024a48       __ehhandler$??A?$map@V?$basic_string@DU?$char_traits@D@std@@V?$allocator@D@2@@std@@PAVCConfigure@Configuration@Common@@U?$less@V?$basic_string@DU?$char_traits@D@std@@V?$allocator@D@2@@std@@@2@V?$allocator@U?$pair@$$CBV?$basic_string@DU?$char_traits@D@std@@V?$allocator@D@2@@std@@PAVCConfigure@Configuration@Common@@@std@@@2@@std@@QAEAAPAVCConfigure@Configuration@Common@@ABV?$basic_string@DU?$char_traits@D@std@@V?$allocator@D@2@@1@@Z 00425a48 f   * CIL library *:* CIL module *
 0001:00024a70       __unwindfunclet$??A?$map@V?$basic_string@DU?$char_traits@D@std@@V?$allocator@D@2@@std@@V12@U?$less@V?$basic_string@DU?$char_traits@D@std@@V?$allocator@D@2@@std@@@2@V?$allocator@U?$pair@$$CBV?$basic_string@DU?$char_traits@D@std@@V?$allocator@D@2@@std@@V12@@std@@@2@@std@@QAEAAV?$basic_string@DU?$char_traits@D@std@@V?$allocator@D@2@@1@ABV21@@Z$0 00425a70 f   * CIL library *:* CIL module *
 0001:00024a78       __unwindfunclet$??A?$map@V?$basic_string@DU?$char_traits@D@std@@V?$allocator@D@2@@std@@V12@U?$less@V?$basic_string@DU?$char_traits@D@std@@V?$allocator@D@2@@std@@@2@V?$allocator@U?$pair@$$CBV?$basic_string@DU?$char_traits@D@std@@V?$allocator@D@2@@std@@V12@@std@@@2@@std@@QAEAAV?$basic_string@DU?$char_traits@D@std@@V?$allocator@D@2@@1@ABV21@@Z$1 00425a78 f   * CIL library *:* CIL module *
 0001:00024a80       __ehhandler$??A?$map@V?$basic_string@DU?$char_traits@D@std@@V?$allocator@D@2@@std@@V12@U?$less@V?$basic_string@DU?$char_traits@D@std@@V?$allocator@D@2@@std@@@2@V?$allocator@U?$pair@$$CBV?$basic_string@DU?$char_traits@D@std@@V?$allocator@D@2@@std@@V12@@std@@@2@@std@@QAEAAV?$basic_string@DU?$char_traits@D@std@@V?$allocator@D@2@@1@ABV21@@Z 00425a80 f   * CIL library *:* CIL module *
 0001:00024ab0       __unwindfunclet$?_Endwrite@?$basic_filebuf@DU?$char_traits@D@std@@@std@@IAE_NXZ$0 00425ab0 f   * CIL library *:* CIL module *
 0001:00024ab8       __ehhandler$?_Endwrite@?$basic_filebuf@DU?$char_traits@D@std@@@std@@IAE_NXZ 00425ab8 f   * CIL library *:* CIL module *
 0001:00024ae0       __unwindfunclet$?getConfiguration@CConfigure@Configuration@Common@@SAAAV123@ABV?$basic_string@DU?$char_traits@D@std@@V?$allocator@D@2@@std@@@Z$0 00425ae0 f   * CIL library *:* CIL module *
 0001:00024aec       __unwindfunclet$?getConfiguration@CConfigure@Configuration@Common@@SAAAV123@ABV?$basic_string@DU?$char_traits@D@std@@V?$allocator@D@2@@std@@@Z$1 00425aec f   * CIL library *:* CIL module *
 0001:00024af4       __ehhandler$?getConfiguration@CConfigure@Configuration@Common@@SAAAV123@ABV?$basic_string@DU?$char_traits@D@std@@V?$allocator@D@2@@std@@@Z 00425af4 f   * CIL library *:* CIL module *
 0001:00024b20       __unwindfunclet$?getDefaultValue@Configuration@Common@@YA?AV?$basic_string@DU?$char_traits@D@std@@V?$allocator@D@2@@std@@ABV34@@Z$1 00425b20 f   * CIL library *:* CIL module *
 0001:00024b28       __ehhandler$?getDefaultValue@Configuration@Common@@YA?AV?$basic_string@DU?$char_traits@D@std@@V?$allocator@D@2@@std@@ABV34@@Z 00425b28 f   * CIL library *:* CIL module *
 0001:00024b50       __unwindfunclet$?open@?$basic_filebuf@DU?$char_traits@D@std@@@std@@QAEPAV12@PBDHH@Z$0 00425b50 f   * CIL library *:* CIL module *
 0001:00024b58       __ehhandler$?open@?$basic_filebuf@DU?$char_traits@D@std@@@std@@QAEPAV12@PBDHH@Z 00425b58 f   * CIL library *:* CIL module *
 0001:00024b80       __unwindfunclet$?yytnamerr_@CParser@Map@@EAE?AV?$basic_string@DU?$char_traits@D@std@@V?$allocator@D@2@@std@@PBD@Z$2 00425b80 f   * CIL library *:* CIL module *
 0001:00024b80       __unwindfunclet$?uflow@?$basic_filebuf@DU?$char_traits@D@std@@@std@@MAEHXZ$0 00425b80 f   * CIL library *:* CIL module *
 0001:00024b80       __unwindfunclet$?overflow@?$basic_filebuf@DU?$char_traits@D@std@@@std@@MAEHH@Z$0 00425b80 f   * CIL library *:* CIL module *
 0001:00024b88       __ehhandler$?overflow@?$basic_filebuf@DU?$char_traits@D@std@@@std@@MAEHH@Z 00425b88 f   * CIL library *:* CIL module *
 0001:00024b88       __ehhandler$?yytnamerr_@CParser@Map@@EAE?AV?$basic_string@DU?$char_traits@D@std@@V?$allocator@D@2@@std@@PBD@Z 00425b88 f   * CIL library *:* CIL module *
 0001:00024b88       __ehhandler$?uflow@?$basic_filebuf@DU?$char_traits@D@std@@@std@@MAEHXZ 00425b88 f   * CIL library *:* CIL module *
 0001:00024bb0       __unwindfunclet$?copy_boost_exception@exception_detail@boost@@YAXPAVexception@2@PBV32@@Z$0 00425bb0 f   * CIL library *:* CIL module *
 0001:00024bb8       __unwindfunclet$?copy_boost_exception@exception_detail@boost@@YAXPAVexception@2@PBV32@@Z$1 00425bb8 f   * CIL library *:* CIL module *
 0001:00024bc0       __ehhandler$?copy_boost_exception@exception_detail@boost@@YAXPAVexception@2@PBV32@@Z 00425bc0 f   * CIL library *:* CIL module *
 0001:00024be0       __ehhandler$??$_Construct@V?$_String_iterator@V?$_String_val@U?$_Simple_types@D@std@@@std@@@std@@@?$vector@DV?$allocator@D@std@@@std@@QAEXV?$_String_iterator@V?$_String_val@U?$_Simple_types@D@std@@@std@@@1@0@Z 00425be0 f   * CIL library *:* CIL module *
 0001:00024c00       __ehhandler$??$_Insert_nohint@AAU?$pair@$$CBV?$basic_string@DU?$char_traits@D@std@@V?$allocator@D@2@@std@@V?$vector@UTXMLComponent@Blueprints@Data@Common@@V?$allocator@UTXMLComponent@Blueprints@Data@Common@@@std@@@2@@std@@PAU?$_Tree_node@U?$pair@$$CBV?$basic_string@DU?$char_traits@D@std@@V?$allocator@D@2@@std@@V?$vector@UTXMLComponent@Blueprints@Data@Common@@V?$allocator@UTXMLComponent@Blueprints@Data@Common@@@std@@@2@@std@@PAX@2@@?$_Tree@V?$_Tmap_traits@V?$basic_string@DU?$char_traits@D@std@@V?$allocator@D@2@@std@@V?$vector@UTXMLComponent@Blueprints@Data@Common@@V?$allocator@UTXMLComponent@Blueprints@Data@Common@@@std@@@2@U?$less@V?$basic_string@DU?$char_traits@D@std@@V?$allocator@D@2@@std@@@2@V?$allocator@U?$pair@$$CBV?$basic_string@DU?$char_traits@D@std@@V?$allocator@D@2@@std@@V?$vector@UTXMLComponent@Blueprints@Data@Common@@V?$allocator@UTXMLComponent@Blueprints@Data@Common@@@std@@@2@@std@@@2@$0A@@std@@@std@@IAE?AU?$pair@V?$_Tree_iterator@V?$_Tree_val@U?$_Tree_simple_types@U?$pair@$$CBV?$basic_string@DU?$char_traits@D@std@@V?$allocator@D@2@@std@@V?$vector@UTXMLComponent@Blueprints@Data@Common@@V?$allocator@UTXMLComponent@Blueprints@Data@Common@@@std@@@2@@std@@@std@@@std@@@std@@_N@1@_NAAU?$pair@$$CBV?$basic_string@DU?$char_traits@D@std@@V?$allocator@D@2@@std@@V?$vector@UTXMLComponent@Blueprints@Data@Common@@V?$allocator@UTXMLComponent@Blueprints@Data@Common@@@std@@@2@@1@PAU?$_Tree_node@U?$pair@$$CBV?$basic_string@DU?$char_traits@D@std@@V?$allocator@D@2@@std@@V?$vector@UTXMLComponent@Blueprints@Data@Common@@V?$allocator@UTXMLComponent@Blueprints@Data@Common@@@std@@@2@@std@@PAX@1@@Z 00425c00 f   * CIL library *:* CIL module *
 0001:00024c20       __unwindfunclet$??$_Uninit_copy@V?$_Vector_const_iterator@V?$_Vector_val@U?$_Simple_types@UTXMLComponent@Blueprints@Data@Common@@@std@@@std@@@std@@PAUTXMLComponent@Blueprints@Data@Common@@V?$allocator@UTXMLComponent@Blueprints@Data@Common@@@2@@std@@YAPAUTXMLComponent@Blueprints@Data@Common@@V?$_Vector_const_iterator@V?$_Vector_val@U?$_Simple_types@UTXMLComponent@Blueprints@Data@Common@@@std@@@std@@@0@0PAU1234@AAU?$_Wrap_alloc@V?$allocator@UTXMLComponent@Blueprints@Data@Common@@@std@@@0@U_Nonscalar_ptr_iterator_tag@0@@Z$2 00425c20 f   * CIL library *:* CIL module *
 0001:00024c31       __ehhandler$??$_Uninit_copy@V?$_Vector_const_iterator@V?$_Vector_val@U?$_Simple_types@UTXMLComponent@Blueprints@Data@Common@@@std@@@std@@@std@@PAUTXMLComponent@Blueprints@Data@Common@@V?$allocator@UTXMLComponent@Blueprints@Data@Common@@@2@@std@@YAPAUTXMLComponent@Blueprints@Data@Common@@V?$_Vector_const_iterator@V?$_Vector_val@U?$_Simple_types@UTXMLComponent@Blueprints@Data@Common@@@std@@@std@@@0@0PAU1234@AAU?$_Wrap_alloc@V?$allocator@UTXMLComponent@Blueprints@Data@Common@@@std@@@0@U_Nonscalar_ptr_iterator_tag@0@@Z 00425c31 f   * CIL library *:* CIL module *
 0001:00024c50       __unwindfunclet$??$_Uninit_move@PAUTXMLComponent@Blueprints@Data@Common@@PAU1234@V?$allocator@UTXMLComponent@Blueprints@Data@Common@@@std@@U1234@@std@@YAPAUTXMLComponent@Blueprints@Data@Common@@PAU1234@00AAU?$_Wrap_alloc@V?$allocator@UTXMLComponent@Blueprints@Data@Common@@@std@@@0@0U_Nonscalar_ptr_iterator_tag@0@@Z$2 00425c50 f   * CIL library *:* CIL module *
 0001:00024c61       __ehhandler$??$_Uninit_move@PAUTXMLComponent@Blueprints@Data@Common@@PAU1234@V?$allocator@UTXMLComponent@Blueprints@Data@Common@@@std@@U1234@@std@@YAPAUTXMLComponent@Blueprints@Data@Common@@PAU1234@00AAU?$_Wrap_alloc@V?$allocator@UTXMLComponent@Blueprints@Data@Common@@@std@@@0@0U_Nonscalar_ptr_iterator_tag@0@@Z 00425c61 f   * CIL library *:* CIL module *
 0001:00024c80       __unwindfunclet$??0?$map@V?$basic_string@DU?$char_traits@D@std@@V?$allocator@D@2@@std@@V?$vector@UTXMLComponent@Blueprints@Data@Common@@V?$allocator@UTXMLComponent@Blueprints@Data@Common@@@std@@@2@U?$less@V?$basic_string@DU?$char_traits@D@std@@V?$allocator@D@2@@std@@@2@V?$allocator@U?$pair@$$CBV?$basic_string@DU?$char_traits@D@std@@V?$allocator@D@2@@std@@V?$vector@UTXMLComponent@Blueprints@Data@Common@@V?$allocator@UTXMLComponent@Blueprints@Data@Common@@@std@@@2@@std@@@2@@std@@QAE@$$QAV01@@Z$1 00425c80 f   * CIL library *:* CIL module *
 0001:00024c88       __ehhandler$??0?$map@V?$basic_string@DU?$char_traits@D@std@@V?$allocator@D@2@@std@@V?$vector@UTXMLComponent@Blueprints@Data@Common@@V?$allocator@UTXMLComponent@Blueprints@Data@Common@@@std@@@2@U?$less@V?$basic_string@DU?$char_traits@D@std@@V?$allocator@D@2@@std@@@2@V?$allocator@U?$pair@$$CBV?$basic_string@DU?$char_traits@D@std@@V?$allocator@D@2@@std@@V?$vector@UTXMLComponent@Blueprints@Data@Common@@V?$allocator@UTXMLComponent@Blueprints@Data@Common@@@std@@@2@@std@@@2@@std@@QAE@$$QAV01@@Z 00425c88 f   * CIL library *:* CIL module *
 0001:00024cb0       __ehhandler$??0?$vector@UTXMLComponent@Blueprints@Data@Common@@V?$allocator@UTXMLComponent@Blueprints@Data@Common@@@std@@@std@@QAE@ABV01@@Z 00425cb0 f   * CIL library *:* CIL module *
 0001:00024cd0       __ehhandler$?_Reallocate@?$vector@UTXMLComponent@Blueprints@Data@Common@@V?$allocator@UTXMLComponent@Blueprints@Data@Common@@@std@@@std@@IAEXI@Z 00425cd0 f   * CIL library *:* CIL module *
 0001:00024cf0       __unwindfunclet$?loadBluePrints@CXMLParser@XMLParser@Util@Common@@SA?AV?$map@V?$basic_string@DU?$char_traits@D@std@@V?$allocator@D@2@@std@@V?$vector@UTXMLComponent@Blueprints@Data@Common@@V?$allocator@UTXMLComponent@Blueprints@Data@Common@@@std@@@2@U?$less@V?$basic_string@DU?$char_traits@D@std@@V?$allocator@D@2@@std@@@2@V?$allocator@U?$pair@$$CBV?$basic_string@DU?$char_traits@D@std@@V?$allocator@D@2@@std@@V?$vector@UTXMLComponent@Blueprints@Data@Common@@V?$allocator@UTXMLComponent@Blueprints@Data@Common@@@std@@@2@@std@@@2@@std@@ABV?$basic_string@DU?$char_traits@D@std@@V?$allocator@D@2@@6@@Z$2 00425cf0 f   * CIL library *:* CIL module *
